gpasm-1.5.0 #1285 (Jan 23 2020) unidds_v1_10.   27.01.2020  22:56:48        PAGE  1


LOC    OBJECT CODE    LINE  SOURCE TEXT
  VALUE

Warning[215]: Processor superseded by command line.
                      00001         processor p16f876
                      00002         radix dec
                      00003 
                      00004         include p16f876.inc
                      00001         LIST
                      00002 
                      00003 ;==========================================================================
                      00004 ; Build date : Oct 21 2015
                      00005 ;  MPASM PIC16F876 processor include
                      00006 ; 
                      00007 ;  (c) Copyright 1999-2015 Microchip Technology, All rights reserved
                      00008 ;==========================================================================
                      00009 
                      00499         LIST
                      00005 
                      00006         ASSUME 0
                      00007 
                      00008 ; The recognition of labels and registers is not always good, therefore
                      00009 ; be treated cautiously the results.
                      00010 
                      00011         CONFIG  FOSC  = HS
                      00012         CONFIG  WDTE  = OFF
                      00013         CONFIG  PWRTE = ON
                      00014         CONFIG  BOREN = ON
                      00015         CONFIG  LVP   = OFF
                      00016         CONFIG  CPD   = OFF
                      00017         CONFIG  WRT   = ON
                      00018         CONFIG  DEBUG = OFF
                      00019         CONFIG  CP    = OFF
                      00020 
2000   000F 000F 000F 00021         __idlocs 0xFFFF
       000F           
                      00022 
                      00023 ;===============================================================================
                      00024 ; DATA address definitions
                      00025 
  00000070            00026 Common_RAM      equ     0x0070                              ; size: 16 bytes
                      00027 
                      00028 ;===============================================================================
                      00029 ; CODE area
                      00030 
                      00031         ; code
                      00032 
0000                  00033         org     __CODE_START                                ; address: 0x0000
                      00034 
0000                  00035 vector_reset:                                               ; address: 0x0000
                      00036 
0000   29CA           00037         goto    label_046
0001   3EFF           00038         addlw   0xff
0002   3EFF           00039         addlw   0xff
0003   3EFF           00040         addlw   0xff
                      00041 
gpasm-1.5.0 #1285 (Jan 23 2020) unidds_v1_10.   27.01.2020  22:56:48        PAGE  2


LOC    OBJECT CODE    LINE  SOURCE TEXT
  VALUE

0004                  00042 vector_int:                                                 ; address: 0x0004
                      00043 
0004   00F0           00044         movwf   Common_RAM                                  ; reg: 0x070
0005   0E03           00045         swapf   STATUS, W                                   ; reg: 0x003
0006   0183           00046         clrf    STATUS                                      ; reg: 0x003
0007   00F1           00047         movwf   (Common_RAM + 1)                            ; reg: 0x071
0008   080A           00048         movf    PCLATH, W                                   ; reg: 0x00a
0009   00F2           00049         movwf   (Common_RAM + 2)                            ; reg: 0x072
000A   018A           00050         clrf    PCLATH                                      ; reg: 0x00a
000B   1383           00051         bcf     STATUS, IRP                                 ; reg: 0x003, bit: 7
000C   0804           00052         movf    FSR, W                                      ; reg: 0x004
000D   00F3           00053         movwf   (Common_RAM + 3)                            ; reg: 0x073
000E   1C8B           00054         btfss   INTCON, INTF                                ; reg: 0x00b, bit: 1
000F   2831           00055         goto    label_008
0010   1683           00056         bsf     STATUS, RP0                                 ; reg: 0x003, bit: 5
0011   1303           00057         bcf     STATUS, RP1                                 ; reg: 0x003, bit: 6
0012   0801           00058         movf    OPTION_REG, W                               ; reg: 0x081
0013   1283           00059         bcf     STATUS, RP0                                 ; reg: 0x003, bit: 5
0014   1303           00060         bcf     STATUS, RP1                                 ; reg: 0x003, bit: 6
0015   00F5           00061         movwf   (Common_RAM + 5)                            ; reg: 0x075
0016   1F75           00062         btfss   (Common_RAM + 5), 0x6                       ; reg: 0x075
0017   281E           00063         goto    label_003
0018   1886           00064         btfsc   PORTB, RB1                                  ; reg: 0x006, bit: 1
0019   281C           00065         goto    label_002
001A   03BE           00066         decf    0x3e, F                                     ; reg: 0x03e
001B   2823           00067         goto    label_005
                      00068 
001C                  00069 label_002:                                                  ; address: 0x001c
                      00070 
001C   0ABE           00071         incf    0x3e, F                                     ; reg: 0x03e
001D   2823           00072         goto    label_005
                      00073 
001E                  00074 label_003:                                                  ; address: 0x001e
                      00075 
001E   1C86           00076         btfss   PORTB, RB1                                  ; reg: 0x006, bit: 1
001F   2822           00077         goto    label_004
0020   03BE           00078         decf    0x3e, F                                     ; reg: 0x03e
0021   2823           00079         goto    label_005
                      00080 
0022                  00081 label_004:                                                  ; address: 0x0022
                      00082 
0022   0ABE           00083         incf    0x3e, F                                     ; reg: 0x03e
                      00084 
0023                  00085 label_005:                                                  ; address: 0x0023
                      00086 
0023   1F75           00087         btfss   (Common_RAM + 5), 0x6                       ; reg: 0x075
0024   282B           00088         goto    label_006
0025   1683           00089         bsf     STATUS, RP0                                 ; reg: 0x003, bit: 5
0026   1303           00090         bcf     STATUS, RP1                                 ; reg: 0x003, bit: 6
0027   1301           00091         bcf     OPTION_REG, INTEDG                          ; reg: 0x081, bit: 6
0028   1283           00092         bcf     STATUS, RP0                                 ; reg: 0x003, bit: 5
0029   1303           00093         bcf     STATUS, RP1                                 ; reg: 0x003, bit: 6
002A   2830           00094         goto    label_007
gpasm-1.5.0 #1285 (Jan 23 2020) unidds_v1_10.   27.01.2020  22:56:48        PAGE  3


LOC    OBJECT CODE    LINE  SOURCE TEXT
  VALUE

                      00095 
002B                  00096 label_006:                                                  ; address: 0x002b
                      00097 
002B   1683           00098         bsf     STATUS, RP0                                 ; reg: 0x003, bit: 5
002C   1303           00099         bcf     STATUS, RP1                                 ; reg: 0x003, bit: 6
002D   1701           00100         bsf     OPTION_REG, INTEDG                          ; reg: 0x081, bit: 6
002E   1283           00101         bcf     STATUS, RP0                                 ; reg: 0x003, bit: 5
002F   1303           00102         bcf     STATUS, RP1                                 ; reg: 0x003, bit: 6
                      00103 
0030                  00104 label_007:                                                  ; address: 0x0030
                      00105 
0030   108B           00106         bcf     INTCON, INTF                                ; reg: 0x00b, bit: 1
                      00107 
0031                  00108 label_008:                                                  ; address: 0x0031
                      00109 
0031   1C0C           00110         btfss   PIR1, TMR1IF                                ; reg: 0x00c, bit: 0
0032   283E           00111         goto    label_009
0033   100C           00112         bcf     PIR1, TMR1IF                                ; reg: 0x00c, bit: 0
0034   08DF           00113         movf    0x5f, F                                     ; reg: 0x05f
0035   1D03           00114         btfss   STATUS, Z                                   ; reg: 0x003, bit: 2
0036   03DF           00115         decf    0x5f, F                                     ; reg: 0x05f
0037   08E0           00116         movf    0x60, F                                     ; reg: 0x060
0038   1D03           00117         btfss   STATUS, Z                                   ; reg: 0x003, bit: 2
0039   03E0           00118         decf    0x60, F                                     ; reg: 0x060
003A   30D9           00119         movlw   0xd9
003B   008F           00120         movwf   TMR1H                                       ; reg: 0x00f
003C   3000           00121         movlw   0x00
003D   008E           00122         movwf   TMR1L                                       ; reg: 0x00e
                      00123 
003E                  00124 label_009:                                                  ; address: 0x003e
                      00125 
003E   1C8C           00126         btfss   PIR1, TMR2IF                                ; reg: 0x00c, bit: 1
003F   2844           00127         goto    label_010
0040   108C           00128         bcf     PIR1, TMR2IF                                ; reg: 0x00c, bit: 1
0041   08E1           00129         movf    0x61, F                                     ; reg: 0x061
0042   1D03           00130         btfss   STATUS, Z                                   ; reg: 0x003, bit: 2
0043   03E1           00131         decf    0x61, F                                     ; reg: 0x061
                      00132 
0044                  00133 label_010:                                                  ; address: 0x0044
                      00134 
0044   1D0B           00135         btfss   INTCON, T0IF                                ; reg: 0x00b, bit: 2
0045   2847           00136         goto    label_011
0046   110B           00137         bcf     INTCON, T0IF                                ; reg: 0x00b, bit: 2
                      00138 
0047                  00139 label_011:                                                  ; address: 0x0047
                      00140 
0047   1A0D           00141         btfsc   PIR2, EEIF                                  ; reg: 0x00d, bit: 4
0048   120D           00142         bcf     PIR2, EEIF                                  ; reg: 0x00d, bit: 4
0049   0873           00143         movf    (Common_RAM + 3), W                         ; reg: 0x073
004A   0084           00144         movwf   FSR                                         ; reg: 0x004
004B   0872           00145         movf    (Common_RAM + 2), W                         ; reg: 0x072
004C   008A           00146         movwf   PCLATH                                      ; reg: 0x00a
004D   0E71           00147         swapf   (Common_RAM + 1), W                         ; reg: 0x071
gpasm-1.5.0 #1285 (Jan 23 2020) unidds_v1_10.   27.01.2020  22:56:48        PAGE  4


LOC    OBJECT CODE    LINE  SOURCE TEXT
  VALUE

004E   0083           00148         movwf   STATUS                                      ; reg: 0x003
004F   0EF0           00149         swapf   Common_RAM, F                               ; reg: 0x070
0050   0E70           00150         swapf   Common_RAM, W                               ; reg: 0x070
0051   0009           00151         retfie
                      00152 
0052                  00153 function_000:                                               ; address: 0x0052
                      00154 
0052   390F           00155         andlw   0x0f
0053   0782           00156         addwf   PCL, F                                      ; reg: 0x002
0054   3430           00157         retlw   0x30
0055   3431           00158         retlw   0x31
0056   3432           00159         retlw   0x32
0057   3433           00160         retlw   0x33
0058   3434           00161         retlw   0x34
0059   3435           00162         retlw   0x35
005A   3436           00163         retlw   0x36
005B   3437           00164         retlw   0x37
                      00165 
005C                  00166 label_012:                                                  ; address: 0x005c
                      00167 
005C   3438           00168         retlw   0x38
005D   3439           00169         retlw   0x39
005E   3441           00170         retlw   0x41
005F   3442           00171         retlw   0x42
0060   3443           00172         retlw   0x43
0061   3444           00173         retlw   0x44
0062   3445           00174         retlw   0x45
0063   3446           00175         retlw   0x46
0064   390F           00176         andlw   0x0f
0065   0782           00177         addwf   PCL, F                                      ; reg: 0x002
0066   34BE           00178         retlw   0xbe
0067   34B4           00179         retlw   0xb4
0068   34AA           00180         retlw   0xaa
0069   34A0           00181         retlw   0xa0
006A   3496           00182         retlw   0x96
006B   348C           00183         retlw   0x8c
006C   3482           00184         retlw   0x82
006D   3478           00185         retlw   0x78
006E   346E           00186         retlw   0x6e
006F   3464           00187         retlw   0x64
0070   345A           00188         retlw   0x5a
0071   3450           00189         retlw   0x50
0072   3446           00190         retlw   0x46
0073   343C           00191         retlw   0x3c
0074   3432           00192         retlw   0x32
0075   3428           00193         retlw   0x28
                      00194 
0076                  00195 function_001:                                               ; address: 0x0076
                      00196 
0076   1683           00197         bsf     STATUS, RP0                                 ; reg: 0x003, bit: 5
0077   1303           00198         bcf     STATUS, RP1                                 ; reg: 0x003, bit: 6
0078   0828           00199         movf    0x28, W                                     ; reg: 0x0a8
0079   1283           00200         bcf     STATUS, RP0                                 ; reg: 0x003, bit: 5
gpasm-1.5.0 #1285 (Jan 23 2020) unidds_v1_10.   27.01.2020  22:56:48        PAGE  5


LOC    OBJECT CODE    LINE  SOURCE TEXT
  VALUE

007A   1303           00201         bcf     STATUS, RP1                                 ; reg: 0x003, bit: 6
007B   00B8           00202         movwf   0x38                                        ; reg: 0x038
007C   0CB8           00203         rrf     0x38, F                                     ; reg: 0x038
007D   0CB8           00204         rrf     0x38, F                                     ; reg: 0x038
007E   0C38           00205         rrf     0x38, W                                     ; reg: 0x038
007F   391F           00206         andlw   0x1f
0080   0782           00207         addwf   PCL, F                                      ; reg: 0x002
0081   3485           00208         retlw   0x85
0082   3478           00209         retlw   0x78
0083   346D           00210         retlw   0x6d
0084   3464           00211         retlw   0x64
0085   345C           00212         retlw   0x5c
0086   3456           00213         retlw   0x56
0087   3450           00214         retlw   0x50
0088   344B           00215         retlw   0x4b
0089   3447           00216         retlw   0x47
008A   3443           00217         retlw   0x43
008B   343F           00218         retlw   0x3f
008C   343C           00219         retlw   0x3c
008D   3439           00220         retlw   0x39
008E   3437           00221         retlw   0x37
008F   3434           00222         retlw   0x34
0090   3432           00223         retlw   0x32
0091   3430           00224         retlw   0x30
0092   342E           00225         retlw   0x2e
0093   342C           00226         retlw   0x2c
0094   342B           00227         retlw   0x2b
0095   3429           00228         retlw   0x29
0096   3428           00229         retlw   0x28
0097   3427           00230         retlw   0x27
0098   3426           00231         retlw   0x26
0099   3424           00232         retlw   0x24
009A   3423           00233         retlw   0x23
009B   3422           00234         retlw   0x22
009C   3421           00235         retlw   0x21
009D   3420           00236         retlw   0x20
009E   3420           00237         retlw   0x20
009F   341F           00238         retlw   0x1f
00A0   341E           00239         retlw   0x1e
                      00240 
00A1                  00241 function_002:                                               ; address: 0x00a1
                      00242 
00A1   00B8           00243         movwf   0x38                                        ; reg: 0x038
00A2   0CB8           00244         rrf     0x38, F                                     ; reg: 0x038
00A3   0CB8           00245         rrf     0x38, F                                     ; reg: 0x038
00A4   0C38           00246         rrf     0x38, W                                     ; reg: 0x038
00A5   391F           00247         andlw   0x1f
00A6   0782           00248         addwf   PCL, F                                      ; reg: 0x002
00A7   3409           00249         retlw   0x09
00A8   3410           00250         retlw   0x10
00A9   3411           00251         retlw   0x11
00AA   3412           00252         retlw   0x12
00AB   3413           00253         retlw   0x13
gpasm-1.5.0 #1285 (Jan 23 2020) unidds_v1_10.   27.01.2020  22:56:48        PAGE  6


LOC    OBJECT CODE    LINE  SOURCE TEXT
  VALUE

00AC   3414           00254         retlw   0x14
00AD   3415           00255         retlw   0x15
00AE   3416           00256         retlw   0x16
00AF   3417           00257         retlw   0x17
00B0   3418           00258         retlw   0x18
00B1   3419           00259         retlw   0x19
00B2   3420           00260         retlw   0x20
00B3   3421           00261         retlw   0x21
00B4   3422           00262         retlw   0x22
00B5   3423           00263         retlw   0x23
00B6   3424           00264         retlw   0x24
00B7   3425           00265         retlw   0x25
00B8   3426           00266         retlw   0x26
00B9   3427           00267         retlw   0x27
00BA   3428           00268         retlw   0x28
00BB   3429           00269         retlw   0x29
00BC   3430           00270         retlw   0x30
00BD   3431           00271         retlw   0x31
00BE   3432           00272         retlw   0x32
00BF   3433           00273         retlw   0x33
00C0   3434           00274         retlw   0x34
00C1   3435           00275         retlw   0x35
00C2   3436           00276         retlw   0x36
00C3   3437           00277         retlw   0x37
                      00278 
00C4                  00279 label_013:                                                  ; address: 0x00c4
                      00280 
00C4   3438           00281         retlw   0x38
00C5   3439           00282         retlw   0x39
00C6   3440           00283         retlw   0x40
                      00284 
00C7                  00285 function_003:                                               ; address: 0x00c7
                      00286 
00C7   01BE           00287         clrf    0x3e                                        ; reg: 0x03e
00C8   3001           00288         movlw   0x01
00C9   00BB           00289         movwf   0x3b                                        ; reg: 0x03b
00CA   300A           00290         movlw   0x0a
00CB   00B8           00291         movwf   0x38                                        ; reg: 0x038
                      00292 
00CC                  00293 label_014:                                                  ; address: 0x00cc
                      00294 
00CC   20DD           00295         call    function_004
00CD   1C03           00296         btfss   STATUS, C                                   ; reg: 0x003, bit: 0
00CE   28DC           00297         goto    label_018
00CF   2121           00298         call    function_009
00D0   0BB8           00299         decfsz  0x38, F                                     ; reg: 0x038
00D1   28CC           00300         goto    label_014
00D2   2184           00301         call    function_017
                      00302 
00D3                  00303 label_015:                                                  ; address: 0x00d3
                      00304 
00D3   3008           00305         movlw   0x08
00D4   00F4           00306         movwf   (Common_RAM + 4)                            ; reg: 0x074
gpasm-1.5.0 #1285 (Jan 23 2020) unidds_v1_10.   27.01.2020  22:56:48        PAGE  7


LOC    OBJECT CODE    LINE  SOURCE TEXT
  VALUE

00D5   3092           00307         movlw   0x92
00D6   218E           00308         call    function_019
                      00309 
00D7                  00310 label_016:                                                  ; address: 0x00d7
                      00311 
00D7   3002           00312         movlw   0x02
00D8   00BB           00313         movwf   0x3b                                        ; reg: 0x03b
                      00314 
00D9                  00315 label_017:                                                  ; address: 0x00d9
                      00316 
00D9   20DD           00317         call    function_004
00DA   1803           00318         btfsc   STATUS, C                                   ; reg: 0x003, bit: 0
00DB   28D7           00319         goto    label_016
                      00320 
00DC                  00321 label_018:                                                  ; address: 0x00dc
                      00322 
00DC   0008           00323         return
                      00324 
00DD                  00325 function_004:                                               ; address: 0x00dd
                      00326 
00DD   1403           00327         bsf     STATUS, C                                   ; reg: 0x003, bit: 0
00DE   1A86           00328         btfsc   PORTB, RB5                                  ; reg: 0x006, bit: 5
00DF   1003           00329         bcf     STATUS, C                                   ; reg: 0x003, bit: 0
00E0   0008           00330         return
                      00331 
00E1                  00332 function_005:                                               ; address: 0x00e1
                      00333 
00E1   0183           00334         clrf    STATUS                                      ; reg: 0x003
00E2   1683           00335         bsf     STATUS, RP0                                 ; reg: 0x003, bit: 5
00E3   1303           00336         bcf     STATUS, RP1                                 ; reg: 0x003, bit: 6
00E4   3040           00337         movlw   0x40
00E5   0081           00338         movwf   OPTION_REG                                  ; reg: 0x081
00E6   302F           00339         movlw   0x2f
00E7   0085           00340         movwf   TRISA                                       ; reg: 0x085
00E8   30E3           00341         movlw   0xe3
00E9   0086           00342         movwf   TRISB                                       ; reg: 0x086
                      00343 
00EA                  00344 label_019:                                                  ; address: 0x00ea
                      00345 
00EA   3000           00346         movlw   0x00
00EB   0087           00347         movwf   PORTC                                       ; reg: 0x007
00EC   3002           00348         movlw   0x02
00ED   009F           00349         movwf   ADCON0                                      ; reg: 0x01f
00EE   3003           00350         movlw   0x03
00EF   008C           00351         movwf   PIR1                                        ; reg: 0x00c
                      00352 
00F0                  00353 label_020:                                                  ; address: 0x00f0
                      00354 
00F0   3010           00355         movlw   0x10
00F1   008D           00356         movwf   PIR2                                        ; reg: 0x00d
00F2   1283           00357         bcf     STATUS, RP0                                 ; reg: 0x003, bit: 5
00F3   1303           00358         bcf     STATUS, RP1                                 ; reg: 0x003, bit: 6
00F4   30D0           00359         movlw   0xd0
gpasm-1.5.0 #1285 (Jan 23 2020) unidds_v1_10.   27.01.2020  22:56:48        PAGE  8


LOC    OBJECT CODE    LINE  SOURCE TEXT
  VALUE

00F5   008B           00360         movwf   INTCON                                      ; reg: 0x00b
00F6   3000           00361         movlw   0x00
00F7   0085           00362         movwf   PORTA                                       ; reg: 0x005
00F8   3000           00363         movlw   0x00
00F9   0086           00364         movwf   PORTB                                       ; reg: 0x006
                      00365 
00FA                  00366 label_021:                                                  ; address: 0x00fa
                      00367 
00FA   3000           00368         movlw   0x00
00FB   0087           00369         movwf   PORTC                                       ; reg: 0x007
00FC   3001           00370         movlw   0x01
00FD   0090           00371         movwf   T1CON                                       ; reg: 0x010
00FE   3001           00372         movlw   0x01
00FF   0092           00373         movwf   T2CON                                       ; reg: 0x012
0100   3020           00374         movlw   0x20
0101   0084           00375         movwf   FSR                                         ; reg: 0x004
                      00376 
0102                  00377 label_022:                                                  ; address: 0x0102
                      00378 
0102   0180           00379         clrf    INDF                                        ; reg: 0x000
0103   3065           00380         movlw   0x65
0104   0204           00381         subwf   FSR, W                                      ; reg: 0x004
0105   1903           00382         btfsc   STATUS, Z                                   ; reg: 0x003, bit: 2
0106   2909           00383         goto    label_023
0107   0A84           00384         incf    FSR, F                                      ; reg: 0x004
0108   2902           00385         goto    label_022
                      00386 
0109                  00387 label_023:                                                  ; address: 0x0109
                      00388 
0109   30D9           00389         movlw   0xd9
010A   008F           00390         movwf   TMR1H                                       ; reg: 0x00f
010B   3000           00391         movlw   0x00
010C   008E           00392         movwf   TMR1L                                       ; reg: 0x00e
010D   1683           00393         bsf     STATUS, RP0                                 ; reg: 0x003, bit: 5
                      00394 
010E                  00395 label_024:                                                  ; address: 0x010e
                      00396 
010E   1303           00397         bcf     STATUS, RP1                                 ; reg: 0x003, bit: 6
010F   3001           00398         movlw   0x01
0110   00D5           00399         movwf   0x55                                        ; reg: 0x055
0111   00D7           00400         movwf   0x57                                        ; reg: 0x057
0112   01D3           00401         clrf    0x53                                        ; reg: 0x053
0113   01D4           00402         clrf    0x54                                        ; reg: 0x054
0114   1283           00403         bcf     STATUS, RP0                                 ; reg: 0x003, bit: 5
0115   1303           00404         bcf     STATUS, RP1                                 ; reg: 0x003, bit: 6
0116   0008           00405         return
                      00406 
0117                  00407 function_006:                                               ; address: 0x0117
                      00408 
0117   30FA           00409         movlw   0xfa
0118   212A           00410         call    function_011
0119   30FA           00411         movlw   0xfa
011A   212A           00412         call    function_011
gpasm-1.5.0 #1285 (Jan 23 2020) unidds_v1_10.   27.01.2020  22:56:48        PAGE  9


LOC    OBJECT CODE    LINE  SOURCE TEXT
  VALUE

011B   30FA           00413         movlw   0xfa
011C   212A           00414         call    function_011
                      00415 
011D                  00416 function_007:                                               ; address: 0x011d
                      00417 
011D   30FA           00418         movlw   0xfa
011E   292A           00419         goto    function_011
                      00420 
011F                  00421 function_008:                                               ; address: 0x011f
                      00422 
011F   3064           00423         movlw   0x64
0120   292A           00424         goto    function_011
                      00425 
0121                  00426 function_009:                                               ; address: 0x0121
                      00427 
0121   3032           00428         movlw   0x32
0122   292A           00429         goto    function_011
0123   300A           00430         movlw   0x0a
0124   292A           00431         goto    function_011
0125   3005           00432         movlw   0x05
0126   292A           00433         goto    function_011
0127   3003           00434         movlw   0x03
                      00435 
0128                  00436 label_025:                                                  ; address: 0x0128
                      00437 
0128   292A           00438         goto    function_011
                      00439 
0129                  00440 function_010:                                               ; address: 0x0129
                      00441 
0129   3001           00442         movlw   0x01
                      00443 
012A                  00444 function_011:                                               ; address: 0x012a
                      00445 
012A   00B5           00446         movwf   0x35                                        ; reg: 0x035
012B   0AB5           00447         incf    0x35, F                                     ; reg: 0x035
                      00448 
012C                  00449 label_026:                                                  ; address: 0x012c
                      00450 
012C   0BB5           00451         decfsz  0x35, F                                     ; reg: 0x035
012D   292F           00452         goto    label_027
012E   0008           00453         return
                      00454 
012F                  00455 label_027:                                                  ; address: 0x012f
                      00456 
012F   3013           00457         movlw   0x13
0130   00B6           00458         movwf   0x36                                        ; reg: 0x036
                      00459 
0131                  00460 label_028:                                                  ; address: 0x0131
                      00461 
0131   0BB6           00462         decfsz  0x36, F                                     ; reg: 0x036
0132   2934           00463         goto    label_029
0133   292C           00464         goto    label_026
                      00465 
gpasm-1.5.0 #1285 (Jan 23 2020) unidds_v1_10.   27.01.2020  22:56:48        PAGE 10


LOC    OBJECT CODE    LINE  SOURCE TEXT
  VALUE

0134                  00466 label_029:                                                  ; address: 0x0134
                      00467 
0134   3010           00468         movlw   0x10
0135   00B7           00469         movwf   0x37                                        ; reg: 0x037
                      00470 
0136                  00471 label_030:                                                  ; address: 0x0136
                      00472 
0136   0BB7           00473         decfsz  0x37, F                                     ; reg: 0x037
0137   2936           00474         goto    label_030
0138   2931           00475         goto    label_028
                      00476 
0139                  00477 function_012:                                               ; address: 0x0139
                      00478 
0139   1007           00479         bcf     PORTC, RC0                                  ; reg: 0x007, bit: 0
013A   300F           00480         movlw   0x0f
013B   212A           00481         call    function_011
013C   3020           00482         movlw   0x20
013D   2161           00483         call    function_015
013E   3080           00484         movlw   0x80
013F   2161           00485         call    function_015
0140   3005           00486         movlw   0x05
0141   212A           00487         call    function_011
                      00488 
0142                  00489 label_031:                                                  ; address: 0x0142
                      00490 
0142   3020           00491         movlw   0x20
0143   2161           00492         call    function_015
0144   3080           00493         movlw   0x80
0145   2161           00494         call    function_015
0146   3001           00495         movlw   0x01
0147   212A           00496         call    function_011
0148   3006           00497         movlw   0x06
0149   215A           00498         call    function_014
014A   300C           00499         movlw   0x0c
014B   215A           00500         call    function_014
014C   3014           00501         movlw   0x14
014D   215A           00502         call    function_014
014E   2184           00503         call    function_017
014F   0008           00504         return
                      00505 
0150                  00506 function_013:                                               ; address: 0x0150
                      00507 
0150   00F6           00508         movwf   (Common_RAM + 6)                            ; reg: 0x076
                      00509 
0151                  00510 label_032:                                                  ; address: 0x0151
                      00511 
0151   2167           00512         call    function_016
0152   0876           00513         movf    (Common_RAM + 6), W                         ; reg: 0x076
0153   39F0           00514         andlw   0xf0
0154   3804           00515         iorlw   0x04
0155   2161           00516         call    function_015
0156   0E76           00517         swapf   (Common_RAM + 6), W                         ; reg: 0x076
                      00518 
gpasm-1.5.0 #1285 (Jan 23 2020) unidds_v1_10.   27.01.2020  22:56:48        PAGE 11


LOC    OBJECT CODE    LINE  SOURCE TEXT
  VALUE

0157                  00519 label_033:                                                  ; address: 0x0157
                      00520 
0157   39F0           00521         andlw   0xf0
0158   3804           00522         iorlw   0x04
0159   2961           00523         goto    function_015
                      00524 
015A                  00525 function_014:                                               ; address: 0x015a
                      00526 
015A   00F6           00527         movwf   (Common_RAM + 6)                            ; reg: 0x076
015B   2167           00528         call    function_016
015C   0876           00529         movf    (Common_RAM + 6), W                         ; reg: 0x076
                      00530 
015D                  00531 label_034:                                                  ; address: 0x015d
                      00532 
015D   39F0           00533         andlw   0xf0
015E   2161           00534         call    function_015
015F   0E76           00535         swapf   (Common_RAM + 6), W                         ; reg: 0x076
0160   39F0           00536         andlw   0xf0
                      00537 
0161                  00538 function_015:                                               ; address: 0x0161
                      00539 
0161   1987           00540         btfsc   PORTC, RC3                                  ; reg: 0x007, bit: 3
0162   3808           00541         iorlw   0x08
                      00542 
0163                  00543 label_035:                                                  ; address: 0x0163
                      00544 
0163   0087           00545         movwf   PORTC                                       ; reg: 0x007
0164   1407           00546         bsf     PORTC, RC0                                  ; reg: 0x007, bit: 0
0165   1007           00547         bcf     PORTC, RC0                                  ; reg: 0x007, bit: 0
0166   0008           00548         return
                      00549 
0167                  00550 function_016:                                               ; address: 0x0167
                      00551 
0167   1787           00552         bsf     PORTC, RC7                                  ; reg: 0x007, bit: 7
0168   1683           00553         bsf     STATUS, RP0                                 ; reg: 0x003, bit: 5
0169   1303           00554         bcf     STATUS, RP1                                 ; reg: 0x003, bit: 6
                      00555 
016A                  00556 label_036:                                                  ; address: 0x016a
                      00557 
016A   3080           00558         movlw   0x80
016B   0087           00559         movwf   PORTC                                       ; reg: 0x007
                      00560 
016C                  00561 label_037:                                                  ; address: 0x016c
                      00562 
016C   1283           00563         bcf     STATUS, RP0                                 ; reg: 0x003, bit: 5
016D   1303           00564         bcf     STATUS, RP1                                 ; reg: 0x003, bit: 6
                      00565 
016E                  00566 label_038:                                                  ; address: 0x016e
                      00567 
016E   1107           00568         bcf     PORTC, RC2                                  ; reg: 0x007, bit: 2
016F   1487           00569         bsf     PORTC, RC1                                  ; reg: 0x007, bit: 1
                      00570 
0170                  00571 label_039:                                                  ; address: 0x0170
gpasm-1.5.0 #1285 (Jan 23 2020) unidds_v1_10.   27.01.2020  22:56:48        PAGE 12


LOC    OBJECT CODE    LINE  SOURCE TEXT
  VALUE

                      00572 
0170   13B1           00573         bcf     0x31, 0x7                                   ; reg: 0x031
                      00574 
0171                  00575 label_040:                                                  ; address: 0x0171
                      00576 
0171   1407           00577         bsf     PORTC, RC0                                  ; reg: 0x007, bit: 0
0172   0000           00578         nop
                      00579 
0173                  00580 label_041:                                                  ; address: 0x0173
                      00581 
0173   1F87           00582         btfss   PORTC, RC7                                  ; reg: 0x007, bit: 7
0174   17B1           00583         bsf     0x31, 0x7                                   ; reg: 0x031
                      00584 
0175                  00585 label_042:                                                  ; address: 0x0175
                      00586 
0175   1007           00587         bcf     PORTC, RC0                                  ; reg: 0x007, bit: 0
0176   0000           00588         nop
0177   1407           00589         bsf     PORTC, RC0                                  ; reg: 0x007, bit: 0
0178   0000           00590         nop
0179   1007           00591         bcf     PORTC, RC0                                  ; reg: 0x007, bit: 0
017A   1FB1           00592         btfss   0x31, 0x7                                   ; reg: 0x031
017B   2970           00593         goto    label_039
017C   1683           00594         bsf     STATUS, RP0                                 ; reg: 0x003, bit: 5
017D   1303           00595         bcf     STATUS, RP1                                 ; reg: 0x003, bit: 6
017E   3000           00596         movlw   0x00
017F   0087           00597         movwf   TRISC                                       ; reg: 0x087
0180   1283           00598         bcf     STATUS, RP0                                 ; reg: 0x003, bit: 5
0181   1303           00599         bcf     STATUS, RP1                                 ; reg: 0x003, bit: 6
0182   1087           00600         bcf     PORTC, RC1                                  ; reg: 0x007, bit: 1
0183   0008           00601         return
                      00602 
0184                  00603 function_017:                                               ; address: 0x0184
                      00604 
0184   3001           00605         movlw   0x01
0185   295A           00606         goto    function_014
0186   3002           00607         movlw   0x02
0187   295A           00608         goto    function_014
0188   3080           00609         movlw   0x80
0189   295A           00610         goto    function_014
018A   30C0           00611         movlw   0xc0
018B   295A           00612         goto    function_014
                      00613 
018C                  00614 function_018:                                               ; address: 0x018c
                      00615 
018C   3880           00616         iorlw   0x80
018D   295A           00617         goto    function_014
                      00618 
018E                  00619 function_019:                                               ; address: 0x018e
                      00620 
018E   1283           00621         bcf     STATUS, RP0                                 ; reg: 0x003, bit: 5
018F   1703           00622         bsf     STATUS, RP1                                 ; reg: 0x003, bit: 6
0190   008D           00623         movwf   EEADR                                       ; reg: 0x10d
0191   0874           00624         movf    0x74, W                                     ; reg: 0x174
gpasm-1.5.0 #1285 (Jan 23 2020) unidds_v1_10.   27.01.2020  22:56:48        PAGE 13


LOC    OBJECT CODE    LINE  SOURCE TEXT
  VALUE

0192   008F           00625         movwf   EEADRH                                      ; reg: 0x10f
0193   1683           00626         bsf     STATUS, RP0                                 ; reg: 0x003, bit: 5
0194   1703           00627         bsf     STATUS, RP1                                 ; reg: 0x003, bit: 6
0195   178C           00628         bsf     EECON1, EEPGD                               ; reg: 0x18c, bit: 7
                      00629 
0196                  00630 label_043:                                                  ; address: 0x0196
                      00631 
0196   138B           00632         bcf     INTCON, GIE                                 ; reg: 0x00b, bit: 7
0197   1B8B           00633         btfsc   INTCON, GIE                                 ; reg: 0x00b, bit: 7
0198   2996           00634         goto    label_043
0199   140C           00635         bsf     PIR1, TMR1IF                                ; reg: 0x00c, bit: 0
019A   0000           00636         nop
019B   0000           00637         nop
019C   178B           00638         bsf     INTCON, GIE                                 ; reg: 0x00b, bit: 7
019D   1283           00639         bcf     STATUS, RP0                                 ; reg: 0x003, bit: 5
019E   1703           00640         bsf     STATUS, RP1                                 ; reg: 0x003, bit: 6
019F   080C           00641         movf    EEDATA, W                                   ; reg: 0x10c
01A0   1283           00642         bcf     STATUS, RP0                                 ; reg: 0x003, bit: 5
01A1   1303           00643         bcf     STATUS, RP1                                 ; reg: 0x003, bit: 6
01A2   218C           00644         call    function_018
01A3   1283           00645         bcf     STATUS, RP0                                 ; reg: 0x003, bit: 5
01A4   1703           00646         bsf     STATUS, RP1                                 ; reg: 0x003, bit: 6
01A5   0A8D           00647         incf    EEADR, F                                    ; reg: 0x10d
01A6   1903           00648         btfsc   STATUS, Z                                   ; reg: 0x003, bit: 2
01A7   0A8F           00649         incf    EEADRH, F                                   ; reg: 0x10f
                      00650 
01A8                  00651 label_044:                                                  ; address: 0x01a8
                      00652 
01A8   1683           00653         bsf     STATUS, RP0                                 ; reg: 0x003, bit: 5
01A9   1703           00654         bsf     STATUS, RP1                                 ; reg: 0x003, bit: 6
01AA   178C           00655         bsf     EECON1, EEPGD                               ; reg: 0x18c, bit: 7
                      00656 
01AB                  00657 label_045:                                                  ; address: 0x01ab
                      00658 
01AB   138B           00659         bcf     INTCON, GIE                                 ; reg: 0x00b, bit: 7
01AC   1B8B           00660         btfsc   INTCON, GIE                                 ; reg: 0x00b, bit: 7
01AD   29AB           00661         goto    label_045
01AE   140C           00662         bsf     PIR1, TMR1IF                                ; reg: 0x00c, bit: 0
01AF   0000           00663         nop
01B0   0000           00664         nop
01B1   178B           00665         bsf     INTCON, GIE                                 ; reg: 0x00b, bit: 7
01B2   1283           00666         bcf     STATUS, RP0                                 ; reg: 0x003, bit: 5
01B3   1703           00667         bsf     STATUS, RP1                                 ; reg: 0x003, bit: 6
01B4   080C           00668         movf    EEDATA, W                                   ; reg: 0x10c
01B5   1283           00669         bcf     STATUS, RP0                                 ; reg: 0x003, bit: 5
01B6   1303           00670         bcf     STATUS, RP1                                 ; reg: 0x003, bit: 6
01B7   39FF           00671         andlw   0xff
01B8   1903           00672         btfsc   STATUS, Z                                   ; reg: 0x003, bit: 2
01B9   0008           00673         return
01BA   2150           00674         call    function_013
01BB   1283           00675         bcf     STATUS, RP0                                 ; reg: 0x003, bit: 5
01BC   1703           00676         bsf     STATUS, RP1                                 ; reg: 0x003, bit: 6
01BD   0A8D           00677         incf    EEADR, F                                    ; reg: 0x10d
gpasm-1.5.0 #1285 (Jan 23 2020) unidds_v1_10.   27.01.2020  22:56:48        PAGE 14


LOC    OBJECT CODE    LINE  SOURCE TEXT
  VALUE

01BE   1903           00678         btfsc   STATUS, Z                                   ; reg: 0x003, bit: 2
01BF   0A8F           00679         incf    EEADRH, F                                   ; reg: 0x10f
01C0   29A8           00680         goto    label_044
                      00681 
01C1                  00682 function_020:                                               ; address: 0x01c1
                      00683 
01C1   3020           00684         movlw   0x20
01C2   2950           00685         goto    function_013
                      00686 
01C3                  00687 function_021:                                               ; address: 0x01c3
                      00688 
01C3   00F7           00689         movwf   (Common_RAM + 7)                            ; reg: 0x077
01C4   0E77           00690         swapf   (Common_RAM + 7), W                         ; reg: 0x077
01C5   2052           00691         call    function_000
01C6   2150           00692         call    function_013
01C7   0877           00693         movf    (Common_RAM + 7), W                         ; reg: 0x077
01C8   2052           00694         call    function_000
01C9   2950           00695         goto    function_013
                      00696 
01CA                  00697 label_046:                                                  ; address: 0x01ca
                      00698 
01CA   20E1           00699         call    function_005
01CB   255F           00700         call    function_041
01CC   1605           00701         bsf     PORTA, RA4                                  ; reg: 0x005, bit: 4
01CD   2139           00702         call    function_012
01CE   3008           00703         movlw   0x08
01CF   00F4           00704         movwf   (Common_RAM + 4)                            ; reg: 0x074
01D0   3060           00705         movlw   0x60
01D1   218E           00706         call    function_019
01D2   3008           00707         movlw   0x08
01D3   00F4           00708         movwf   (Common_RAM + 4)                            ; reg: 0x074
01D4   3042           00709         movlw   0x42
01D5   218E           00710         call    function_019
01D6   3007           00711         movlw   0x07
01D7   00B8           00712         movwf   0x38                                        ; reg: 0x038
                      00713 
01D8                  00714 label_047:                                                  ; address: 0x01d8
                      00715 
01D8   211D           00716         call    function_007
01D9   302E           00717         movlw   0x2e
01DA   2150           00718         call    function_013
01DB   0BB8           00719         decfsz  0x38, F                                     ; reg: 0x038
01DC   29D8           00720         goto    label_047
01DD   2654           00721         call    function_054
01DE   0A20           00722         incf    0x20, W                                     ; reg: 0x020
01DF   1D03           00723         btfss   STATUS, Z                                   ; reg: 0x003, bit: 2
01E0   29F7           00724         goto    label_049
01E1   3002           00725         movlw   0x02
01E2   00B8           00726         movwf   0x38                                        ; reg: 0x038
01E3   3009           00727         movlw   0x09
01E4   00F4           00728         movwf   (Common_RAM + 4)                            ; reg: 0x074
01E5   3006           00729         movlw   0x06
01E6   218E           00730         call    function_019
gpasm-1.5.0 #1285 (Jan 23 2020) unidds_v1_10.   27.01.2020  22:56:48        PAGE 15


LOC    OBJECT CODE    LINE  SOURCE TEXT
  VALUE

01E7   3009           00731         movlw   0x09
01E8   00F4           00732         movwf   (Common_RAM + 4)                            ; reg: 0x074
01E9   3018           00733         movlw   0x18
01EA   218E           00734         call    function_019
01EB   2117           00735         call    function_006
                      00736 
01EC                  00737 label_048:                                                  ; address: 0x01ec
                      00738 
01EC   3008           00739         movlw   0x08
01ED   215A           00740         call    function_014
01EE   2117           00741         call    function_006
01EF   300C           00742         movlw   0x0c
01F0   215A           00743         call    function_014
01F1   2117           00744         call    function_006
01F2   0BB8           00745         decfsz  0x38, F                                     ; reg: 0x038
01F3   29EC           00746         goto    label_048
01F4   118A           00747         bcf     PCLATH, 0x3                                 ; reg: 0x00a
01F5   160A           00748         bsf     PCLATH, 0x4                                 ; reg: 0x00a
01F6   2975           00749         goto    label_193
                      00750 
01F7                  00751 label_049:                                                  ; address: 0x01f7
                      00752 
01F7   1A86           00753         btfsc   PORTB, RB5                                  ; reg: 0x006, bit: 5
01F8   2A0E           00754         goto    label_207
01F9   2184           00755         call    function_067
01FA   3008           00756         movlw   0x08
01FB   00F4           00757         movwf   (Common_RAM + 4)                            ; reg: 0x074
01FC   3072           00758         movlw   0x72
01FD   218E           00759         call    0x018e
01FE   3008           00760         movlw   0x08
01FF   00F4           00761         movwf   (Common_RAM + 4)                            ; reg: 0x074
0200   304E           00762         movlw   0x4e
0201   218E           00763         call    0x018e
0202   2117           00764         call    0x0117
0203   2117           00765         call    0x0117
0204   2117           00766         call    0x0117
0205   2117           00767         call    0x0117
0206   2117           00768         call    0x0117
0207   1E86           00769         btfss   PORTB, RB5                                  ; reg: 0x006, bit: 5
0208   2A07           00770         goto    0x0207
0209   118A           00771         bcf     PCLATH, 0x3                                 ; reg: 0x00a
020A   160A           00772         bsf     PCLATH, 0x4                                 ; reg: 0x00a
020B   2E39           00773         goto    label_258
020C   118A           00774         bcf     PCLATH, 0x3                                 ; reg: 0x00a
020D   120A           00775         bcf     PCLATH, 0x4                                 ; reg: 0x00a
020E   2184           00776         call    function_017
020F   1D20           00777         btfss   0x20, 0x2                                   ; reg: 0x020
0210   1205           00778         bcf     PORTA, RA4                                  ; reg: 0x005, bit: 4
0211   2620           00779         call    function_051
0212   15B1           00780         bsf     0x31, 0x3                                   ; reg: 0x031
0213   01BC           00781         clrf    0x3c                                        ; reg: 0x03c
0214   3002           00782         movlw   0x02
0215   00BD           00783         movwf   0x3d                                        ; reg: 0x03d
gpasm-1.5.0 #1285 (Jan 23 2020) unidds_v1_10.   27.01.2020  22:56:48        PAGE 16


LOC    OBJECT CODE    LINE  SOURCE TEXT
  VALUE

0216   3010           00784         movlw   0x10
0217   00E2           00785         movwf   0x62                                        ; reg: 0x062
0218   1532           00786         bsf     0x32, 0x2                                   ; reg: 0x032
0219   14B2           00787         bsf     0x32, 0x1                                   ; reg: 0x032
                      00788 
021A                  00789 label_050:                                                  ; address: 0x021a
                      00790 
021A   1431           00791         bsf     0x31, 0x0                                   ; reg: 0x031
021B   08BE           00792         movf    0x3e, F                                     ; reg: 0x03e
021C   1903           00793         btfsc   STATUS, Z                                   ; reg: 0x003, bit: 2
021D   2A33           00794         goto    label_055
021E   1031           00795         bcf     0x31, 0x0                                   ; reg: 0x031
021F   2620           00796         call    function_051
0220   083E           00797         movf    0x3e, W                                     ; reg: 0x03e
0221   1BBE           00798         btfsc   0x3e, 0x7                                   ; reg: 0x03e
0222   2A2A           00799         goto    label_052
0223   01BE           00800         clrf    0x3e                                        ; reg: 0x03e
0224   397F           00801         andlw   0x7f
0225   00C8           00802         movwf   0x48                                        ; reg: 0x048
                      00803 
0226                  00804 label_051:                                                  ; address: 0x0226
                      00805 
0226   2391           00806         call    function_028
0227   0BC8           00807         decfsz  0x48, F                                     ; reg: 0x048
0228   2A26           00808         goto    label_051
0229   2A31           00809         goto    label_054
                      00810 
022A                  00811 label_052:                                                  ; address: 0x022a
                      00812 
022A   093E           00813         comf    0x3e, W                                     ; reg: 0x03e
022B   01BE           00814         clrf    0x3e                                        ; reg: 0x03e
022C   3E01           00815         addlw   0x01
022D   00C8           00816         movwf   0x48                                        ; reg: 0x048
                      00817 
022E                  00818 label_053:                                                  ; address: 0x022e
                      00819 
022E   23E2           00820         call    function_029
022F   0BC8           00821         decfsz  0x48, F                                     ; reg: 0x048
0230   2A2E           00822         goto    label_053
                      00823 
0231                  00824 label_054:                                                  ; address: 0x0231
                      00825 
0231   14B2           00826         bsf     0x32, 0x1                                   ; reg: 0x032
0232   1532           00827         bsf     0x32, 0x2                                   ; reg: 0x032
                      00828 
0233                  00829 label_055:                                                  ; address: 0x0233
                      00830 
0233   1D32           00831         btfss   0x32, 0x2                                   ; reg: 0x032
0234   2A39           00832         goto    label_056
0235   1031           00833         bcf     0x31, 0x0                                   ; reg: 0x031
0236   231A           00834         call    function_023
0237   22F8           00835         call    function_022
0238   1132           00836         bcf     0x32, 0x2                                   ; reg: 0x032
gpasm-1.5.0 #1285 (Jan 23 2020) unidds_v1_10.   27.01.2020  22:56:48        PAGE 17


LOC    OBJECT CODE    LINE  SOURCE TEXT
  VALUE

                      00837 
0239                  00838 label_056:                                                  ; address: 0x0239
                      00839 
0239   1CB2           00840         btfss   0x32, 0x1                                   ; reg: 0x032
023A   2A42           00841         goto    label_057
023B   1031           00842         bcf     0x31, 0x0                                   ; reg: 0x031
023C   24ED           00843         call    function_038
023D   1D87           00844         btfss   PORTC, RC3                                  ; reg: 0x007, bit: 3
023E   2533           00845         call    function_040
023F   1987           00846         btfsc   PORTC, RC3                                  ; reg: 0x007, bit: 3
0240   2528           00847         call    function_039
0241   10B2           00848         bcf     0x32, 0x1                                   ; reg: 0x032
                      00849 
0242                  00850 label_057:                                                  ; address: 0x0242
                      00851 
0242   1A86           00852         btfsc   PORTB, RB5                                  ; reg: 0x006, bit: 5
0243   2A63           00853         goto    label_063
0244   1031           00854         bcf     0x31, 0x0                                   ; reg: 0x031
0245   1820           00855         btfsc   0x20, 0x0                                   ; reg: 0x020
0246   1605           00856         bsf     PORTA, RA4                                  ; reg: 0x005, bit: 4
0247   20C7           00857         call    function_003
0248   083B           00858         movf    0x3b, W                                     ; reg: 0x03b
0249   3A01           00859         xorlw   0x01
024A   1D03           00860         btfss   STATUS, Z                                   ; reg: 0x003, bit: 2
024B   2A5C           00861         goto    label_061
024C   0ABD           00862         incf    0x3d, F                                     ; reg: 0x03d
024D   1F20           00863         btfss   0x20, 0x6                                   ; reg: 0x020
024E   2A54           00864         goto    label_058
024F   083D           00865         movf    0x3d, W                                     ; reg: 0x03d
0250   3A05           00866         xorlw   0x05
0251   1D03           00867         btfss   STATUS, Z                                   ; reg: 0x003, bit: 2
0252   2A5A           00868         goto    label_060
0253   2A58           00869         goto    label_059
                      00870 
0254                  00871 label_058:                                                  ; address: 0x0254
                      00872 
0254   083D           00873         movf    0x3d, W                                     ; reg: 0x03d
0255   3A04           00874         xorlw   0x04
0256   1D03           00875         btfss   STATUS, Z                                   ; reg: 0x003, bit: 2
0257   2A5A           00876         goto    label_060
                      00877 
0258                  00878 label_059:                                                  ; address: 0x0258
                      00879 
0258   3001           00880         movlw   0x01
0259   00BD           00881         movwf   0x3d                                        ; reg: 0x03d
                      00882 
025A                  00883 label_060:                                                  ; address: 0x025a
                      00884 
025A   1532           00885         bsf     0x32, 0x2                                   ; reg: 0x032
025B   2A61           00886         goto    label_062
                      00887 
025C                  00888 label_061:                                                  ; address: 0x025c
                      00889 
gpasm-1.5.0 #1285 (Jan 23 2020) unidds_v1_10.   27.01.2020  22:56:48        PAGE 18


LOC    OBJECT CODE    LINE  SOURCE TEXT
  VALUE

025C   118A           00890         bcf     PCLATH, 0x3                                 ; reg: 0x00a
025D   160A           00891         bsf     PCLATH, 0x4                                 ; reg: 0x00a
025E   2060           00892         call    function_064
025F   118A           00893         bcf     PCLATH, 0x3                                 ; reg: 0x00a
0260   120A           00894         bcf     PCLATH, 0x4                                 ; reg: 0x00a
                      00895 
0261                  00896 label_062:                                                  ; address: 0x0261
                      00897 
0261   1820           00898         btfsc   0x20, 0x0                                   ; reg: 0x020
0262   2620           00899         call    function_051
                      00900 
0263                  00901 label_063:                                                  ; address: 0x0263
                      00902 
0263   1CA0           00903         btfss   0x20, 0x1                                   ; reg: 0x020
0264   2A80           00904         goto    label_065
0265   1F06           00905         btfss   PORTB, RB6                                  ; reg: 0x006, bit: 6
0266   14B1           00906         bsf     0x31, 0x1                                   ; reg: 0x031
0267   1F86           00907         btfss   PORTB, RB7                                  ; reg: 0x006, bit: 7
0268   1531           00908         bsf     0x31, 0x2                                   ; reg: 0x031
0269   1CB1           00909         btfss   0x31, 0x1                                   ; reg: 0x031
026A   2A73           00910         goto    label_064
026B   1031           00911         bcf     0x31, 0x0                                   ; reg: 0x031
026C   2528           00912         call    function_039
026D   1587           00913         bsf     PORTC, RC3                                  ; reg: 0x007, bit: 3
026E   25EE           00914         call    function_050
026F   1187           00915         bcf     PORTC, RC3                                  ; reg: 0x007, bit: 3
0270   2533           00916         call    function_040
0271   25EE           00917         call    function_050
0272   10B1           00918         bcf     0x31, 0x1                                   ; reg: 0x031
                      00919 
0273                  00920 label_064:                                                  ; address: 0x0273
                      00921 
0273   1D31           00922         btfss   0x31, 0x2                                   ; reg: 0x031
0274   2A8C           00923         goto    label_067
0275   1031           00924         bcf     0x31, 0x0                                   ; reg: 0x031
0276   2528           00925         call    function_039
0277   1587           00926         bsf     PORTC, RC3                                  ; reg: 0x007, bit: 3
0278   25EE           00927         call    function_050
0279   25EE           00928         call    function_050
027A   25EE           00929         call    function_050
027B   1187           00930         bcf     PORTC, RC3                                  ; reg: 0x007, bit: 3
027C   2533           00931         call    function_040
027D   25EE           00932         call    function_050
027E   1131           00933         bcf     0x31, 0x2                                   ; reg: 0x031
027F   2A8C           00934         goto    label_067
                      00935 
0280                  00936 label_065:                                                  ; address: 0x0280
                      00937 
0280   1B06           00938         btfsc   PORTB, RB6                                  ; reg: 0x006, bit: 6
0281   2A88           00939         goto    label_066
0282   1987           00940         btfsc   PORTC, RC3                                  ; reg: 0x007, bit: 3
0283   2A8C           00941         goto    label_067
0284   1031           00942         bcf     0x31, 0x0                                   ; reg: 0x031
gpasm-1.5.0 #1285 (Jan 23 2020) unidds_v1_10.   27.01.2020  22:56:48        PAGE 19


LOC    OBJECT CODE    LINE  SOURCE TEXT
  VALUE

0285   2528           00943         call    function_039
0286   1587           00944         bsf     PORTC, RC3                                  ; reg: 0x007, bit: 3
0287   2A8C           00945         goto    label_067
                      00946 
0288                  00947 label_066:                                                  ; address: 0x0288
                      00948 
0288   1D87           00949         btfss   PORTC, RC3                                  ; reg: 0x007, bit: 3
0289   2A8C           00950         goto    label_067
028A   2533           00951         call    function_040
028B   1187           00952         bcf     PORTC, RC3                                  ; reg: 0x007, bit: 3
                      00953 
028C                  00954 label_067:                                                  ; address: 0x028c
                      00955 
028C   08DF           00956         movf    0x5f, F                                     ; reg: 0x05f
028D   1903           00957         btfsc   STATUS, Z                                   ; reg: 0x003, bit: 2
028E   2A97           00958         goto    label_068
028F   1DB1           00959         btfss   0x31, 0x3                                   ; reg: 0x031
0290   2A9E           00960         goto    label_069
0291   1820           00961         btfsc   0x20, 0x0                                   ; reg: 0x020
0292   1605           00962         bsf     PORTA, RA4                                  ; reg: 0x005, bit: 4
0293   11B1           00963         bcf     0x31, 0x3                                   ; reg: 0x031
0294   1631           00964         bsf     0x31, 0x4                                   ; reg: 0x031
0295   1532           00965         bsf     0x32, 0x2                                   ; reg: 0x032
0296   2A9E           00966         goto    label_069
                      00967 
0297                  00968 label_068:                                                  ; address: 0x0297
                      00969 
0297   1E31           00970         btfss   0x31, 0x4                                   ; reg: 0x031
0298   2A9E           00971         goto    label_069
0299   1820           00972         btfsc   0x20, 0x0                                   ; reg: 0x020
029A   1205           00973         bcf     PORTA, RA4                                  ; reg: 0x005, bit: 4
029B   15B1           00974         bsf     0x31, 0x3                                   ; reg: 0x031
029C   1231           00975         bcf     0x31, 0x4                                   ; reg: 0x031
029D   1532           00976         bsf     0x32, 0x2                                   ; reg: 0x032
                      00977 
029E                  00978 label_069:                                                  ; address: 0x029e
                      00979 
029E   1F31           00980         btfss   0x31, 0x6                                   ; reg: 0x031
029F   2AA5           00981         goto    label_070
02A0   2620           00982         call    function_051
02A1   231A           00983         call    function_023
02A2   22F8           00984         call    function_022
02A3   1031           00985         bcf     0x31, 0x0                                   ; reg: 0x031
02A4   1331           00986         bcf     0x31, 0x6                                   ; reg: 0x031
                      00987 
02A5                  00988 label_070:                                                  ; address: 0x02a5
                      00989 
02A5   1C31           00990         btfss   0x31, 0x0                                   ; reg: 0x031
02A6   2AF7           00991         goto    label_079
02A7   0862           00992         movf    0x62, W                                     ; reg: 0x062
02A8   3A01           00993         xorlw   0x01
02A9   1D03           00994         btfss   STATUS, Z                                   ; reg: 0x003, bit: 2
02AA   2AB0           00995         goto    label_071
gpasm-1.5.0 #1285 (Jan 23 2020) unidds_v1_10.   27.01.2020  22:56:48        PAGE 20


LOC    OBJECT CODE    LINE  SOURCE TEXT
  VALUE

02AB   118A           00996         bcf     PCLATH, 0x3                                 ; reg: 0x00a
02AC   160A           00997         bsf     PCLATH, 0x4                                 ; reg: 0x00a
02AD   2458           00998         call    function_073
02AE   118A           00999         bcf     PCLATH, 0x3                                 ; reg: 0x00a
02AF   120A           01000         bcf     PCLATH, 0x4                                 ; reg: 0x00a
                      01001 
02B0                  01002 label_071:                                                  ; address: 0x02b0
                      01003 
02B0   0862           01004         movf    0x62, W                                     ; reg: 0x062
02B1   3A02           01005         xorlw   0x02
02B2   1D03           01006         btfss   STATUS, Z                                   ; reg: 0x003, bit: 2
02B3   2AB9           01007         goto    label_072
02B4   118A           01008         bcf     PCLATH, 0x3                                 ; reg: 0x00a
02B5   160A           01009         bsf     PCLATH, 0x4                                 ; reg: 0x00a
02B6   241C           01010         call    function_072
02B7   118A           01011         bcf     PCLATH, 0x3                                 ; reg: 0x00a
02B8   120A           01012         bcf     PCLATH, 0x4                                 ; reg: 0x00a
                      01013 
02B9                  01014 label_072:                                                  ; address: 0x02b9
                      01015 
02B9   0862           01016         movf    0x62, W                                     ; reg: 0x062
02BA   3A03           01017         xorlw   0x03
02BB   1D03           01018         btfss   STATUS, Z                                   ; reg: 0x003, bit: 2
02BC   2AE6           01019         goto    label_075
02BD   1683           01020         bsf     STATUS, RP0                                 ; reg: 0x003, bit: 5
02BE   1303           01021         bcf     STATUS, RP1                                 ; reg: 0x003, bit: 6
02BF   0DA5           01022         rlf     0x25, F                                     ; reg: 0x0a5
02C0   0DA6           01023         rlf     0x26, F                                     ; reg: 0x0a6
02C1   0DA5           01024         rlf     0x25, F                                     ; reg: 0x0a5
02C2   0DA6           01025         rlf     0x26, F                                     ; reg: 0x0a6
02C3   0DA5           01026         rlf     0x25, F                                     ; reg: 0x0a5
02C4   0DA6           01027         rlf     0x26, F                                     ; reg: 0x0a6
02C5   0DA5           01028         rlf     0x25, F                                     ; reg: 0x0a5
02C6   0DA6           01029         rlf     0x26, F                                     ; reg: 0x0a6
02C7   0826           01030         movf    0x26, W                                     ; reg: 0x0a6
02C8   00A3           01031         movwf   0x23                                        ; reg: 0x0a3
02C9   0827           01032         movf    0x27, W                                     ; reg: 0x0a7
02CA   02A6           01033         subwf   0x26, F                                     ; reg: 0x0a6
02CB   1903           01034         btfsc   STATUS, Z                                   ; reg: 0x003, bit: 2
02CC   2AE0           01035         goto    label_073
02CD   0823           01036         movf    0x23, W                                     ; reg: 0x023
02CE   00A6           01037         movwf   0x26                                        ; reg: 0x026
02CF   0A27           01038         incf    0x27, W                                     ; reg: 0x027
02D0   02A6           01039         subwf   0x26, F                                     ; reg: 0x026
02D1   1903           01040         btfsc   STATUS, Z                                   ; reg: 0x003, bit: 2
02D2   2AE0           01041         goto    label_073
02D3   0823           01042         movf    0x23, W                                     ; reg: 0x023
02D4   00A6           01043         movwf   0x26                                        ; reg: 0x026
02D5   0327           01044         decf    0x27, W                                     ; reg: 0x027
02D6   02A6           01045         subwf   0x26, F                                     ; reg: 0x026
02D7   1903           01046         btfsc   STATUS, Z                                   ; reg: 0x003, bit: 2
02D8   2AE0           01047         goto    label_073
02D9   1283           01048         bcf     STATUS, RP0                                 ; reg: 0x003, bit: 5
gpasm-1.5.0 #1285 (Jan 23 2020) unidds_v1_10.   27.01.2020  22:56:48        PAGE 21


LOC    OBJECT CODE    LINE  SOURCE TEXT
  VALUE

02DA   1303           01049         bcf     STATUS, RP1                                 ; reg: 0x003, bit: 6
02DB   1731           01050         bsf     0x31, 0x6                                   ; reg: 0x031
02DC   1683           01051         bsf     STATUS, RP0                                 ; reg: 0x003, bit: 5
02DD   1303           01052         bcf     STATUS, RP1                                 ; reg: 0x003, bit: 6
02DE   0823           01053         movf    0x23, W                                     ; reg: 0x0a3
02DF   00A7           01054         movwf   0x27                                        ; reg: 0x0a7
                      01055 
02E0                  01056 label_073:                                                  ; address: 0x02e0
                      01057 
02E0   01A3           01058         clrf    0x23                                        ; reg: 0x023
02E1   01A4           01059         clrf    0x24                                        ; reg: 0x024
02E2   01A5           01060         clrf    0x25                                        ; reg: 0x025
02E3   01A6           01061         clrf    0x26                                        ; reg: 0x026
                      01062 
02E4                  01063 label_074:                                                  ; address: 0x02e4
                      01064 
02E4   1283           01065         bcf     STATUS, RP0                                 ; reg: 0x003, bit: 5
02E5   1303           01066         bcf     STATUS, RP1                                 ; reg: 0x003, bit: 6
                      01067 
02E6                  01068 label_075:                                                  ; address: 0x02e6
                      01069 
02E6   0BE2           01070         decfsz  0x62, F                                     ; reg: 0x062
02E7   2AEA           01071         goto    label_076
02E8   3010           01072         movlw   0x10
02E9   00E2           01073         movwf   0x62                                        ; reg: 0x062
                      01074 
02EA                  01075 label_076:                                                  ; address: 0x02ea
                      01076 
02EA   25AF           01077         call    function_048
02EB   1683           01078         bsf     STATUS, RP0                                 ; reg: 0x003, bit: 5
02EC   1303           01079         bcf     STATUS, RP1                                 ; reg: 0x003, bit: 6
                      01080 
02ED                  01081 label_077:                                                  ; address: 0x02ed
                      01082 
02ED   00A3           01083         movwf   0x23                                        ; reg: 0x023
02EE   01A4           01084         clrf    0x24                                        ; reg: 0x024
02EF   0823           01085         movf    0x23, W                                     ; reg: 0x023
02F0   07A5           01086         addwf   0x25, F                                     ; reg: 0x025
02F1   0824           01087         movf    0x24, W                                     ; reg: 0x024
02F2   1803           01088         btfsc   STATUS, C                                   ; reg: 0x003, bit: 0
02F3   0F24           01089         incfsz  0x24, W                                     ; reg: 0x024
02F4   07A6           01090         addwf   0x26, F                                     ; reg: 0x026
02F5   1283           01091         bcf     STATUS, RP0                                 ; reg: 0x003, bit: 5
                      01092 
02F6                  01093 label_078:                                                  ; address: 0x02f6
                      01094 
02F6   1303           01095         bcf     STATUS, RP1                                 ; reg: 0x003, bit: 6
                      01096 
02F7                  01097 label_079:                                                  ; address: 0x02f7
                      01098 
02F7   2A1A           01099         goto    label_050
                      01100 
02F8                  01101 function_022:                                               ; address: 0x02f8
gpasm-1.5.0 #1285 (Jan 23 2020) unidds_v1_10.   27.01.2020  22:56:48        PAGE 22


LOC    OBJECT CODE    LINE  SOURCE TEXT
  VALUE

                      01102 
02F8   1CA0           01103         btfss   0x20, 0x1                                   ; reg: 0x020
02F9   2B07           01104         goto    label_081
02FA   1F31           01105         btfss   0x31, 0x6                                   ; reg: 0x031
02FB   2B07           01106         goto    label_081
02FC   3008           01107         movlw   0x08
02FD   00F4           01108         movwf   (Common_RAM + 4)                            ; reg: 0x074
02FE   308B           01109         movlw   0x8b
                      01110 
02FF                  01111 label_080:                                                  ; address: 0x02ff
                      01112 
02FF   218E           01113         call    function_019
0300   25AF           01114         call    function_048
0301   20A1           01115         call    function_002
0302   21C3           01116         call    function_021
0303   21C1           01117         call    function_020
0304   21C1           01118         call    function_020
0305   21C1           01119         call    function_020
0306   0008           01120         return
                      01121 
0307                  01122 label_081:                                                  ; address: 0x0307
                      01123 
0307   3040           01124         movlw   0x40
                      01125 
0308                  01126 label_082:                                                  ; address: 0x0308
                      01127 
0308   218C           01128         call    function_018
0309   1EB2           01129         btfss   0x32, 0x5                                   ; reg: 0x032
030A   2B0D           01130         goto    label_083
030B   3078           01131         movlw   0x78
030C   2B15           01132         goto    label_085
                      01133 
030D                  01134 label_083:                                                  ; address: 0x030d
                      01135 
030D   3041           01136         movlw   0x41
030E   1C32           01137         btfss   0x32, 0x0                                   ; reg: 0x032
030F   3042           01138         movlw   0x42
0310   1DA0           01139         btfss   0x20, 0x3                                   ; reg: 0x020
                      01140 
0311                  01141 label_084:                                                  ; address: 0x0311
                      01142 
0311   2B15           01143         goto    label_085
0312   3061           01144         movlw   0x61
0313   1C32           01145         btfss   0x32, 0x0                                   ; reg: 0x032
0314   3062           01146         movlw   0x62
                      01147 
0315                  01148 label_085:                                                  ; address: 0x0315
                      01149 
0315   2150           01150         call    function_013
0316   302C           01151         movlw   0x2c
0317   1C32           01152         btfss   0x32, 0x0                                   ; reg: 0x032
0318   3030           01153         movlw   0x30
0319   2B2C           01154         goto    label_089
gpasm-1.5.0 #1285 (Jan 23 2020) unidds_v1_10.   27.01.2020  22:56:48        PAGE 23


LOC    OBJECT CODE    LINE  SOURCE TEXT
  VALUE

                      01155 
031A                  01156 function_023:                                               ; address: 0x031a
                      01157 
031A   0103           01158         clrw
031B   218C           01159         call    function_018
031C   1EB2           01160         btfss   0x32, 0x5                                   ; reg: 0x032
031D   2B20           01161         goto    label_086
031E   3072           01162         movlw   0x72
031F   2B28           01163         goto    label_088
                      01164 
0320                  01165 label_086:                                                  ; address: 0x0320
                      01166 
0320   3041           01167         movlw   0x41
0321   1832           01168         btfsc   0x32, 0x0                                   ; reg: 0x032
0322   3042           01169         movlw   0x42
                      01170 
0323                  01171 label_087:                                                  ; address: 0x0323
                      01172 
0323   1DA0           01173         btfss   0x20, 0x3                                   ; reg: 0x020
0324   2B28           01174         goto    label_088
0325   3061           01175         movlw   0x61
0326   1832           01176         btfsc   0x32, 0x0                                   ; reg: 0x032
0327   3062           01177         movlw   0x62
                      01178 
0328                  01179 label_088:                                                  ; address: 0x0328
                      01180 
0328   2150           01181         call    function_013
0329   302C           01182         movlw   0x2c
032A   1832           01183         btfsc   0x32, 0x0                                   ; reg: 0x032
032B   3030           01184         movlw   0x30
                      01185 
032C                  01186 label_089:                                                  ; address: 0x032c
                      01187 
032C   0084           01188         movwf   FSR                                         ; reg: 0x004
032D   1732           01189         bsf     0x32, 0x6                                   ; reg: 0x032
032E   0E00           01190         swapf   INDF, W                                     ; reg: 0x000
032F   2363           01191         call    function_024
0330   0800           01192         movf    INDF, W                                     ; reg: 0x000
0331   2363           01193         call    function_024
0332   302E           01194         movlw   0x2e
0333   2150           01195         call    function_013
0334   0384           01196         decf    FSR, F                                      ; reg: 0x004
0335   0E00           01197         swapf   INDF, W                                     ; reg: 0x000
0336   2363           01198         call    function_024
0337   083D           01199         movf    0x3d, W                                     ; reg: 0x03d
0338   3A04           01200         xorlw   0x04
0339   1903           01201         btfsc   STATUS, Z                                   ; reg: 0x003, bit: 2
033A   2B56           01202         goto    label_091
033B   0800           01203         movf    INDF, W                                     ; reg: 0x000
033C   2363           01204         call    function_024
033D   0384           01205         decf    FSR, F                                      ; reg: 0x004
033E   0E00           01206         swapf   INDF, W                                     ; reg: 0x000
033F   2363           01207         call    function_024
gpasm-1.5.0 #1285 (Jan 23 2020) unidds_v1_10.   27.01.2020  22:56:48        PAGE 24


LOC    OBJECT CODE    LINE  SOURCE TEXT
  VALUE

0340   302E           01208         movlw   0x2e
0341   2150           01209         call    function_013
0342   083D           01210         movf    0x3d, W                                     ; reg: 0x03d
0343   3A03           01211         xorlw   0x03
0344   1903           01212         btfsc   STATUS, Z                                   ; reg: 0x003, bit: 2
0345   2B5C           01213         goto    label_092
0346   0800           01214         movf    INDF, W                                     ; reg: 0x000
0347   2363           01215         call    function_024
                      01216 
0348                  01217 label_090:                                                  ; address: 0x0348
                      01218 
0348   083D           01219         movf    0x3d, W                                     ; reg: 0x03d
0349   3A02           01220         xorlw   0x02
034A   1903           01221         btfsc   STATUS, Z                                   ; reg: 0x003, bit: 2
034B   2B5E           01222         goto    label_093
034C   0384           01223         decf    FSR, F                                      ; reg: 0x004
034D   0E00           01224         swapf   INDF, W                                     ; reg: 0x000
034E   2363           01225         call    function_024
034F   083D           01226         movf    0x3d, W                                     ; reg: 0x03d
0350   3A01           01227         xorlw   0x01
0351   1903           01228         btfsc   STATUS, Z                                   ; reg: 0x003, bit: 2
0352   2B60           01229         goto    label_094
0353   0800           01230         movf    INDF, W                                     ; reg: 0x000
0354   2363           01231         call    function_024
0355   2B62           01232         goto    label_095
                      01233 
0356                  01234 label_091:                                                  ; address: 0x0356
                      01235 
0356   3020           01236         movlw   0x20
0357   2150           01237         call    function_013
0358   3020           01238         movlw   0x20
0359   2150           01239         call    function_013
035A   3020           01240         movlw   0x20
035B   2150           01241         call    function_013
                      01242 
035C                  01243 label_092:                                                  ; address: 0x035c
                      01244 
035C   3020           01245         movlw   0x20
035D   2150           01246         call    function_013
                      01247 
035E                  01248 label_093:                                                  ; address: 0x035e
                      01249 
035E   3020           01250         movlw   0x20
035F   2150           01251         call    function_013
                      01252 
0360                  01253 label_094:                                                  ; address: 0x0360
                      01254 
0360   3020           01255         movlw   0x20
0361   2150           01256         call    function_013
                      01257 
0362                  01258 label_095:                                                  ; address: 0x0362
                      01259 
0362   0008           01260         return
gpasm-1.5.0 #1285 (Jan 23 2020) unidds_v1_10.   27.01.2020  22:56:48        PAGE 25


LOC    OBJECT CODE    LINE  SOURCE TEXT
  VALUE

                      01261 
0363                  01262 function_024:                                               ; address: 0x0363
                      01263 
0363   390F           01264         andlw   0x0f
                      01265 
0364                  01266 label_096:                                                  ; address: 0x0364
                      01267 
0364   1D03           01268         btfss   STATUS, Z                                   ; reg: 0x003, bit: 2
0365   2B6A           01269         goto    label_097
0366   1F32           01270         btfss   0x32, 0x6                                   ; reg: 0x032
0367   2B6A           01271         goto    label_097
0368   3020           01272         movlw   0x20
0369   2B6C           01273         goto    label_098
                      01274 
036A                  01275 label_097:                                                  ; address: 0x036a
                      01276 
036A   3830           01277         iorlw   0x30
036B   1332           01278         bcf     0x32, 0x6                                   ; reg: 0x032
                      01279 
036C                  01280 label_098:                                                  ; address: 0x036c
                      01281 
036C   2950           01282         goto    function_013
                      01283 
036D                  01284 function_025:                                               ; address: 0x036d
                      01285 
036D   300A           01286         movlw   0x0a
036E   00B8           01287         movwf   0x38                                        ; reg: 0x038
                      01288 
036F                  01289 label_099:                                                  ; address: 0x036f
                      01290 
036F   0806           01291         movf    PORTB, W                                    ; reg: 0x006
0370   3920           01292         andlw   0x20
0371   00B9           01293         movwf   0x39                                        ; reg: 0x039
0372   2129           01294         call    function_010
0373   0806           01295         movf    PORTB, W                                    ; reg: 0x006
0374   3920           01296         andlw   0x20
0375   0639           01297         xorwf   0x39, W                                     ; reg: 0x039
0376   1D03           01298         btfss   STATUS, Z                                   ; reg: 0x003, bit: 2
0377   2B6D           01299         goto    function_025
0378   0BB8           01300         decfsz  0x38, F                                     ; reg: 0x038
0379   2B6F           01301         goto    label_099
037A   0839           01302         movf    0x39, W                                     ; reg: 0x039
037B   3920           01303         andlw   0x20
037C   1D03           01304         btfss   STATUS, Z                                   ; reg: 0x003, bit: 2
037D   2B82           01305         goto    label_101
037E   3001           01306         movlw   0x01
037F   00BB           01307         movwf   0x3b                                        ; reg: 0x03b
                      01308 
0380                  01309 label_100:                                                  ; address: 0x0380
                      01310 
0380   1403           01311         bsf     STATUS, C                                   ; reg: 0x003, bit: 0
0381   2B85           01312         goto    label_102
                      01313 
gpasm-1.5.0 #1285 (Jan 23 2020) unidds_v1_10.   27.01.2020  22:56:48        PAGE 26


LOC    OBJECT CODE    LINE  SOURCE TEXT
  VALUE

0382                  01314 label_101:                                                  ; address: 0x0382
                      01315 
0382   3000           01316         movlw   0x00
0383   00BB           01317         movwf   0x3b                                        ; reg: 0x03b
0384   1003           01318         bcf     STATUS, C                                   ; reg: 0x003, bit: 0
                      01319 
0385                  01320 label_102:                                                  ; address: 0x0385
                      01321 
0385   0008           01322         return
                      01323 
0386                  01324 function_026:                                               ; address: 0x0386
                      01325 
0386   01C3           01326         clrf    0x43                                        ; reg: 0x043
0387   01C4           01327         clrf    0x44                                        ; reg: 0x044
0388   01C5           01328         clrf    0x45                                        ; reg: 0x045
0389   01C6           01329         clrf    0x46                                        ; reg: 0x046
038A   01C7           01330         clrf    0x47                                        ; reg: 0x047
038B   01C8           01331         clrf    0x48                                        ; reg: 0x048
                      01332 
038C                  01333 function_027:                                               ; address: 0x038c
                      01334 
038C   01BF           01335         clrf    0x3f                                        ; reg: 0x03f
038D   01C0           01336         clrf    0x40                                        ; reg: 0x040
038E   01C1           01337         clrf    0x41                                        ; reg: 0x041
038F   01C2           01338         clrf    0x42                                        ; reg: 0x042
0390   0008           01339         return
                      01340 
0391                  01341 function_028:                                               ; address: 0x0391
                      01342 
0391   083D           01343         movf    0x3d, W                                     ; reg: 0x03d
0392   1903           01344         btfsc   STATUS, Z                                   ; reg: 0x003, bit: 2
0393   2BBD           01345         goto    label_110
0394   3A01           01346         xorlw   0x01
0395   1903           01347         btfsc   STATUS, Z                                   ; reg: 0x003, bit: 2
0396   2BB8           01348         goto    label_109
0397   083D           01349         movf    0x3d, W                                     ; reg: 0x03d
0398   3A02           01350         xorlw   0x02
0399   1903           01351         btfsc   STATUS, Z                                   ; reg: 0x003, bit: 2
039A   2BB3           01352         goto    label_107
                      01353 
039B                  01354 label_103:                                                  ; address: 0x039b
                      01355 
039B   083D           01356         movf    0x3d, W                                     ; reg: 0x03d
039C   3A03           01357         xorlw   0x03
039D   1903           01358         btfsc   STATUS, Z                                   ; reg: 0x003, bit: 2
039E   2BA9           01359         goto    label_105
039F   083D           01360         movf    0x3d, W                                     ; reg: 0x03d
03A0   3A04           01361         xorlw   0x04
03A1   1903           01362         btfsc   STATUS, Z                                   ; reg: 0x003, bit: 2
03A2   2BA4           01363         goto    label_104
03A3   0008           01364         return
                      01365 
03A4                  01366 label_104:                                                  ; address: 0x03a4
gpasm-1.5.0 #1285 (Jan 23 2020) unidds_v1_10.   27.01.2020  22:56:48        PAGE 27


LOC    OBJECT CODE    LINE  SOURCE TEXT
  VALUE

                      01367 
03A4   24E0           01368         call    function_036
03A5   238C           01369         call    function_027
03A6   3010           01370         movlw   0x10
03A7   00C1           01371         movwf   0x41                                        ; reg: 0x041
03A8   2BC0           01372         goto    label_111
                      01373 
03A9                  01374 label_105:                                                  ; address: 0x03a9
                      01375 
03A9   24E0           01376         call    function_036
03AA   238C           01377         call    function_027
03AB   3010           01378         movlw   0x10
03AC   00C0           01379         movwf   0x40                                        ; reg: 0x040
                      01380 
03AD                  01381 label_106:                                                  ; address: 0x03ad
                      01382 
03AD   2BC0           01383         goto    label_111
03AE   24E0           01384         call    function_036
03AF   238C           01385         call    function_027
03B0   3001           01386         movlw   0x01
03B1   00C0           01387         movwf   0x40                                        ; reg: 0x040
03B2   2BC0           01388         goto    label_111
                      01389 
03B3                  01390 label_107:                                                  ; address: 0x03b3
                      01391 
03B3   24E0           01392         call    function_036
03B4   238C           01393         call    function_027
03B5   3050           01394         movlw   0x50
                      01395 
03B6                  01396 label_108:                                                  ; address: 0x03b6
                      01397 
03B6   00BF           01398         movwf   0x3f                                        ; reg: 0x03f
03B7   2BC0           01399         goto    label_111
                      01400 
03B8                  01401 label_109:                                                  ; address: 0x03b8
                      01402 
03B8   24E0           01403         call    function_036
03B9   238C           01404         call    function_027
03BA   3010           01405         movlw   0x10
03BB   00BF           01406         movwf   0x3f                                        ; reg: 0x03f
03BC   2BC0           01407         goto    label_111
                      01408 
03BD                  01409 label_110:                                                  ; address: 0x03bd
                      01410 
03BD   24E0           01411         call    function_036
03BE   238C           01412         call    function_027
03BF   0ABF           01413         incf    0x3f, F                                     ; reg: 0x03f
                      01414 
03C0                  01415 label_111:                                                  ; address: 0x03c0
                      01416 
03C0   3004           01417         movlw   0x04
03C1   00C3           01418         movwf   0x43                                        ; reg: 0x043
                      01419 
gpasm-1.5.0 #1285 (Jan 23 2020) unidds_v1_10.   27.01.2020  22:56:48        PAGE 28


LOC    OBJECT CODE    LINE  SOURCE TEXT
  VALUE

03C2                  01420 label_112:                                                  ; address: 0x03c2
                      01421 
03C2   0833           01422         movf    0x33, W                                     ; reg: 0x033
03C3   0084           01423         movwf   FSR                                         ; reg: 0x004
                      01424 
03C4                  01425 label_113:                                                  ; address: 0x03c4
                      01426 
03C4   0800           01427         movf    INDF, W                                     ; reg: 0x000
03C5   00C4           01428         movwf   0x44                                        ; reg: 0x044
03C6   0834           01429         movf    0x34, W                                     ; reg: 0x034
03C7   0084           01430         movwf   FSR                                         ; reg: 0x004
03C8   0800           01431         movf    INDF, W                                     ; reg: 0x000
03C9   07C4           01432         addwf   0x44, F                                     ; reg: 0x044
03CA   3006           01433         movlw   0x06
03CB   0744           01434         addwf   0x44, W                                     ; reg: 0x044
03CC   1C83           01435         btfss   STATUS, DC                                  ; reg: 0x003, bit: 1
03CD   2BCF           01436         goto    label_114
03CE   00C4           01437         movwf   0x44                                        ; reg: 0x044
                      01438 
03CF                  01439 label_114:                                                  ; address: 0x03cf
                      01440 
03CF   3060           01441         movlw   0x60
03D0   0744           01442         addwf   0x44, W                                     ; reg: 0x044
03D1   1C03           01443         btfss   STATUS, C                                   ; reg: 0x003, bit: 0
                      01444 
03D2                  01445 label_115:                                                  ; address: 0x03d2
                      01446 
03D2   2BD9           01447         goto    label_116
03D3   00C4           01448         movwf   0x44                                        ; reg: 0x044
03D4   0833           01449         movf    0x33, W                                     ; reg: 0x033
03D5   0084           01450         movwf   FSR                                         ; reg: 0x004
03D6   0A84           01451         incf    FSR, F                                      ; reg: 0x004
03D7   0A80           01452         incf    INDF, F                                     ; reg: 0x000
03D8   0384           01453         decf    FSR, F                                      ; reg: 0x004
                      01454 
03D9                  01455 label_116:                                                  ; address: 0x03d9
                      01456 
03D9   0833           01457         movf    0x33, W                                     ; reg: 0x033
03DA   0084           01458         movwf   FSR                                         ; reg: 0x004
                      01459 
03DB                  01460 label_117:                                                  ; address: 0x03db
                      01461 
03DB   0844           01462         movf    0x44, W                                     ; reg: 0x044
03DC   0080           01463         movwf   INDF                                        ; reg: 0x000
03DD   0AB3           01464         incf    0x33, F                                     ; reg: 0x033
03DE   0AB4           01465         incf    0x34, F                                     ; reg: 0x034
03DF   0BC3           01466         decfsz  0x43, F                                     ; reg: 0x043
03E0   2BC2           01467         goto    label_112
03E1   0008           01468         return
                      01469 
03E2                  01470 function_029:                                               ; address: 0x03e2
                      01471 
03E2   083D           01472         movf    0x3d, W                                     ; reg: 0x03d
gpasm-1.5.0 #1285 (Jan 23 2020) unidds_v1_10.   27.01.2020  22:56:48        PAGE 29


LOC    OBJECT CODE    LINE  SOURCE TEXT
  VALUE

03E3   1903           01473         btfsc   STATUS, Z                                   ; reg: 0x003, bit: 2
03E4   2C0E           01474         goto    label_125
03E5   3A01           01475         xorlw   0x01
03E6   1903           01476         btfsc   STATUS, Z                                   ; reg: 0x003, bit: 2
03E7   2C09           01477         goto    label_124
03E8   083D           01478         movf    0x3d, W                                     ; reg: 0x03d
                      01479 
03E9                  01480 label_118:                                                  ; address: 0x03e9
                      01481 
03E9   3A02           01482         xorlw   0x02
03EA   1903           01483         btfsc   STATUS, Z                                   ; reg: 0x003, bit: 2
03EB   2C04           01484         goto    label_123
03EC   083D           01485         movf    0x3d, W                                     ; reg: 0x03d
03ED   3A03           01486         xorlw   0x03
03EE   1903           01487         btfsc   STATUS, Z                                   ; reg: 0x003, bit: 2
03EF   2BFA           01488         goto    label_121
03F0   083D           01489         movf    0x3d, W                                     ; reg: 0x03d
03F1   3A04           01490         xorlw   0x04
03F2   1903           01491         btfsc   STATUS, Z                                   ; reg: 0x003, bit: 2
03F3   2BF5           01492         goto    label_119
03F4   0008           01493         return
                      01494 
03F5                  01495 label_119:                                                  ; address: 0x03f5
                      01496 
03F5   24E0           01497         call    function_036
03F6   238C           01498         call    function_027
                      01499 
03F7                  01500 label_120:                                                  ; address: 0x03f7
                      01501 
03F7   3010           01502         movlw   0x10
03F8   00C1           01503         movwf   0x41                                        ; reg: 0x041
03F9   2C11           01504         goto    label_126
                      01505 
03FA                  01506 label_121:                                                  ; address: 0x03fa
                      01507 
03FA   24E0           01508         call    function_036
03FB   238C           01509         call    function_027
03FC   3010           01510         movlw   0x10
03FD   00C0           01511         movwf   0x40                                        ; reg: 0x040
03FE   2C11           01512         goto    label_126
03FF   24E0           01513         call    function_036
                      01514 
0400                  01515 label_122:                                                  ; address: 0x0400
                      01516 
0400   238C           01517         call    function_027
0401   3001           01518         movlw   0x01
0402   00C0           01519         movwf   0x40                                        ; reg: 0x040
0403   2C11           01520         goto    label_126
                      01521 
0404                  01522 label_123:                                                  ; address: 0x0404
                      01523 
0404   24E0           01524         call    function_036
0405   238C           01525         call    function_027
gpasm-1.5.0 #1285 (Jan 23 2020) unidds_v1_10.   27.01.2020  22:56:48        PAGE 30


LOC    OBJECT CODE    LINE  SOURCE TEXT
  VALUE

0406   3050           01526         movlw   0x50
0407   00BF           01527         movwf   0x3f                                        ; reg: 0x03f
0408   2C11           01528         goto    label_126
                      01529 
0409                  01530 label_124:                                                  ; address: 0x0409
                      01531 
0409   24E0           01532         call    function_036
040A   238C           01533         call    function_027
040B   3010           01534         movlw   0x10
040C   00BF           01535         movwf   0x3f                                        ; reg: 0x03f
040D   2C11           01536         goto    label_126
                      01537 
040E                  01538 label_125:                                                  ; address: 0x040e
                      01539 
040E   24E0           01540         call    function_036
040F   238C           01541         call    function_027
0410   0ABF           01542         incf    0x3f, F                                     ; reg: 0x03f
                      01543 
0411                  01544 label_126:                                                  ; address: 0x0411
                      01545 
0411   3004           01546         movlw   0x04
0412   00C3           01547         movwf   0x43                                        ; reg: 0x043
                      01548 
0413                  01549 label_127:                                                  ; address: 0x0413
                      01550 
0413   0833           01551         movf    0x33, W                                     ; reg: 0x033
0414   0084           01552         movwf   FSR                                         ; reg: 0x004
0415   0800           01553         movf    INDF, W                                     ; reg: 0x000
0416   00C4           01554         movwf   0x44                                        ; reg: 0x044
0417   0834           01555         movf    0x34, W                                     ; reg: 0x034
0418   0084           01556         movwf   FSR                                         ; reg: 0x004
0419   0800           01557         movf    INDF, W                                     ; reg: 0x000
041A   02C4           01558         subwf   0x44, F                                     ; reg: 0x044
041B   0DC5           01559         rlf     0x45, F                                     ; reg: 0x045
041C   1883           01560         btfsc   STATUS, DC                                  ; reg: 0x003, bit: 1
041D   2C20           01561         goto    label_128
041E   3006           01562         movlw   0x06
041F   02C4           01563         subwf   0x44, F                                     ; reg: 0x044
                      01564 
0420                  01565 label_128:                                                  ; address: 0x0420
                      01566 
0420   1845           01567         btfsc   0x45, 0x0                                   ; reg: 0x045
0421   2C27           01568         goto    label_129
0422   3060           01569         movlw   0x60
0423   02C4           01570         subwf   0x44, F                                     ; reg: 0x044
0424   0A84           01571         incf    FSR, F                                      ; reg: 0x004
0425   0A80           01572         incf    INDF, F                                     ; reg: 0x000
0426   0384           01573         decf    FSR, F                                      ; reg: 0x004
                      01574 
0427                  01575 label_129:                                                  ; address: 0x0427
                      01576 
0427   0833           01577         movf    0x33, W                                     ; reg: 0x033
0428   0084           01578         movwf   FSR                                         ; reg: 0x004
gpasm-1.5.0 #1285 (Jan 23 2020) unidds_v1_10.   27.01.2020  22:56:48        PAGE 31


LOC    OBJECT CODE    LINE  SOURCE TEXT
  VALUE

0429   0844           01579         movf    0x44, W                                     ; reg: 0x044
042A   0080           01580         movwf   INDF                                        ; reg: 0x000
042B   0AB3           01581         incf    0x33, F                                     ; reg: 0x033
042C   0AB4           01582         incf    0x34, F                                     ; reg: 0x034
042D   0BC3           01583         decfsz  0x43, F                                     ; reg: 0x043
042E   2C13           01584         goto    label_127
042F   0008           01585         return
                      01586 
0430                  01587 function_030:                                               ; address: 0x0430
                      01588 
0430   2386           01589         call    function_026
0431   0833           01590         movf    0x33, W                                     ; reg: 0x033
0432   0084           01591         movwf   FSR                                         ; reg: 0x004
0433   0800           01592         movf    INDF, W                                     ; reg: 0x000
0434   00BF           01593         movwf   0x3f                                        ; reg: 0x03f
0435   0A84           01594         incf    FSR, F                                      ; reg: 0x004
0436   0800           01595         movf    INDF, W                                     ; reg: 0x000
0437   00C0           01596         movwf   0x40                                        ; reg: 0x040
0438   0A84           01597         incf    FSR, F                                      ; reg: 0x004
0439   0800           01598         movf    INDF, W                                     ; reg: 0x000
043A   00C1           01599         movwf   0x41                                        ; reg: 0x041
043B   0A84           01600         incf    FSR, F                                      ; reg: 0x004
043C   0800           01601         movf    INDF, W                                     ; reg: 0x000
043D   00C2           01602         movwf   0x42                                        ; reg: 0x042
043E   3020           01603         movlw   0x20
043F   00C7           01604         movwf   0x47                                        ; reg: 0x047
                      01605 
0440                  01606 label_130:                                                  ; address: 0x0440
                      01607 
0440   1003           01608         bcf     STATUS, C                                   ; reg: 0x003, bit: 0
0441   0CC2           01609         rrf     0x42, F                                     ; reg: 0x042
0442   0CC1           01610         rrf     0x41, F                                     ; reg: 0x041
0443   0CC0           01611         rrf     0x40, F                                     ; reg: 0x040
0444   0CBF           01612         rrf     0x3f, F                                     ; reg: 0x03f
0445   0CC6           01613         rrf     0x46, F                                     ; reg: 0x046
0446   0CC5           01614         rrf     0x45, F                                     ; reg: 0x045
0447   0CC4           01615         rrf     0x44, F                                     ; reg: 0x044
0448   0CC3           01616         rrf     0x43, F                                     ; reg: 0x043
0449   303F           01617         movlw   0x3f
044A   0084           01618         movwf   FSR                                         ; reg: 0x004
044B   3004           01619         movlw   0x04
044C   00C8           01620         movwf   0x48                                        ; reg: 0x048
                      01621 
044D                  01622 label_131:                                                  ; address: 0x044d
                      01623 
044D   1F80           01624         btfss   INDF, 0x7                                   ; reg: 0x000
044E   2C51           01625         goto    label_132
044F   3030           01626         movlw   0x30
0450   0280           01627         subwf   INDF, F                                     ; reg: 0x000
                      01628 
0451                  01629 label_132:                                                  ; address: 0x0451
                      01630 
0451   1D80           01631         btfss   INDF, 0x3                                   ; reg: 0x000
gpasm-1.5.0 #1285 (Jan 23 2020) unidds_v1_10.   27.01.2020  22:56:48        PAGE 32


LOC    OBJECT CODE    LINE  SOURCE TEXT
  VALUE

0452   2C55           01632         goto    label_133
0453   3003           01633         movlw   0x03
0454   0280           01634         subwf   INDF, F                                     ; reg: 0x000
                      01635 
0455                  01636 label_133:                                                  ; address: 0x0455
                      01637 
0455   0A84           01638         incf    FSR, F                                      ; reg: 0x004
0456   0BC8           01639         decfsz  0x48, F                                     ; reg: 0x048
0457   2C4D           01640         goto    label_131
0458   0BC7           01641         decfsz  0x47, F                                     ; reg: 0x047
0459   2C40           01642         goto    label_130
045A   0008           01643         return
                      01644 
045B                  01645 function_031:                                               ; address: 0x045b
                      01646 
045B   0826           01647         movf    0x26, W                                     ; reg: 0x026
045C   00C0           01648         movwf   0x40                                        ; reg: 0x040
045D   0825           01649         movf    0x25, W                                     ; reg: 0x025
045E   00BF           01650         movwf   0x3f                                        ; reg: 0x03f
045F   0827           01651         movf    0x27, W                                     ; reg: 0x027
0460   00C1           01652         movwf   0x41                                        ; reg: 0x041
0461   0828           01653         movf    0x28, W                                     ; reg: 0x028
0462   00C2           01654         movwf   0x42                                        ; reg: 0x042
0463   083F           01655         movf    0x3f, W                                     ; reg: 0x03f
0464   07C3           01656         addwf   0x43, F                                     ; reg: 0x043
0465   0840           01657         movf    0x40, W                                     ; reg: 0x040
0466   1803           01658         btfsc   STATUS, C                                   ; reg: 0x003, bit: 0
0467   0F40           01659         incfsz  0x40, W                                     ; reg: 0x040
0468   07C4           01660         addwf   0x44, F                                     ; reg: 0x044
0469   0841           01661         movf    0x41, W                                     ; reg: 0x041
046A   1803           01662         btfsc   STATUS, C                                   ; reg: 0x003, bit: 0
046B   0F41           01663         incfsz  0x41, W                                     ; reg: 0x041
046C   07C5           01664         addwf   0x45, F                                     ; reg: 0x045
046D   0842           01665         movf    0x42, W                                     ; reg: 0x042
046E   1803           01666         btfsc   STATUS, C                                   ; reg: 0x003, bit: 0
046F   0F42           01667         incfsz  0x42, W                                     ; reg: 0x042
0470   07C6           01668         addwf   0x46, F                                     ; reg: 0x046
0471   0008           01669         return
                      01670 
0472                  01671 function_032:                                               ; address: 0x0472
                      01672 
0472   0826           01673         movf    0x26, W                                     ; reg: 0x026
0473   00C0           01674         movwf   0x40                                        ; reg: 0x040
0474   0825           01675         movf    0x25, W                                     ; reg: 0x025
0475   00BF           01676         movwf   0x3f                                        ; reg: 0x03f
0476   0827           01677         movf    0x27, W                                     ; reg: 0x027
0477   00C1           01678         movwf   0x41                                        ; reg: 0x041
0478   0828           01679         movf    0x28, W                                     ; reg: 0x028
0479   00C2           01680         movwf   0x42                                        ; reg: 0x042
047A   083F           01681         movf    0x3f, W                                     ; reg: 0x03f
047B   02C3           01682         subwf   0x43, F                                     ; reg: 0x043
047C   0840           01683         movf    0x40, W                                     ; reg: 0x040
047D   1C03           01684         btfss   STATUS, C                                   ; reg: 0x003, bit: 0
gpasm-1.5.0 #1285 (Jan 23 2020) unidds_v1_10.   27.01.2020  22:56:48        PAGE 33


LOC    OBJECT CODE    LINE  SOURCE TEXT
  VALUE

047E   0F40           01685         incfsz  0x40, W                                     ; reg: 0x040
047F   02C4           01686         subwf   0x44, F                                     ; reg: 0x044
0480   0841           01687         movf    0x41, W                                     ; reg: 0x041
0481   1C03           01688         btfss   STATUS, C                                   ; reg: 0x003, bit: 0
0482   0F41           01689         incfsz  0x41, W                                     ; reg: 0x041
0483   02C5           01690         subwf   0x45, F                                     ; reg: 0x045
0484   0842           01691         movf    0x42, W                                     ; reg: 0x042
0485   1C03           01692         btfss   STATUS, C                                   ; reg: 0x003, bit: 0
0486   0F42           01693         incfsz  0x42, W                                     ; reg: 0x042
0487   02C6           01694         subwf   0x46, F                                     ; reg: 0x046
0488   1FC6           01695         btfss   0x46, 0x7                                   ; reg: 0x046
0489   0008           01696         return
048A   09C3           01697         comf    0x43, F                                     ; reg: 0x043
048B   09C4           01698         comf    0x44, F                                     ; reg: 0x044
048C   09C5           01699         comf    0x45, F                                     ; reg: 0x045
048D   09C6           01700         comf    0x46, F                                     ; reg: 0x046
048E   0AC3           01701         incf    0x43, F                                     ; reg: 0x043
048F   1903           01702         btfsc   STATUS, Z                                   ; reg: 0x003, bit: 2
0490   0AC4           01703         incf    0x44, F                                     ; reg: 0x044
0491   1903           01704         btfsc   STATUS, Z                                   ; reg: 0x003, bit: 2
0492   0AC5           01705         incf    0x45, F                                     ; reg: 0x045
0493   1903           01706         btfsc   STATUS, Z                                   ; reg: 0x003, bit: 2
0494   0AC6           01707         incf    0x46, F                                     ; reg: 0x046
0495   0008           01708         return
                      01709 
0496                  01710 function_033:                                               ; address: 0x0496
                      01711 
0496   0821           01712         movf    0x21, W                                     ; reg: 0x021
0497   00CF           01713         movwf   0x4f                                        ; reg: 0x04f
0498   0822           01714         movf    0x22, W                                     ; reg: 0x022
0499   00D0           01715         movwf   0x50                                        ; reg: 0x050
049A   0823           01716         movf    0x23, W                                     ; reg: 0x023
049B   00D1           01717         movwf   0x51                                        ; reg: 0x051
049C   0824           01718         movf    0x24, W                                     ; reg: 0x024
049D   00D2           01719         movwf   0x52                                        ; reg: 0x052
049E   3020           01720         movlw   0x20
049F   00C7           01721         movwf   0x47                                        ; reg: 0x047
                      01722 
04A0                  01723 label_134:                                                  ; address: 0x04a0
                      01724 
04A0   304F           01725         movlw   0x4f
04A1   00B3           01726         movwf   0x33                                        ; reg: 0x033
04A2   3057           01727         movlw   0x57
04A3   00B4           01728         movwf   0x34                                        ; reg: 0x034
04A4   01C0           01729         clrf    0x40                                        ; reg: 0x040
04A5   1003           01730         bcf     STATUS, C                                   ; reg: 0x003, bit: 0
04A6   0CC6           01731         rrf     0x46, F                                     ; reg: 0x046
04A7   0CC5           01732         rrf     0x45, F                                     ; reg: 0x045
04A8   0CC4           01733         rrf     0x44, F                                     ; reg: 0x044
04A9   0CC3           01734         rrf     0x43, F                                     ; reg: 0x043
04AA   1C03           01735         btfss   STATUS, C                                   ; reg: 0x003, bit: 0
04AB   2CC5           01736         goto    label_138
04AC   3008           01737         movlw   0x08
gpasm-1.5.0 #1285 (Jan 23 2020) unidds_v1_10.   27.01.2020  22:56:48        PAGE 34


LOC    OBJECT CODE    LINE  SOURCE TEXT
  VALUE

04AD   00C1           01738         movwf   0x41                                        ; reg: 0x041
                      01739 
04AE                  01740 label_135:                                                  ; address: 0x04ae
                      01741 
04AE   0833           01742         movf    0x33, W                                     ; reg: 0x033
04AF   0084           01743         movwf   FSR                                         ; reg: 0x004
04B0   0800           01744         movf    INDF, W                                     ; reg: 0x000
04B1   00BF           01745         movwf   0x3f                                        ; reg: 0x03f
04B2   0834           01746         movf    0x34, W                                     ; reg: 0x034
04B3   0084           01747         movwf   FSR                                         ; reg: 0x004
04B4   0840           01748         movf    0x40, W                                     ; reg: 0x040
04B5   01C0           01749         clrf    0x40                                        ; reg: 0x040
04B6   0780           01750         addwf   INDF, F                                     ; reg: 0x000
04B7   1C03           01751         btfss   STATUS, C                                   ; reg: 0x003, bit: 0
04B8   2CBB           01752         goto    label_136
04B9   3001           01753         movlw   0x01
04BA   00C0           01754         movwf   0x40                                        ; reg: 0x040
                      01755 
04BB                  01756 label_136:                                                  ; address: 0x04bb
                      01757 
04BB   083F           01758         movf    0x3f, W                                     ; reg: 0x03f
04BC   0780           01759         addwf   INDF, F                                     ; reg: 0x000
04BD   1C03           01760         btfss   STATUS, C                                   ; reg: 0x003, bit: 0
04BE   2CC1           01761         goto    label_137
04BF   3001           01762         movlw   0x01
04C0   00C0           01763         movwf   0x40                                        ; reg: 0x040
                      01764 
04C1                  01765 label_137:                                                  ; address: 0x04c1
                      01766 
04C1   0AB3           01767         incf    0x33, F                                     ; reg: 0x033
04C2   0AB4           01768         incf    0x34, F                                     ; reg: 0x034
04C3   0BC1           01769         decfsz  0x41, F                                     ; reg: 0x041
04C4   2CAE           01770         goto    label_135
                      01771 
04C5                  01772 label_138:                                                  ; address: 0x04c5
                      01773 
04C5   1003           01774         bcf     STATUS, C                                   ; reg: 0x003, bit: 0
04C6   0DCF           01775         rlf     0x4f, F                                     ; reg: 0x04f
04C7   0DD0           01776         rlf     0x50, F                                     ; reg: 0x050
04C8   0DD1           01777         rlf     0x51, F                                     ; reg: 0x051
04C9   0DD2           01778         rlf     0x52, F                                     ; reg: 0x052
04CA   0DD3           01779         rlf     0x53, F                                     ; reg: 0x053
04CB   0DD4           01780         rlf     0x54, F                                     ; reg: 0x054
04CC   0DD5           01781         rlf     0x55, F                                     ; reg: 0x055
04CD   0DD6           01782         rlf     0x56, F                                     ; reg: 0x056
04CE   0BC7           01783         decfsz  0x47, F                                     ; reg: 0x047
04CF   2CA0           01784         goto    label_134
04D0   0008           01785         return
                      01786 
04D1                  01787 function_034:                                               ; address: 0x04d1
                      01788 
04D1   303F           01789         movlw   0x3f
04D2   0084           01790         movwf   FSR                                         ; reg: 0x004
gpasm-1.5.0 #1285 (Jan 23 2020) unidds_v1_10.   27.01.2020  22:56:48        PAGE 35


LOC    OBJECT CODE    LINE  SOURCE TEXT
  VALUE

                      01791 
04D3                  01792 label_139:                                                  ; address: 0x04d3
                      01793 
04D3   0180           01794         clrf    INDF                                        ; reg: 0x000
04D4   305E           01795         movlw   0x5e
04D5   0204           01796         subwf   FSR, W                                      ; reg: 0x004
04D6   1903           01797         btfsc   STATUS, Z                                   ; reg: 0x003, bit: 2
04D7   2CDA           01798         goto    label_140
04D8   0A84           01799         incf    FSR, F                                      ; reg: 0x004
04D9   2CD3           01800         goto    label_139
                      01801 
04DA                  01802 label_140:                                                  ; address: 0x04da
                      01803 
04DA   0008           01804         return
                      01805 
04DB                  01806 function_035:                                               ; address: 0x04db
                      01807 
04DB   19A0           01808         btfsc   0x20, 0x3                                   ; reg: 0x020
04DC   2CE8           01809         goto    label_141
04DD   1AB2           01810         btfsc   0x32, 0x5                                   ; reg: 0x032
04DE   2CE8           01811         goto    label_141
04DF   2CE4           01812         goto    function_037
                      01813 
04E0                  01814 function_036:                                               ; address: 0x04e0
                      01815 
04E0   303F           01816         movlw   0x3f
04E1   00B4           01817         movwf   0x34                                        ; reg: 0x034
04E2   1AB2           01818         btfsc   0x32, 0x5                                   ; reg: 0x032
04E3   2CE8           01819         goto    label_141
                      01820 
04E4                  01821 function_037:                                               ; address: 0x04e4
                      01822 
04E4   3029           01823         movlw   0x29
04E5   1832           01824         btfsc   0x32, 0x0                                   ; reg: 0x032
04E6   302D           01825         movlw   0x2d
04E7   2CEB           01826         goto    label_142
                      01827 
04E8                  01828 label_141:                                                  ; address: 0x04e8
                      01829 
04E8   3029           01830         movlw   0x29
04E9   1C32           01831         btfss   0x32, 0x0                                   ; reg: 0x032
04EA   302D           01832         movlw   0x2d
                      01833 
04EB                  01834 label_142:                                                  ; address: 0x04eb
                      01835 
04EB   00B3           01836         movwf   0x33                                        ; reg: 0x033
04EC   0008           01837         return
                      01838 
04ED                  01839 function_038:                                               ; address: 0x04ed
                      01840 
04ED   24D1           01841         call    function_034
04EE   24E4           01842         call    function_037
04EF   2430           01843         call    function_030
gpasm-1.5.0 #1285 (Jan 23 2020) unidds_v1_10.   27.01.2020  22:56:48        PAGE 36


LOC    OBJECT CODE    LINE  SOURCE TEXT
  VALUE

04F0   1E20           01844         btfss   0x20, 0x4                                   ; reg: 0x020
04F1   2472           01845         call    function_032
04F2   1A20           01846         btfsc   0x20, 0x4                                   ; reg: 0x020
04F3   245B           01847         call    function_031
04F4   2496           01848         call    function_033
04F5   085B           01849         movf    0x5b, W                                     ; reg: 0x05b
04F6   00FB           01850         movwf   (Common_RAM + 11)                           ; reg: 0x07b
04F7   085A           01851         movf    0x5a, W                                     ; reg: 0x05a
04F8   00FA           01852         movwf   (Common_RAM + 10)                           ; reg: 0x07a
04F9   085C           01853         movf    0x5c, W                                     ; reg: 0x05c
04FA   00FC           01854         movwf   (Common_RAM + 12)                           ; reg: 0x07c
04FB   085D           01855         movf    0x5d, W                                     ; reg: 0x05d
04FC   00FD           01856         movwf   (Common_RAM + 13)                           ; reg: 0x07d
04FD   1683           01857         bsf     STATUS, RP0                                 ; reg: 0x003, bit: 5
04FE   1303           01858         bcf     STATUS, RP1                                 ; reg: 0x003, bit: 6
04FF   087B           01859         movf    0x7b, W                                     ; reg: 0x0fb
0500   00C6           01860         movwf   0x46                                        ; reg: 0x0c6
0501   087A           01861         movf    0x7a, W                                     ; reg: 0x0fa
0502   00C5           01862         movwf   0x45                                        ; reg: 0x0c5
0503   087C           01863         movf    0x7c, W                                     ; reg: 0x0fc
0504   00C7           01864         movwf   0x47                                        ; reg: 0x0c7
0505   087D           01865         movf    0x7d, W                                     ; reg: 0x0fd
0506   00C8           01866         movwf   0x48                                        ; reg: 0x0c8
0507   1283           01867         bcf     STATUS, RP0                                 ; reg: 0x003, bit: 5
0508   1303           01868         bcf     STATUS, RP1                                 ; reg: 0x003, bit: 6
0509   24D1           01869         call    function_034
050A   24DB           01870         call    function_035
050B   2430           01871         call    function_030
050C   1AA0           01872         btfsc   0x20, 0x5                                   ; reg: 0x020
050D   2D12           01873         goto    label_143
050E   1E20           01874         btfss   0x20, 0x4                                   ; reg: 0x020
050F   2472           01875         call    function_032
0510   1A20           01876         btfsc   0x20, 0x4                                   ; reg: 0x020
0511   245B           01877         call    function_031
                      01878 
0512                  01879 label_143:                                                  ; address: 0x0512
                      01880 
0512   2496           01881         call    function_033
0513   085B           01882         movf    0x5b, W                                     ; reg: 0x05b
0514   00FB           01883         movwf   (Common_RAM + 11)                           ; reg: 0x07b
0515   085A           01884         movf    0x5a, W                                     ; reg: 0x05a
0516   00FA           01885         movwf   (Common_RAM + 10)                           ; reg: 0x07a
0517   085C           01886         movf    0x5c, W                                     ; reg: 0x05c
0518   00FC           01887         movwf   (Common_RAM + 12)                           ; reg: 0x07c
0519   085D           01888         movf    0x5d, W                                     ; reg: 0x05d
051A   00FD           01889         movwf   (Common_RAM + 13)                           ; reg: 0x07d
051B   1683           01890         bsf     STATUS, RP0                                 ; reg: 0x003, bit: 5
051C   1303           01891         bcf     STATUS, RP1                                 ; reg: 0x003, bit: 6
051D   087B           01892         movf    0x7b, W                                     ; reg: 0x0fb
051E   00CA           01893         movwf   0x4a                                        ; reg: 0x0ca
051F   087A           01894         movf    0x7a, W                                     ; reg: 0x0fa
0520   00C9           01895         movwf   0x49                                        ; reg: 0x0c9
0521   087C           01896         movf    0x7c, W                                     ; reg: 0x0fc
gpasm-1.5.0 #1285 (Jan 23 2020) unidds_v1_10.   27.01.2020  22:56:48        PAGE 37


LOC    OBJECT CODE    LINE  SOURCE TEXT
  VALUE

0522   00CB           01897         movwf   0x4b                                        ; reg: 0x0cb
0523   087D           01898         movf    0x7d, W                                     ; reg: 0x0fd
0524   00CC           01899         movwf   0x4c                                        ; reg: 0x0cc
0525   1283           01900         bcf     STATUS, RP0                                 ; reg: 0x003, bit: 5
0526   1303           01901         bcf     STATUS, RP1                                 ; reg: 0x003, bit: 6
0527   0008           01902         return
                      01903 
0528                  01904 function_039:                                               ; address: 0x0528
                      01905 
0528   1683           01906         bsf     STATUS, RP0                                 ; reg: 0x003, bit: 5
0529   1303           01907         bcf     STATUS, RP1                                 ; reg: 0x003, bit: 6
052A   084A           01908         movf    0x4a, W                                     ; reg: 0x0ca
052B   00D0           01909         movwf   0x50                                        ; reg: 0x0d0
052C   0849           01910         movf    0x49, W                                     ; reg: 0x0c9
052D   00CF           01911         movwf   0x4f                                        ; reg: 0x0cf
052E   084B           01912         movf    0x4b, W                                     ; reg: 0x0cb
052F   00D1           01913         movwf   0x51                                        ; reg: 0x0d1
0530   084C           01914         movf    0x4c, W                                     ; reg: 0x0cc
0531   00D2           01915         movwf   0x52                                        ; reg: 0x0d2
0532   2D3D           01916         goto    label_144
                      01917 
0533                  01918 function_040:                                               ; address: 0x0533
                      01919 
0533   1683           01920         bsf     STATUS, RP0                                 ; reg: 0x003, bit: 5
0534   1303           01921         bcf     STATUS, RP1                                 ; reg: 0x003, bit: 6
0535   0846           01922         movf    0x46, W                                     ; reg: 0x0c6
0536   00D0           01923         movwf   0x50                                        ; reg: 0x0d0
0537   0845           01924         movf    0x45, W                                     ; reg: 0x0c5
0538   00CF           01925         movwf   0x4f                                        ; reg: 0x0cf
0539   0847           01926         movf    0x47, W                                     ; reg: 0x0c7
053A   00D1           01927         movwf   0x51                                        ; reg: 0x0d1
053B   0848           01928         movf    0x48, W                                     ; reg: 0x0c8
053C   00D2           01929         movwf   0x52                                        ; reg: 0x0d2
                      01930 
053D                  01931 label_144:                                                  ; address: 0x053d
                      01932 
053D   1283           01933         bcf     STATUS, RP0                                 ; reg: 0x003, bit: 5
053E   1303           01934         bcf     STATUS, RP1                                 ; reg: 0x003, bit: 6
053F   2575           01935         call    function_042
0540   1683           01936         bsf     STATUS, RP0                                 ; reg: 0x003, bit: 5
0541   1303           01937         bcf     STATUS, RP1                                 ; reg: 0x003, bit: 6
0542   0850           01938         movf    0x50, W                                     ; reg: 0x0d0
0543   00CE           01939         movwf   0x4e                                        ; reg: 0x0ce
0544   084F           01940         movf    0x4f, W                                     ; reg: 0x0cf
0545   00CD           01941         movwf   0x4d                                        ; reg: 0x0cd
0546   13CE           01942         bcf     0x4e, 0x7                                   ; reg: 0x0ce
0547   174E           01943         bsf     0x4e, 0x6                                   ; reg: 0x0ce
0548   1283           01944         bcf     STATUS, RP0                                 ; reg: 0x003, bit: 5
0549   1303           01945         bcf     STATUS, RP1                                 ; reg: 0x003, bit: 6
054A   257B           01946         call    function_043
054B   1683           01947         bsf     STATUS, RP0                                 ; reg: 0x003, bit: 5
054C   1303           01948         bcf     STATUS, RP1                                 ; reg: 0x003, bit: 6
054D   0DCF           01949         rlf     0x4f, F                                     ; reg: 0x0cf
gpasm-1.5.0 #1285 (Jan 23 2020) unidds_v1_10.   27.01.2020  22:56:48        PAGE 38


LOC    OBJECT CODE    LINE  SOURCE TEXT
  VALUE

054E   0DD0           01950         rlf     0x50, F                                     ; reg: 0x0d0
054F   0DD1           01951         rlf     0x51, F                                     ; reg: 0x0d1
0550   0DD2           01952         rlf     0x52, F                                     ; reg: 0x0d2
0551   0DCF           01953         rlf     0x4f, F                                     ; reg: 0x0cf
0552   0DD0           01954         rlf     0x50, F                                     ; reg: 0x0d0
0553   0DD1           01955         rlf     0x51, F                                     ; reg: 0x0d1
0554   0DD2           01956         rlf     0x52, F                                     ; reg: 0x0d2
0555   0852           01957         movf    0x52, W                                     ; reg: 0x0d2
0556   00CE           01958         movwf   0x4e                                        ; reg: 0x0ce
0557   0851           01959         movf    0x51, W                                     ; reg: 0x0d1
0558   00CD           01960         movwf   0x4d                                        ; reg: 0x0cd
0559   13CE           01961         bcf     0x4e, 0x7                                   ; reg: 0x0ce
055A   174E           01962         bsf     0x4e, 0x6                                   ; reg: 0x0ce
055B   1283           01963         bcf     STATUS, RP0                                 ; reg: 0x003, bit: 5
055C   1303           01964         bcf     STATUS, RP1                                 ; reg: 0x003, bit: 6
055D   257B           01965         call    function_043
055E   0008           01966         return
                      01967 
055F                  01968 function_041:                                               ; address: 0x055f
                      01969 
055F   1283           01970         bcf     STATUS, RP0                                 ; reg: 0x003, bit: 5
0560   1303           01971         bcf     STATUS, RP1                                 ; reg: 0x003, bit: 6
0561   2575           01972         call    function_042
0562   1683           01973         bsf     STATUS, RP0                                 ; reg: 0x003, bit: 5
0563   1303           01974         bcf     STATUS, RP1                                 ; reg: 0x003, bit: 6
0564   3044           01975         movlw   0x44
0565   00CE           01976         movwf   0x4e                                        ; reg: 0x0ce
0566   30BB           01977         movlw   0xbb
0567   00CD           01978         movwf   0x4d                                        ; reg: 0x0cd
0568   1283           01979         bcf     STATUS, RP0                                 ; reg: 0x003, bit: 5
0569   1303           01980         bcf     STATUS, RP1                                 ; reg: 0x003, bit: 6
056A   257B           01981         call    function_043
056B   1683           01982         bsf     STATUS, RP0                                 ; reg: 0x003, bit: 5
056C   1303           01983         bcf     STATUS, RP1                                 ; reg: 0x003, bit: 6
056D   3047           01984         movlw   0x47
056E   00CE           01985         movwf   0x4e                                        ; reg: 0x0ce
056F   30AE           01986         movlw   0xae
0570   00CD           01987         movwf   0x4d                                        ; reg: 0x0cd
0571   1283           01988         bcf     STATUS, RP0                                 ; reg: 0x003, bit: 5
0572   1303           01989         bcf     STATUS, RP1                                 ; reg: 0x003, bit: 6
0573   257B           01990         call    function_043
0574   0008           01991         return
                      01992 
0575                  01993 function_042:                                               ; address: 0x0575
                      01994 
0575   1683           01995         bsf     STATUS, RP0                                 ; reg: 0x003, bit: 5
0576   1303           01996         bcf     STATUS, RP1                                 ; reg: 0x003, bit: 6
0577   3020           01997         movlw   0x20
0578   00CE           01998         movwf   0x4e                                        ; reg: 0x0ce
0579   3000           01999         movlw   0x00
057A   00CD           02000         movwf   0x4d                                        ; reg: 0x0cd
                      02001 
057B                  02002 function_043:                                               ; address: 0x057b
gpasm-1.5.0 #1285 (Jan 23 2020) unidds_v1_10.   27.01.2020  22:56:48        PAGE 39


LOC    OBJECT CODE    LINE  SOURCE TEXT
  VALUE

                      02003 
057B   1283           02004         bcf     STATUS, RP0                                 ; reg: 0x003, bit: 5
057C   1303           02005         bcf     STATUS, RP1                                 ; reg: 0x003, bit: 6
057D   1106           02006         bcf     PORTB, RB2                                  ; reg: 0x006, bit: 2
057E   1683           02007         bsf     STATUS, RP0                                 ; reg: 0x003, bit: 5
057F   1303           02008         bcf     STATUS, RP1                                 ; reg: 0x003, bit: 6
0580   084E           02009         movf    0x4e, W                                     ; reg: 0x0ce
0581   1283           02010         bcf     STATUS, RP0                                 ; reg: 0x003, bit: 5
0582   1303           02011         bcf     STATUS, RP1                                 ; reg: 0x003, bit: 6
0583   258C           02012         call    function_044
0584   1683           02013         bsf     STATUS, RP0                                 ; reg: 0x003, bit: 5
0585   1303           02014         bcf     STATUS, RP1                                 ; reg: 0x003, bit: 6
0586   084D           02015         movf    0x4d, W                                     ; reg: 0x0cd
0587   1283           02016         bcf     STATUS, RP0                                 ; reg: 0x003, bit: 5
0588   1303           02017         bcf     STATUS, RP1                                 ; reg: 0x003, bit: 6
0589   258C           02018         call    function_044
058A   1506           02019         bsf     PORTB, RB2                                  ; reg: 0x006, bit: 2
058B   0008           02020         return
                      02021 
058C                  02022 function_044:                                               ; address: 0x058c
                      02023 
058C   00BF           02024         movwf   0x3f                                        ; reg: 0x03f
058D   3008           02025         movlw   0x08
058E   00B8           02026         movwf   0x38                                        ; reg: 0x038
                      02027 
058F                  02028 label_145:                                                  ; address: 0x058f
                      02029 
058F   0DBF           02030         rlf     0x3f, F                                     ; reg: 0x03f
0590   1C03           02031         btfss   STATUS, C                                   ; reg: 0x003, bit: 0
                      02032 
0591                  02033 label_146:                                                  ; address: 0x0591
                      02034 
0591   1206           02035         bcf     PORTB, RB4                                  ; reg: 0x006, bit: 4
0592   1803           02036         btfsc   STATUS, C                                   ; reg: 0x003, bit: 0
0593   1606           02037         bsf     PORTB, RB4                                  ; reg: 0x006, bit: 4
0594   1186           02038         bcf     PORTB, RB3                                  ; reg: 0x006, bit: 3
0595   1586           02039         bsf     PORTB, RB3                                  ; reg: 0x006, bit: 3
0596   0BB8           02040         decfsz  0x38, F                                     ; reg: 0x038
0597   2D8F           02041         goto    label_145
0598   0008           02042         return
                      02043 
0599                  02044 function_045:                                               ; address: 0x0599
                      02045 
0599   1683           02046         bsf     STATUS, RP0                                 ; reg: 0x003, bit: 5
059A   1303           02047         bcf     STATUS, RP1                                 ; reg: 0x003, bit: 6
059B   179F           02048         bsf     ADCON1, ADFM                                ; reg: 0x09f, bit: 7
059C   1283           02049         bcf     STATUS, RP0                                 ; reg: 0x003, bit: 5
059D   1303           02050         bcf     STATUS, RP1                                 ; reg: 0x003, bit: 6
059E   3061           02051         movlw   0x61
059F   25B0           02052         call    function_049
05A0   1683           02053         bsf     STATUS, RP0                                 ; reg: 0x003, bit: 5
05A1   1303           02054         bcf     STATUS, RP1                                 ; reg: 0x003, bit: 6
05A2   00AD           02055         movwf   0x2d                                        ; reg: 0x0ad
gpasm-1.5.0 #1285 (Jan 23 2020) unidds_v1_10.   27.01.2020  22:56:48        PAGE 40


LOC    OBJECT CODE    LINE  SOURCE TEXT
  VALUE

05A3   081E           02056         movf    ADRESL, W                                   ; reg: 0x09e
05A4   00AC           02057         movwf   0x2c                                        ; reg: 0x0ac
05A5   139F           02058         bcf     ADCON1, ADFM                                ; reg: 0x09f, bit: 7
05A6   1283           02059         bcf     STATUS, RP0                                 ; reg: 0x003, bit: 5
05A7   1303           02060         bcf     STATUS, RP1                                 ; reg: 0x003, bit: 6
05A8   0008           02061         return
                      02062 
05A9                  02063 function_046:                                               ; address: 0x05a9
                      02064 
05A9   3059           02065         movlw   0x59
05AA   2DB0           02066         goto    function_049
05AB   3051           02067         movlw   0x51
05AC   2DB0           02068         goto    function_049
                      02069 
05AD                  02070 function_047:                                               ; address: 0x05ad
                      02071 
05AD   3049           02072         movlw   0x49
05AE   2DB0           02073         goto    function_049
                      02074 
05AF                  02075 function_048:                                               ; address: 0x05af
                      02076 
05AF   3041           02077         movlw   0x41
                      02078 
05B0                  02079 function_049:                                               ; address: 0x05b0
                      02080 
05B0   009F           02081         movwf   ADCON0                                      ; reg: 0x01f
05B1   3001           02082         movlw   0x01
05B2   212A           02083         call    function_011
05B3   151F           02084         bsf     ADCON0, GO                                  ; reg: 0x01f, bit: 2
                      02085 
05B4                  02086 label_147:                                                  ; address: 0x05b4
                      02087 
05B4   191F           02088         btfsc   ADCON0, GO                                  ; reg: 0x01f, bit: 2
05B5   2DB4           02089         goto    label_147
05B6   081E           02090         movf    ADRESH, W                                   ; reg: 0x01e
05B7   0008           02091         return
05B8   00C8           02092         movwf   0x48                                        ; reg: 0x048
05B9   309A           02093         movlw   0x9a
05BA   00C7           02094         movwf   0x47                                        ; reg: 0x047
05BB   0848           02095         movf    0x48, W                                     ; reg: 0x048
05BC   01C8           02096         clrf    0x48                                        ; reg: 0x048
05BD   15C8           02097         bsf     0x48, 0x3                                   ; reg: 0x048
05BE   01C5           02098         clrf    0x45                                        ; reg: 0x045
05BF   01C6           02099         clrf    0x46                                        ; reg: 0x046
                      02100 
05C0                  02101 label_148:                                                  ; address: 0x05c0
                      02102 
05C0   1003           02103         bcf     STATUS, C                                   ; reg: 0x003, bit: 0
05C1   0DC5           02104         rlf     0x45, F                                     ; reg: 0x045
05C2   0DC6           02105         rlf     0x46, F                                     ; reg: 0x046
05C3   0DC7           02106         rlf     0x47, F                                     ; reg: 0x047
05C4   1C03           02107         btfss   STATUS, C                                   ; reg: 0x003, bit: 0
05C5   2DC9           02108         goto    label_149
gpasm-1.5.0 #1285 (Jan 23 2020) unidds_v1_10.   27.01.2020  22:56:48        PAGE 41


LOC    OBJECT CODE    LINE  SOURCE TEXT
  VALUE

05C6   07C5           02109         addwf   0x45, F                                     ; reg: 0x045
05C7   1803           02110         btfsc   STATUS, C                                   ; reg: 0x003, bit: 0
05C8   0AC6           02111         incf    0x46, F                                     ; reg: 0x046
                      02112 
05C9                  02113 label_149:                                                  ; address: 0x05c9
                      02114 
05C9   0BC8           02115         decfsz  0x48, F                                     ; reg: 0x048
05CA   2DC0           02116         goto    label_148
05CB   3000           02117         movlw   0x00
05CC   1003           02118         bcf     STATUS, C                                   ; reg: 0x003, bit: 0
05CD   0746           02119         addwf   0x46, W                                     ; reg: 0x046
05CE   0008           02120         return
05CF   00C7           02121         movwf   0x47                                        ; reg: 0x047
05D0   3008           02122         movlw   0x08
05D1   00C8           02123         movwf   0x48                                        ; reg: 0x048
05D2   01C5           02124         clrf    0x45                                        ; reg: 0x045
05D3   01C6           02125         clrf    0x46                                        ; reg: 0x046
                      02126 
05D4                  02127 label_150:                                                  ; address: 0x05d4
                      02128 
05D4   0845           02129         movf    0x45, W                                     ; reg: 0x045
05D5   390F           02130         andlw   0x0f
05D6   00C4           02131         movwf   0x44                                        ; reg: 0x044
05D7   3005           02132         movlw   0x05
05D8   0244           02133         subwf   0x44, W                                     ; reg: 0x044
05D9   1C03           02134         btfss   STATUS, C                                   ; reg: 0x003, bit: 0
05DA   2DDD           02135         goto    label_151
05DB   3003           02136         movlw   0x03
05DC   07C5           02137         addwf   0x45, F                                     ; reg: 0x045
                      02138 
05DD                  02139 label_151:                                                  ; address: 0x05dd
                      02140 
05DD   0845           02141         movf    0x45, W                                     ; reg: 0x045
05DE   39F0           02142         andlw   0xf0
05DF   00C4           02143         movwf   0x44                                        ; reg: 0x044
05E0   3050           02144         movlw   0x50
05E1   0244           02145         subwf   0x44, W                                     ; reg: 0x044
05E2   1C03           02146         btfss   STATUS, C                                   ; reg: 0x003, bit: 0
05E3   2DE6           02147         goto    label_152
05E4   3030           02148         movlw   0x30
05E5   07C5           02149         addwf   0x45, F                                     ; reg: 0x045
                      02150 
05E6                  02151 label_152:                                                  ; address: 0x05e6
                      02152 
05E6   1003           02153         bcf     STATUS, C                                   ; reg: 0x003, bit: 0
05E7   0DC7           02154         rlf     0x47, F                                     ; reg: 0x047
05E8   0DC5           02155         rlf     0x45, F                                     ; reg: 0x045
05E9   0DC6           02156         rlf     0x46, F                                     ; reg: 0x046
05EA   0BC8           02157         decfsz  0x48, F                                     ; reg: 0x048
05EB   2DD4           02158         goto    label_150
05EC   0845           02159         movf    0x45, W                                     ; reg: 0x045
05ED   0008           02160         return
                      02161 
gpasm-1.5.0 #1285 (Jan 23 2020) unidds_v1_10.   27.01.2020  22:56:48        PAGE 42


LOC    OBJECT CODE    LINE  SOURCE TEXT
  VALUE

05EE                  02162 function_050:                                               ; address: 0x05ee
                      02163 
05EE   25AF           02164         call    function_048
05EF   1683           02165         bsf     STATUS, RP0                                 ; reg: 0x003, bit: 5
05F0   1303           02166         bcf     STATUS, RP1                                 ; reg: 0x003, bit: 6
05F1   00A8           02167         movwf   0x28                                        ; reg: 0x0a8
05F2   1283           02168         bcf     STATUS, RP0                                 ; reg: 0x003, bit: 5
05F3   1303           02169         bcf     STATUS, RP1                                 ; reg: 0x003, bit: 6
05F4   2076           02170         call    function_001
05F5   00E1           02171         movwf   0x61                                        ; reg: 0x061
05F6   30F2           02172         movlw   0xf2
05F7   1D87           02173         btfss   PORTC, RC3                                  ; reg: 0x007, bit: 3
05F8   30F2           02174         movlw   0xf2
05F9   1683           02175         bsf     STATUS, RP0                                 ; reg: 0x003, bit: 5
05FA   1303           02176         bcf     STATUS, RP1                                 ; reg: 0x003, bit: 6
05FB   0000           02177         nop
05FC   0092           02178         movwf   PR2                                         ; reg: 0x092
05FD   1283           02179         bcf     STATUS, RP0                                 ; reg: 0x003, bit: 5
05FE   1303           02180         bcf     STATUS, RP1                                 ; reg: 0x003, bit: 6
05FF   1512           02181         bsf     T2CON, TMR2ON                               ; reg: 0x012, bit: 2
                      02182 
0600                  02183 label_153:                                                  ; address: 0x0600
                      02184 
0600   1F06           02185         btfss   PORTB, RB6                                  ; reg: 0x006, bit: 6
0601   14B1           02186         bsf     0x31, 0x1                                   ; reg: 0x031
0602   1F86           02187         btfss   PORTB, RB7                                  ; reg: 0x006, bit: 7
0603   1531           02188         bsf     0x31, 0x2                                   ; reg: 0x031
0604   08E1           02189         movf    0x61, F                                     ; reg: 0x061
0605   1D03           02190         btfss   STATUS, Z                                   ; reg: 0x003, bit: 2
0606   2E00           02191         goto    label_153
0607   1112           02192         bcf     T2CON, TMR2ON                               ; reg: 0x012, bit: 2
0608   0008           02193         return
0609   00C8           02194         movwf   0x48                                        ; reg: 0x048
060A   302A           02195         movlw   0x2a
060B   00C7           02196         movwf   0x47                                        ; reg: 0x047
060C   0848           02197         movf    0x48, W                                     ; reg: 0x048
060D   01C8           02198         clrf    0x48                                        ; reg: 0x048
060E   15C8           02199         bsf     0x48, 0x3                                   ; reg: 0x048
060F   01C5           02200         clrf    0x45                                        ; reg: 0x045
0610   01C6           02201         clrf    0x46                                        ; reg: 0x046
                      02202 
0611                  02203 label_154:                                                  ; address: 0x0611
                      02204 
0611   1003           02205         bcf     STATUS, C                                   ; reg: 0x003, bit: 0
0612   0DC5           02206         rlf     0x45, F                                     ; reg: 0x045
0613   0DC6           02207         rlf     0x46, F                                     ; reg: 0x046
0614   0DC7           02208         rlf     0x47, F                                     ; reg: 0x047
0615   1C03           02209         btfss   STATUS, C                                   ; reg: 0x003, bit: 0
0616   2E1A           02210         goto    label_155
0617   07C5           02211         addwf   0x45, F                                     ; reg: 0x045
0618   1803           02212         btfsc   STATUS, C                                   ; reg: 0x003, bit: 0
0619   0AC6           02213         incf    0x46, F                                     ; reg: 0x046
                      02214 
gpasm-1.5.0 #1285 (Jan 23 2020) unidds_v1_10.   27.01.2020  22:56:48        PAGE 43


LOC    OBJECT CODE    LINE  SOURCE TEXT
  VALUE

061A                  02215 label_155:                                                  ; address: 0x061a
                      02216 
061A   0BC8           02217         decfsz  0x48, F                                     ; reg: 0x048
061B   2E11           02218         goto    label_154
061C   3009           02219         movlw   0x09
061D   1003           02220         bcf     STATUS, C                                   ; reg: 0x003, bit: 0
061E   0746           02221         addwf   0x46, W                                     ; reg: 0x046
061F   0008           02222         return
                      02223 
0620                  02224 function_051:                                               ; address: 0x0620
                      02225 
0620   30C8           02226         movlw   0xc8
0621   00DF           02227         movwf   0x5f                                        ; reg: 0x05f
0622   0008           02228         return
                      02229 
0623                  02230 function_052:                                               ; address: 0x0623
                      02231 
0623   1683           02232         bsf     STATUS, RP0                                 ; reg: 0x003, bit: 5
0624   1703           02233         bsf     STATUS, RP1                                 ; reg: 0x003, bit: 6
                      02234 
0625                  02235 label_156:                                                  ; address: 0x0625
                      02236 
0625   188C           02237         btfsc   PIR1, TMR2IF                                ; reg: 0x00c, bit: 1
0626   2E25           02238         goto    label_156
0627   1283           02239         bcf     STATUS, RP0                                 ; reg: 0x003, bit: 5
0628   1303           02240         bcf     STATUS, RP1                                 ; reg: 0x003, bit: 6
0629   0878           02241         movf    (Common_RAM + 8), W                         ; reg: 0x078
062A   1283           02242         bcf     STATUS, RP0                                 ; reg: 0x003, bit: 5
062B   1703           02243         bsf     STATUS, RP1                                 ; reg: 0x003, bit: 6
062C   008D           02244         movwf   EEADR                                       ; reg: 0x10d
062D   1283           02245         bcf     STATUS, RP0                                 ; reg: 0x003, bit: 5
062E   1303           02246         bcf     STATUS, RP1                                 ; reg: 0x003, bit: 6
062F   0879           02247         movf    (Common_RAM + 9), W                         ; reg: 0x079
0630   1283           02248         bcf     STATUS, RP0                                 ; reg: 0x003, bit: 5
0631   1703           02249         bsf     STATUS, RP1                                 ; reg: 0x003, bit: 6
0632   008C           02250         movwf   EEDATA                                      ; reg: 0x10c
0633   1683           02251         bsf     STATUS, RP0                                 ; reg: 0x003, bit: 5
0634   1703           02252         bsf     STATUS, RP1                                 ; reg: 0x003, bit: 6
0635   138C           02253         bcf     EECON1, EEPGD                               ; reg: 0x18c, bit: 7
0636   150C           02254         bsf     EECON1, WREN                                ; reg: 0x18c, bit: 2
                      02255 
0637                  02256 label_157:                                                  ; address: 0x0637
                      02257 
0637   138B           02258         bcf     INTCON, GIE                                 ; reg: 0x00b, bit: 7
0638   1B8B           02259         btfsc   INTCON, GIE                                 ; reg: 0x00b, bit: 7
                      02260 
0639                  02261 label_158:                                                  ; address: 0x0639
                      02262 
0639   2E37           02263         goto    label_157
063A   3055           02264         movlw   0x55
063B   008D           02265         movwf   PIR2                                        ; reg: 0x00d
063C   30AA           02266         movlw   0xaa
063D   008D           02267         movwf   PIR2                                        ; reg: 0x00d
gpasm-1.5.0 #1285 (Jan 23 2020) unidds_v1_10.   27.01.2020  22:56:48        PAGE 44


LOC    OBJECT CODE    LINE  SOURCE TEXT
  VALUE

063E   148C           02268         bsf     PIR1, TMR2IF                                ; reg: 0x00c, bit: 1
                      02269 
063F                  02270 label_159:                                                  ; address: 0x063f
                      02271 
063F   188C           02272         btfsc   PIR1, TMR2IF                                ; reg: 0x00c, bit: 1
0640   2E3F           02273         goto    label_159
0641   178B           02274         bsf     INTCON, GIE                                 ; reg: 0x00b, bit: 7
0642   110C           02275         bcf     PIR1, CCP1IF                                ; reg: 0x00c, bit: 2
0643   1283           02276         bcf     STATUS, RP0                                 ; reg: 0x003, bit: 5
0644   1303           02277         bcf     STATUS, RP1                                 ; reg: 0x003, bit: 6
0645   0008           02278         return
                      02279 
0646                  02280 function_053:                                               ; address: 0x0646
                      02281 
0646   0878           02282         movf    (Common_RAM + 8), W                         ; reg: 0x078
0647   1283           02283         bcf     STATUS, RP0                                 ; reg: 0x003, bit: 5
0648   1703           02284         bsf     STATUS, RP1                                 ; reg: 0x003, bit: 6
0649   008D           02285         movwf   EEADR                                       ; reg: 0x10d
064A   1683           02286         bsf     STATUS, RP0                                 ; reg: 0x003, bit: 5
064B   1703           02287         bsf     STATUS, RP1                                 ; reg: 0x003, bit: 6
064C   138C           02288         bcf     EECON1, EEPGD                               ; reg: 0x18c, bit: 7
064D   140C           02289         bsf     EECON1, RD                                  ; reg: 0x18c, bit: 0
064E   1283           02290         bcf     STATUS, RP0                                 ; reg: 0x003, bit: 5
064F   1703           02291         bsf     STATUS, RP1                                 ; reg: 0x003, bit: 6
0650   080C           02292         movf    EEDATA, W                                   ; reg: 0x10c
0651   1283           02293         bcf     STATUS, RP0                                 ; reg: 0x003, bit: 5
0652   1303           02294         bcf     STATUS, RP1                                 ; reg: 0x003, bit: 6
0653   0008           02295         return
                      02296 
0654                  02297 function_054:                                               ; address: 0x0654
                      02298 
0654   3011           02299         movlw   0x11
0655   00B8           02300         movwf   0x38                                        ; reg: 0x038
0656   3020           02301         movlw   0x20
0657   0084           02302         movwf   FSR                                         ; reg: 0x004
0658   01F8           02303         clrf    (Common_RAM + 8)                            ; reg: 0x078
0659   266E           02304         call    function_055
065A   3004           02305         movlw   0x04
065B   00B8           02306         movwf   0x38                                        ; reg: 0x038
065C   307A           02307         movlw   0x7a
065D   0084           02308         movwf   FSR                                         ; reg: 0x004
065E   3019           02309         movlw   0x19
065F   00F8           02310         movwf   (Common_RAM + 8)                            ; reg: 0x078
0660   266E           02311         call    function_055
0661   1683           02312         bsf     STATUS, RP0                                 ; reg: 0x003, bit: 5
0662   1303           02313         bcf     STATUS, RP1                                 ; reg: 0x003, bit: 6
0663   087B           02314         movf    0x7b, W                                     ; reg: 0x0fb
0664   00AF           02315         movwf   0x2f                                        ; reg: 0x0af
0665   087A           02316         movf    0x7a, W                                     ; reg: 0x0fa
0666   00AE           02317         movwf   0x2e                                        ; reg: 0x0ae
0667   087C           02318         movf    0x7c, W                                     ; reg: 0x0fc
0668   00B0           02319         movwf   0x30                                        ; reg: 0x0b0
0669   087D           02320         movf    0x7d, W                                     ; reg: 0x0fd
gpasm-1.5.0 #1285 (Jan 23 2020) unidds_v1_10.   27.01.2020  22:56:48        PAGE 45


LOC    OBJECT CODE    LINE  SOURCE TEXT
  VALUE

066A   00B1           02321         movwf   0x31                                        ; reg: 0x0b1
066B   1283           02322         bcf     STATUS, RP0                                 ; reg: 0x003, bit: 5
066C   1303           02323         bcf     STATUS, RP1                                 ; reg: 0x003, bit: 6
066D   0008           02324         return
                      02325 
066E                  02326 function_055:                                               ; address: 0x066e
                      02327 
066E   2646           02328         call    function_053
066F   0080           02329         movwf   INDF                                        ; reg: 0x000
0670   0A84           02330         incf    FSR, F                                      ; reg: 0x004
0671   0AF8           02331         incf    (Common_RAM + 8), F                         ; reg: 0x078
0672   0BB8           02332         decfsz  0x38, F                                     ; reg: 0x038
0673   2E6E           02333         goto    function_055
0674   0008           02334         return
                      02335 
0675                  02336 function_056:                                               ; address: 0x0675
                      02337 
0675   0800           02338         movf    INDF, W                                     ; reg: 0x000
0676   00F9           02339         movwf   (Common_RAM + 9)                            ; reg: 0x079
0677   2623           02340         call    function_052
0678   0A84           02341         incf    FSR, F                                      ; reg: 0x004
0679   0AF8           02342         incf    (Common_RAM + 8), F                         ; reg: 0x078
067A   0BB8           02343         decfsz  0x38, F                                     ; reg: 0x038
067B   2E75           02344         goto    function_056
067C   0008           02345         return
067D   3EFF           02346         addlw   0xff
067E   3EFF           02347         addlw   0xff
067F   3EFF           02348         addlw   0xff
0680   3EFF           02349         addlw   0xff
0681   3EFF           02350         addlw   0xff
0682   3EFF           02351         addlw   0xff
0683   3EFF           02352         addlw   0xff
0684   3EFF           02353         addlw   0xff
0685   3EFF           02354         addlw   0xff
0686   3EFF           02355         addlw   0xff
0687   3EFF           02356         addlw   0xff
0688   3EFF           02357         addlw   0xff
0689   3EFF           02358         addlw   0xff
068A   3EFF           02359         addlw   0xff
068B   3EFF           02360         addlw   0xff
068C   3EFF           02361         addlw   0xff
068D   3EFF           02362         addlw   0xff
068E   3EFF           02363         addlw   0xff
068F   3EFF           02364         addlw   0xff
0690   3EFF           02365         addlw   0xff
0691   3EFF           02366         addlw   0xff
0692   3EFF           02367         addlw   0xff
0693   3EFF           02368         addlw   0xff
0694   3EFF           02369         addlw   0xff
0695   3EFF           02370         addlw   0xff
0696   3EFF           02371         addlw   0xff
0697   3EFF           02372         addlw   0xff
0698   3EFF           02373         addlw   0xff
gpasm-1.5.0 #1285 (Jan 23 2020) unidds_v1_10.   27.01.2020  22:56:48        PAGE 46


LOC    OBJECT CODE    LINE  SOURCE TEXT
  VALUE

0699   3EFF           02374         addlw   0xff
069A   3EFF           02375         addlw   0xff
069B   3EFF           02376         addlw   0xff
069C   3EFF           02377         addlw   0xff
069D   3EFF           02378         addlw   0xff
069E   3EFF           02379         addlw   0xff
069F   3EFF           02380         addlw   0xff
06A0   3EFF           02381         addlw   0xff
06A1   3EFF           02382         addlw   0xff
06A2   3EFF           02383         addlw   0xff
06A3   3EFF           02384         addlw   0xff
06A4   3EFF           02385         addlw   0xff
06A5   3EFF           02386         addlw   0xff
06A6   3EFF           02387         addlw   0xff
06A7   3EFF           02388         addlw   0xff
06A8   3EFF           02389         addlw   0xff
06A9   3EFF           02390         addlw   0xff
06AA   3EFF           02391         addlw   0xff
06AB   3EFF           02392         addlw   0xff
06AC   3EFF           02393         addlw   0xff
06AD   3EFF           02394         addlw   0xff
06AE   3EFF           02395         addlw   0xff
06AF   3EFF           02396         addlw   0xff
06B0   3EFF           02397         addlw   0xff
06B1   3EFF           02398         addlw   0xff
06B2   3EFF           02399         addlw   0xff
06B3   3EFF           02400         addlw   0xff
06B4   3EFF           02401         addlw   0xff
06B5   3EFF           02402         addlw   0xff
06B6   3EFF           02403         addlw   0xff
06B7   3EFF           02404         addlw   0xff
06B8   3EFF           02405         addlw   0xff
06B9   3EFF           02406         addlw   0xff
06BA   3EFF           02407         addlw   0xff
06BB   3EFF           02408         addlw   0xff
06BC   3EFF           02409         addlw   0xff
06BD   3EFF           02410         addlw   0xff
06BE   3EFF           02411         addlw   0xff
06BF   3EFF           02412         addlw   0xff
06C0   3EFF           02413         addlw   0xff
06C1   3EFF           02414         addlw   0xff
06C2   3EFF           02415         addlw   0xff
06C3   3EFF           02416         addlw   0xff
06C4   3EFF           02417         addlw   0xff
06C5   3EFF           02418         addlw   0xff
06C6   3EFF           02419         addlw   0xff
06C7   3EFF           02420         addlw   0xff
06C8   3EFF           02421         addlw   0xff
06C9   3EFF           02422         addlw   0xff
06CA   3EFF           02423         addlw   0xff
06CB   3EFF           02424         addlw   0xff
06CC   3EFF           02425         addlw   0xff
06CD   3EFF           02426         addlw   0xff
gpasm-1.5.0 #1285 (Jan 23 2020) unidds_v1_10.   27.01.2020  22:56:48        PAGE 47


LOC    OBJECT CODE    LINE  SOURCE TEXT
  VALUE

06CE   3EFF           02427         addlw   0xff
06CF   3EFF           02428         addlw   0xff
06D0   3EFF           02429         addlw   0xff
06D1   3EFF           02430         addlw   0xff
06D2   3EFF           02431         addlw   0xff
06D3   3EFF           02432         addlw   0xff
06D4   3EFF           02433         addlw   0xff
06D5   3EFF           02434         addlw   0xff
06D6   3EFF           02435         addlw   0xff
06D7   3EFF           02436         addlw   0xff
06D8   3EFF           02437         addlw   0xff
06D9   3EFF           02438         addlw   0xff
06DA   3EFF           02439         addlw   0xff
06DB   3EFF           02440         addlw   0xff
06DC   3EFF           02441         addlw   0xff
06DD   3EFF           02442         addlw   0xff
06DE   3EFF           02443         addlw   0xff
06DF   3EFF           02444         addlw   0xff
06E0   3EFF           02445         addlw   0xff
06E1   3EFF           02446         addlw   0xff
06E2   3EFF           02447         addlw   0xff
06E3   3EFF           02448         addlw   0xff
06E4   3EFF           02449         addlw   0xff
06E5   3EFF           02450         addlw   0xff
06E6   3EFF           02451         addlw   0xff
06E7   3EFF           02452         addlw   0xff
06E8   3EFF           02453         addlw   0xff
06E9   3EFF           02454         addlw   0xff
06EA   3EFF           02455         addlw   0xff
06EB   3EFF           02456         addlw   0xff
06EC   3EFF           02457         addlw   0xff
06ED   3EFF           02458         addlw   0xff
06EE   3EFF           02459         addlw   0xff
06EF   3EFF           02460         addlw   0xff
06F0   3EFF           02461         addlw   0xff
06F1   3EFF           02462         addlw   0xff
06F2   3EFF           02463         addlw   0xff
06F3   3EFF           02464         addlw   0xff
06F4   3EFF           02465         addlw   0xff
06F5   3EFF           02466         addlw   0xff
06F6   3EFF           02467         addlw   0xff
06F7   3EFF           02468         addlw   0xff
06F8   3EFF           02469         addlw   0xff
06F9   3EFF           02470         addlw   0xff
06FA   3EFF           02471         addlw   0xff
06FB   3EFF           02472         addlw   0xff
06FC   3EFF           02473         addlw   0xff
06FD   3EFF           02474         addlw   0xff
06FE   3EFF           02475         addlw   0xff
06FF   3EFF           02476         addlw   0xff
0700   3EFF           02477         addlw   0xff
0701   3EFF           02478         addlw   0xff
0702   3EFF           02479         addlw   0xff
gpasm-1.5.0 #1285 (Jan 23 2020) unidds_v1_10.   27.01.2020  22:56:48        PAGE 48


LOC    OBJECT CODE    LINE  SOURCE TEXT
  VALUE

0703   3EFF           02480         addlw   0xff
0704   3EFF           02481         addlw   0xff
0705   3EFF           02482         addlw   0xff
0706   3EFF           02483         addlw   0xff
0707   3EFF           02484         addlw   0xff
0708   3EFF           02485         addlw   0xff
0709   3EFF           02486         addlw   0xff
070A   3EFF           02487         addlw   0xff
070B   3EFF           02488         addlw   0xff
070C   3EFF           02489         addlw   0xff
070D   3EFF           02490         addlw   0xff
070E   3EFF           02491         addlw   0xff
070F   3EFF           02492         addlw   0xff
0710   3EFF           02493         addlw   0xff
0711   3EFF           02494         addlw   0xff
0712   3EFF           02495         addlw   0xff
0713   3EFF           02496         addlw   0xff
0714   3EFF           02497         addlw   0xff
0715   3EFF           02498         addlw   0xff
0716   3EFF           02499         addlw   0xff
0717   3EFF           02500         addlw   0xff
0718   3EFF           02501         addlw   0xff
0719   3EFF           02502         addlw   0xff
071A   3EFF           02503         addlw   0xff
071B   3EFF           02504         addlw   0xff
071C   3EFF           02505         addlw   0xff
071D   3EFF           02506         addlw   0xff
071E   3EFF           02507         addlw   0xff
071F   3EFF           02508         addlw   0xff
0720   3EFF           02509         addlw   0xff
0721   3EFF           02510         addlw   0xff
0722   3EFF           02511         addlw   0xff
0723   3EFF           02512         addlw   0xff
0724   3EFF           02513         addlw   0xff
0725   3EFF           02514         addlw   0xff
0726   3EFF           02515         addlw   0xff
0727   3EFF           02516         addlw   0xff
0728   3EFF           02517         addlw   0xff
0729   3EFF           02518         addlw   0xff
072A   3EFF           02519         addlw   0xff
072B   3EFF           02520         addlw   0xff
072C   3EFF           02521         addlw   0xff
072D   3EFF           02522         addlw   0xff
072E   3EFF           02523         addlw   0xff
072F   3EFF           02524         addlw   0xff
0730   3EFF           02525         addlw   0xff
0731   3EFF           02526         addlw   0xff
0732   3EFF           02527         addlw   0xff
0733   3EFF           02528         addlw   0xff
0734   3EFF           02529         addlw   0xff
0735   3EFF           02530         addlw   0xff
0736   3EFF           02531         addlw   0xff
0737   3EFF           02532         addlw   0xff
gpasm-1.5.0 #1285 (Jan 23 2020) unidds_v1_10.   27.01.2020  22:56:48        PAGE 49


LOC    OBJECT CODE    LINE  SOURCE TEXT
  VALUE

0738   3EFF           02533         addlw   0xff
0739   3EFF           02534         addlw   0xff
073A   3EFF           02535         addlw   0xff
073B   3EFF           02536         addlw   0xff
073C   3EFF           02537         addlw   0xff
073D   3EFF           02538         addlw   0xff
073E   3EFF           02539         addlw   0xff
073F   3EFF           02540         addlw   0xff
0740   3EFF           02541         addlw   0xff
0741   3EFF           02542         addlw   0xff
0742   3EFF           02543         addlw   0xff
0743   3EFF           02544         addlw   0xff
0744   3EFF           02545         addlw   0xff
0745   3EFF           02546         addlw   0xff
0746   3EFF           02547         addlw   0xff
0747   3EFF           02548         addlw   0xff
0748   3EFF           02549         addlw   0xff
0749   3EFF           02550         addlw   0xff
074A   3EFF           02551         addlw   0xff
074B   3EFF           02552         addlw   0xff
074C   3EFF           02553         addlw   0xff
074D   3EFF           02554         addlw   0xff
074E   3EFF           02555         addlw   0xff
074F   3EFF           02556         addlw   0xff
0750   3EFF           02557         addlw   0xff
0751   3EFF           02558         addlw   0xff
0752   3EFF           02559         addlw   0xff
0753   3EFF           02560         addlw   0xff
0754   3EFF           02561         addlw   0xff
0755   3EFF           02562         addlw   0xff
0756   3EFF           02563         addlw   0xff
0757   3EFF           02564         addlw   0xff
0758   3EFF           02565         addlw   0xff
0759   3EFF           02566         addlw   0xff
075A   3EFF           02567         addlw   0xff
075B   3EFF           02568         addlw   0xff
075C   3EFF           02569         addlw   0xff
075D   3EFF           02570         addlw   0xff
075E   3EFF           02571         addlw   0xff
075F   3EFF           02572         addlw   0xff
0760   3EFF           02573         addlw   0xff
0761   3EFF           02574         addlw   0xff
0762   3EFF           02575         addlw   0xff
0763   3EFF           02576         addlw   0xff
0764   3EFF           02577         addlw   0xff
0765   3EFF           02578         addlw   0xff
0766   3EFF           02579         addlw   0xff
0767   3EFF           02580         addlw   0xff
0768   3EFF           02581         addlw   0xff
0769   3EFF           02582         addlw   0xff
076A   3EFF           02583         addlw   0xff
076B   3EFF           02584         addlw   0xff
076C   3EFF           02585         addlw   0xff
gpasm-1.5.0 #1285 (Jan 23 2020) unidds_v1_10.   27.01.2020  22:56:48        PAGE 50


LOC    OBJECT CODE    LINE  SOURCE TEXT
  VALUE

076D   3EFF           02586         addlw   0xff
076E   3EFF           02587         addlw   0xff
076F   3EFF           02588         addlw   0xff
0770   3EFF           02589         addlw   0xff
0771   3EFF           02590         addlw   0xff
0772   3EFF           02591         addlw   0xff
0773   3EFF           02592         addlw   0xff
0774   3EFF           02593         addlw   0xff
0775   3EFF           02594         addlw   0xff
0776   3EFF           02595         addlw   0xff
0777   3EFF           02596         addlw   0xff
0778   3EFF           02597         addlw   0xff
0779   3EFF           02598         addlw   0xff
077A   3EFF           02599         addlw   0xff
077B   3EFF           02600         addlw   0xff
077C   3EFF           02601         addlw   0xff
077D   3EFF           02602         addlw   0xff
077E   3EFF           02603         addlw   0xff
077F   3EFF           02604         addlw   0xff
0780   3EFF           02605         addlw   0xff
0781   3EFF           02606         addlw   0xff
0782   3EFF           02607         addlw   0xff
0783   3EFF           02608         addlw   0xff
0784   3EFF           02609         addlw   0xff
0785   3EFF           02610         addlw   0xff
0786   3EFF           02611         addlw   0xff
0787   3EFF           02612         addlw   0xff
0788   3EFF           02613         addlw   0xff
0789   3EFF           02614         addlw   0xff
078A   3EFF           02615         addlw   0xff
078B   3EFF           02616         addlw   0xff
078C   3EFF           02617         addlw   0xff
078D   3EFF           02618         addlw   0xff
078E   3EFF           02619         addlw   0xff
078F   3EFF           02620         addlw   0xff
0790   3EFF           02621         addlw   0xff
0791   3EFF           02622         addlw   0xff
0792   3EFF           02623         addlw   0xff
0793   3EFF           02624         addlw   0xff
0794   3EFF           02625         addlw   0xff
0795   3EFF           02626         addlw   0xff
0796   3EFF           02627         addlw   0xff
0797   3EFF           02628         addlw   0xff
0798   3EFF           02629         addlw   0xff
0799   3EFF           02630         addlw   0xff
079A   3EFF           02631         addlw   0xff
079B   3EFF           02632         addlw   0xff
079C   3EFF           02633         addlw   0xff
079D   3EFF           02634         addlw   0xff
079E   3EFF           02635         addlw   0xff
079F   3EFF           02636         addlw   0xff
07A0   3EFF           02637         addlw   0xff
07A1   3EFF           02638         addlw   0xff
gpasm-1.5.0 #1285 (Jan 23 2020) unidds_v1_10.   27.01.2020  22:56:48        PAGE 51


LOC    OBJECT CODE    LINE  SOURCE TEXT
  VALUE

07A2   3EFF           02639         addlw   0xff
07A3   3EFF           02640         addlw   0xff
07A4   3EFF           02641         addlw   0xff
07A5   3EFF           02642         addlw   0xff
07A6   3EFF           02643         addlw   0xff
07A7   3EFF           02644         addlw   0xff
07A8   3EFF           02645         addlw   0xff
07A9   3EFF           02646         addlw   0xff
07AA   3EFF           02647         addlw   0xff
07AB   3EFF           02648         addlw   0xff
07AC   3EFF           02649         addlw   0xff
07AD   3EFF           02650         addlw   0xff
07AE   3EFF           02651         addlw   0xff
07AF   3EFF           02652         addlw   0xff
07B0   3EFF           02653         addlw   0xff
07B1   3EFF           02654         addlw   0xff
07B2   3EFF           02655         addlw   0xff
07B3   3EFF           02656         addlw   0xff
07B4   3EFF           02657         addlw   0xff
07B5   3EFF           02658         addlw   0xff
07B6   3EFF           02659         addlw   0xff
07B7   3EFF           02660         addlw   0xff
07B8   3EFF           02661         addlw   0xff
07B9   3EFF           02662         addlw   0xff
07BA   3EFF           02663         addlw   0xff
07BB   3EFF           02664         addlw   0xff
07BC   3EFF           02665         addlw   0xff
07BD   3EFF           02666         addlw   0xff
07BE   3EFF           02667         addlw   0xff
07BF   3EFF           02668         addlw   0xff
07C0   3EFF           02669         addlw   0xff
07C1   3EFF           02670         addlw   0xff
07C2   3EFF           02671         addlw   0xff
07C3   3EFF           02672         addlw   0xff
07C4   3EFF           02673         addlw   0xff
07C5   3EFF           02674         addlw   0xff
07C6   3EFF           02675         addlw   0xff
07C7   3EFF           02676         addlw   0xff
07C8   3EFF           02677         addlw   0xff
07C9   3EFF           02678         addlw   0xff
07CA   3EFF           02679         addlw   0xff
07CB   3EFF           02680         addlw   0xff
07CC   3EFF           02681         addlw   0xff
07CD   3EFF           02682         addlw   0xff
07CE   3EFF           02683         addlw   0xff
07CF   3EFF           02684         addlw   0xff
07D0   3EFF           02685         addlw   0xff
07D1   3EFF           02686         addlw   0xff
07D2   3EFF           02687         addlw   0xff
07D3   3EFF           02688         addlw   0xff
07D4   3EFF           02689         addlw   0xff
07D5   3EFF           02690         addlw   0xff
07D6   3EFF           02691         addlw   0xff
gpasm-1.5.0 #1285 (Jan 23 2020) unidds_v1_10.   27.01.2020  22:56:48        PAGE 52


LOC    OBJECT CODE    LINE  SOURCE TEXT
  VALUE

07D7   3EFF           02692         addlw   0xff
07D8   3EFF           02693         addlw   0xff
07D9   3EFF           02694         addlw   0xff
07DA   3EFF           02695         addlw   0xff
07DB   3EFF           02696         addlw   0xff
07DC   3EFF           02697         addlw   0xff
07DD   3EFF           02698         addlw   0xff
07DE   3EFF           02699         addlw   0xff
07DF   3EFF           02700         addlw   0xff
07E0   3EFF           02701         addlw   0xff
07E1   3EFF           02702         addlw   0xff
07E2   3EFF           02703         addlw   0xff
07E3   3EFF           02704         addlw   0xff
07E4   3EFF           02705         addlw   0xff
07E5   3EFF           02706         addlw   0xff
07E6   3EFF           02707         addlw   0xff
07E7   3EFF           02708         addlw   0xff
07E8   3EFF           02709         addlw   0xff
07E9   3EFF           02710         addlw   0xff
07EA   3EFF           02711         addlw   0xff
07EB   3EFF           02712         addlw   0xff
07EC   3EFF           02713         addlw   0xff
07ED   3EFF           02714         addlw   0xff
07EE   3EFF           02715         addlw   0xff
07EF   3EFF           02716         addlw   0xff
07F0   3EFF           02717         addlw   0xff
07F1   3EFF           02718         addlw   0xff
07F2   3EFF           02719         addlw   0xff
07F3   3EFF           02720         addlw   0xff
07F4   3EFF           02721         addlw   0xff
07F5   3EFF           02722         addlw   0xff
07F6   3EFF           02723         addlw   0xff
07F7   3EFF           02724         addlw   0xff
07F8   3EFF           02725         addlw   0xff
07F9   3EFF           02726         addlw   0xff
07FA   3EFF           02727         addlw   0xff
07FB   3EFF           02728         addlw   0xff
07FC   3EFF           02729         addlw   0xff
07FD   3EFF           02730         addlw   0xff
07FE   3EFF           02731         addlw   0xff
07FF   3EFF           02732         addlw   0xff
                      02733 
0800                  02734 function_057:                                               ; address: 0x0800
                      02735 
0800   393F           02736         andlw   0x3f
0801   0782           02737         addwf   PCL, F                                      ; reg: 0x002
0802   3400           02738         retlw   0x00
0803   3400           02739         retlw   0x00
0804   3400           02740         retlw   0x00
0805   3401           02741         retlw   0x01
0806   3401           02742         retlw   0x01
0807   3401           02743         retlw   0x01
0808   3402           02744         retlw   0x02
gpasm-1.5.0 #1285 (Jan 23 2020) unidds_v1_10.   27.01.2020  22:56:48        PAGE 53


LOC    OBJECT CODE    LINE  SOURCE TEXT
  VALUE

0809   3403           02745         retlw   0x03
080A   3403           02746         retlw   0x03
080B   3404           02747         retlw   0x04
080C   3405           02748         retlw   0x05
080D   3406           02749         retlw   0x06
080E   3406           02750         retlw   0x06
080F   3407           02751         retlw   0x07
0810   3408           02752         retlw   0x08
0811   3409           02753         retlw   0x09
0812   3410           02754         retlw   0x10
0813   3411           02755         retlw   0x11
0814   3412           02756         retlw   0x12
0815   3414           02757         retlw   0x14
0816   3415           02758         retlw   0x15
0817   3417           02759         retlw   0x17
0818   3418           02760         retlw   0x18
0819   3419           02761         retlw   0x19
081A   3420           02762         retlw   0x20
081B   3422           02763         retlw   0x22
081C   3424           02764         retlw   0x24
081D   3425           02765         retlw   0x25
081E   3427           02766         retlw   0x27
081F   3430           02767         retlw   0x30
0820   3432           02768         retlw   0x32
0821   3434           02769         retlw   0x34
0822   3435           02770         retlw   0x35
0823   3437           02771         retlw   0x37
0824   3439           02772         retlw   0x39
0825   3440           02773         retlw   0x40
0826   3443           02774         retlw   0x43
0827   3445           02775         retlw   0x45
0828   3447           02776         retlw   0x47
0829   3450           02777         retlw   0x50
082A   3452           02778         retlw   0x52
082B   3454           02779         retlw   0x54
082C   3456           02780         retlw   0x56
082D   3458           02781         retlw   0x58
082E   3460           02782         retlw   0x60
082F   3463           02783         retlw   0x63
0830   3465           02784         retlw   0x65
0831   3467           02785         retlw   0x67
0832   3469           02786         retlw   0x69
0833   3472           02787         retlw   0x72
0834   3474           02788         retlw   0x74
0835   3476           02789         retlw   0x76
0836   3478           02790         retlw   0x78
0837   3481           02791         retlw   0x81
0838   3483           02792         retlw   0x83
0839   3485           02793         retlw   0x85
083A   3487           02794         retlw   0x87
083B   3490           02795         retlw   0x90
083C   3492           02796         retlw   0x92
083D   3494           02797         retlw   0x94
gpasm-1.5.0 #1285 (Jan 23 2020) unidds_v1_10.   27.01.2020  22:56:48        PAGE 54


LOC    OBJECT CODE    LINE  SOURCE TEXT
  VALUE

083E   3496           02798         retlw   0x96
083F   3499           02799         retlw   0x99
0840   3499           02800         retlw   0x99
0841   3499           02801         retlw   0x99
0842   3440           02802         retlw   0x40
0843   3456           02803         retlw   0x56
0844   3431           02804         retlw   0x31
0845   342E           02805         retlw   0x2e
0846   3431           02806         retlw   0x31
0847   3430           02807         retlw   0x30
0848   3420           02808         retlw   0x20
0849   3469           02809         retlw   0x69
084A   346E           02810         retlw   0x6e
084B   3469           02811         retlw   0x69
084C   3474           02812         retlw   0x74
084D   3400           02813         retlw   0x00
084E   3440           02814         retlw   0x40
084F   3456           02815         retlw   0x56
0850   3431           02816         retlw   0x31
0851   342E           02817         retlw   0x2e
0852   3431           02818         retlw   0x31
0853   3430           02819         retlw   0x30
0854   3420           02820         retlw   0x20
0855   3420           02821         retlw   0x20
0856   3420           02822         retlw   0x20
0857   3431           02823         retlw   0x31
0858   3433           02824         retlw   0x33
0859   342E           02825         retlw   0x2e
085A   3430           02826         retlw   0x30
085B   3431           02827         retlw   0x31
085C   342E           02828         retlw   0x2e
085D   3431           02829         retlw   0x31
085E   3431           02830         retlw   0x31
085F   3400           02831         retlw   0x00
0860   3400           02832         retlw   0x00
0861   3444           02833         retlw   0x44
0862   344C           02834         retlw   0x4c
0863   342D           02835         retlw   0x2d
0864   3451           02836         retlw   0x51
0865   3452           02837         retlw   0x52
0866   3450           02838         retlw   0x50
0867   342D           02839         retlw   0x2d
0868   3441           02840         retlw   0x41
0869   3447           02841         retlw   0x47
086A   3420           02842         retlw   0x20
086B   3455           02843         retlw   0x55
086C   346E           02844         retlw   0x6e
086D   3469           02845         retlw   0x69
086E   3444           02846         retlw   0x44
086F   3444           02847         retlw   0x44
0870   3453           02848         retlw   0x53
0871   3400           02849         retlw   0x00
0872   3400           02850         retlw   0x00
gpasm-1.5.0 #1285 (Jan 23 2020) unidds_v1_10.   27.01.2020  22:56:48        PAGE 55


LOC    OBJECT CODE    LINE  SOURCE TEXT
  VALUE

0873   3444           02851         retlw   0x44
0874   3444           02852         retlw   0x44
0875   3453           02853         retlw   0x53
0876   342D           02854         retlw   0x2d
0877   3456           02855         retlw   0x56
0878   3446           02856         retlw   0x46
0879   344F           02857         retlw   0x4f
087A   3428           02858         retlw   0x28
087B   3463           02859         retlw   0x63
087C   3429           02860         retlw   0x29
087D   3444           02861         retlw   0x44
087E   344C           02862         retlw   0x4c
087F   3434           02863         retlw   0x34
0880   344A           02864         retlw   0x4a
0881   3441           02865         retlw   0x41
0882   344C           02866         retlw   0x4c
0883   3400           02867         retlw   0x00
0884   3400           02868         retlw   0x00
0885   3453           02869         retlw   0x53
0886   3457           02870         retlw   0x57
0887   3452           02871         retlw   0x52
0888   343A           02872         retlw   0x3a
0889   3420           02873         retlw   0x20
088A   3400           02874         retlw   0x00
088B   3440           02875         retlw   0x40
088C   3457           02876         retlw   0x57
088D   3470           02877         retlw   0x70
088E   344D           02878         retlw   0x4d
088F   343A           02879         retlw   0x3a
0890   3420           02880         retlw   0x20
0891   3400           02881         retlw   0x00
0892   3400           02882         retlw   0x00
0893   344D           02883         retlw   0x4d
0894   3465           02884         retlw   0x65
0895   346E           02885         retlw   0x6e
0896   3475           02886         retlw   0x75
0897   3400           02887         retlw   0x00
0898   3440           02888         retlw   0x40
0899   3473           02889         retlw   0x73
089A   3463           02890         retlw   0x63
089B   3461           02891         retlw   0x61
089C   346E           02892         retlw   0x6e
089D   346E           02893         retlw   0x6e
089E   3469           02894         retlw   0x69
089F   346E           02895         retlw   0x6e
08A0   3467           02896         retlw   0x67
08A1   3400           02897         retlw   0x00
08A2   3440           02898         retlw   0x40
08A3   3462           02899         retlw   0x62
08A4   3472           02900         retlw   0x72
08A5   3465           02901         retlw   0x65
08A6   3461           02902         retlw   0x61
08A7   346B           02903         retlw   0x6b
gpasm-1.5.0 #1285 (Jan 23 2020) unidds_v1_10.   27.01.2020  22:56:48        PAGE 56


LOC    OBJECT CODE    LINE  SOURCE TEXT
  VALUE

08A8   3420           02904         retlw   0x20
08A9   3420           02905         retlw   0x20
08AA   3420           02906         retlw   0x20
08AB   3400           02907         retlw   0x00
08AC   3409           02908         retlw   0x09
08AD   3473           02909         retlw   0x73
08AE   3461           02910         retlw   0x61
08AF   3476           02911         retlw   0x76
08B0   3465           02912         retlw   0x65
08B1   3420           02913         retlw   0x20
08B2   3420           02914         retlw   0x20
08B3   3420           02915         retlw   0x20
08B4   3400           02916         retlw   0x00
08B5   3409           02917         retlw   0x09
08B6   3463           02918         retlw   0x63
08B7   3461           02919         retlw   0x61
08B8   346E           02920         retlw   0x6e
08B9   3463           02921         retlw   0x63
08BA   3465           02922         retlw   0x65
08BB   346C           02923         retlw   0x6c
08BC   3420           02924         retlw   0x20
08BD   3400           02925         retlw   0x00
08BE   3400           02926         retlw   0x00
08BF   3453           02927         retlw   0x53
08C0   343D           02928         retlw   0x3d
08C1   3430           02929         retlw   0x30
08C2   3420           02930         retlw   0x20
08C3   3420           02931         retlw   0x20
08C4   3430           02932         retlw   0x30
08C5   3420           02933         retlw   0x20
08C6   3475           02934         retlw   0x75
08C7   3456           02935         retlw   0x56
08C8   3420           02936         retlw   0x20
08C9   3420           02937         retlw   0x20
08CA   3420           02938         retlw   0x20
08CB   3428           02939         retlw   0x28
08CC   346F           02940         retlw   0x6f
08CD   346B           02941         retlw   0x6b
08CE   3429           02942         retlw   0x29
08CF   3400           02943         retlw   0x00
08D0   3400           02944         retlw   0x00
08D1   3453           02945         retlw   0x53
08D2   343D           02946         retlw   0x3d
08D3   3439           02947         retlw   0x39
08D4   3420           02948         retlw   0x20
08D5   3435           02949         retlw   0x35
08D6   3430           02950         retlw   0x30
08D7   3420           02951         retlw   0x20
08D8   3475           02952         retlw   0x75
08D9   3456           02953         retlw   0x56
08DA   3420           02954         retlw   0x20
08DB   3420           02955         retlw   0x20
08DC   3420           02956         retlw   0x20
gpasm-1.5.0 #1285 (Jan 23 2020) unidds_v1_10.   27.01.2020  22:56:48        PAGE 57


LOC    OBJECT CODE    LINE  SOURCE TEXT
  VALUE

08DD   3428           02957         retlw   0x28
08DE   346F           02958         retlw   0x6f
08DF   346B           02959         retlw   0x6b
08E0   3429           02960         retlw   0x29
08E1   3400           02961         retlw   0x00
08E2   3440           02962         retlw   0x40
08E3   3420           02963         retlw   0x20
08E4   3420           02964         retlw   0x20
08E5   3420           02965         retlw   0x20
08E6   3456           02966         retlw   0x56
08E7   3446           02967         retlw   0x46
08E8   344F           02968         retlw   0x4f
08E9   342B           02969         retlw   0x2b
08EA   345A           02970         retlw   0x5a
08EB   3446           02971         retlw   0x46
08EC   3420           02972         retlw   0x20
08ED   3420           02973         retlw   0x20
08EE   3420           02974         retlw   0x20
08EF   3420           02975         retlw   0x20
08F0   3420           02976         retlw   0x20
08F1   3420           02977         retlw   0x20
08F2   3420           02978         retlw   0x20
08F3   3400           02979         retlw   0x00
08F4   3440           02980         retlw   0x40
08F5   3420           02981         retlw   0x20
08F6   3420           02982         retlw   0x20
08F7   3420           02983         retlw   0x20
08F8   3456           02984         retlw   0x56
08F9   3446           02985         retlw   0x46
08FA   344F           02986         retlw   0x4f
08FB   342D           02987         retlw   0x2d
08FC   345A           02988         retlw   0x5a
08FD   3446           02989         retlw   0x46
08FE   3420           02990         retlw   0x20
08FF   3420           02991         retlw   0x20
0900   3420           02992         retlw   0x20
0901   3420           02993         retlw   0x20
0902   3420           02994         retlw   0x20
0903   3420           02995         retlw   0x20
0904   3420           02996         retlw   0x20
0905   3400           02997         retlw   0x00
0906   3400           02998         retlw   0x00
0907   3466           02999         retlw   0x66
0908   3469           03000         retlw   0x69
0909   3472           03001         retlw   0x72
090A   3473           03002         retlw   0x73
090B   3474           03003         retlw   0x74
090C   3420           03004         retlw   0x20
090D   3469           03005         retlw   0x69
090E   346E           03006         retlw   0x6e
090F   3469           03007         retlw   0x69
0910   3474           03008         retlw   0x74
0911   3420           03009         retlw   0x20
gpasm-1.5.0 #1285 (Jan 23 2020) unidds_v1_10.   27.01.2020  22:56:48        PAGE 58


LOC    OBJECT CODE    LINE  SOURCE TEXT
  VALUE

0912   3420           03010         retlw   0x20
0913   3420           03011         retlw   0x20
0914   3420           03012         retlw   0x20
0915   3420           03013         retlw   0x20
0916   3420           03014         retlw   0x20
0917   3400           03015         retlw   0x00
0918   3440           03016         retlw   0x40
0919   3470           03017         retlw   0x70
091A   346C           03018         retlw   0x6c
091B   3465           03019         retlw   0x65
091C   3461           03020         retlw   0x61
091D   3473           03021         retlw   0x73
091E   3465           03022         retlw   0x65
091F   3420           03023         retlw   0x20
0920   3469           03024         retlw   0x69
0921   346E           03025         retlw   0x6e
0922   3470           03026         retlw   0x70
0923   3475           03027         retlw   0x75
0924   3474           03028         retlw   0x74
0925   3420           03029         retlw   0x20
0926   346E           03030         retlw   0x6e
0927   3472           03031         retlw   0x72
0928   3421           03032         retlw   0x21
0929   3400           03033         retlw   0x00
092A   3400           03034         retlw   0x00
092B   3474           03035         retlw   0x74
092C   3475           03036         retlw   0x75
092D   346E           03037         retlw   0x6e
092E   3469           03038         retlw   0x69
092F   346E           03039         retlw   0x6e
0930   3467           03040         retlw   0x67
0931   3420           03041         retlw   0x20
0932   3420           03042         retlw   0x20
0933   3420           03043         retlw   0x20
0934   3420           03044         retlw   0x20
0935   3420           03045         retlw   0x20
0936   3420           03046         retlw   0x20
0937   3420           03047         retlw   0x20
0938   3420           03048         retlw   0x20
0939   3420           03049         retlw   0x20
093A   3420           03050         retlw   0x20
093B   3400           03051         retlw   0x00
093C   3440           03052         retlw   0x40
093D   3420           03053         retlw   0x20
093E   3420           03054         retlw   0x20
093F   3420           03055         retlw   0x20
0940   346F           03056         retlw   0x6f
0941   346E           03057         retlw   0x6e
0942   3420           03058         retlw   0x20
0943   3420           03059         retlw   0x20
0944   3420           03060         retlw   0x20
0945   3420           03061         retlw   0x20
0946   3420           03062         retlw   0x20
gpasm-1.5.0 #1285 (Jan 23 2020) unidds_v1_10.   27.01.2020  22:56:48        PAGE 59


LOC    OBJECT CODE    LINE  SOURCE TEXT
  VALUE

0947   3420           03063         retlw   0x20
0948   3420           03064         retlw   0x20
0949   3420           03065         retlw   0x20
094A   3420           03066         retlw   0x20
094B   3420           03067         retlw   0x20
094C   3420           03068         retlw   0x20
094D   3400           03069         retlw   0x00
094E   3440           03070         retlw   0x40
094F   3420           03071         retlw   0x20
0950   3420           03072         retlw   0x20
0951   3420           03073         retlw   0x20
0952   346F           03074         retlw   0x6f
0953   3466           03075         retlw   0x66
0954   3466           03076         retlw   0x66
0955   3420           03077         retlw   0x20
0956   3420           03078         retlw   0x20
0957   3420           03079         retlw   0x20
0958   3420           03080         retlw   0x20
0959   3420           03081         retlw   0x20
095A   3420           03082         retlw   0x20
095B   3420           03083         retlw   0x20
095C   3420           03084         retlw   0x20
095D   3420           03085         retlw   0x20
095E   3420           03086         retlw   0x20
095F   3400           03087         retlw   0x00
0960   3400           03088         retlw   0x00
0961   3420           03089         retlw   0x20
0962   3430           03090         retlw   0x30
0963   3420           03091         retlw   0x20
0964   3462           03092         retlw   0x62
0965   3472           03093         retlw   0x72
0966   3465           03094         retlw   0x65
0967   3461           03095         retlw   0x61
0968   346B           03096         retlw   0x6b
0969   3420           03097         retlw   0x20
096A   3420           03098         retlw   0x20
096B   3420           03099         retlw   0x20
096C   3420           03100         retlw   0x20
096D   3420           03101         retlw   0x20
096E   3420           03102         retlw   0x20
096F   3420           03103         retlw   0x20
0970   3420           03104         retlw   0x20
0971   3400           03105         retlw   0x00
0972   3400           03106         retlw   0x00
0973   3420           03107         retlw   0x20
0974   3431           03108         retlw   0x31
0975   3420           03109         retlw   0x20
0976   3456           03110         retlw   0x56
0977   3446           03111         retlw   0x46
0978   344F           03112         retlw   0x4f
0979   3420           03113         retlw   0x20
097A   3441           03114         retlw   0x41
097B   342F           03115         retlw   0x2f
gpasm-1.5.0 #1285 (Jan 23 2020) unidds_v1_10.   27.01.2020  22:56:48        PAGE 60


LOC    OBJECT CODE    LINE  SOURCE TEXT
  VALUE

097C   3442           03116         retlw   0x42
097D   3420           03117         retlw   0x20
097E   3420           03118         retlw   0x20
097F   3420           03119         retlw   0x20
0980   3420           03120         retlw   0x20
0981   3420           03121         retlw   0x20
0982   3420           03122         retlw   0x20
0983   3400           03123         retlw   0x00
0984   3400           03124         retlw   0x00
0985   3420           03125         retlw   0x20
0986   3432           03126         retlw   0x32
0987   3420           03127         retlw   0x20
0988   346C           03128         retlw   0x6c
0989   3469           03129         retlw   0x69
098A   3467           03130         retlw   0x67
098B   3468           03131         retlw   0x68
098C   3474           03132         retlw   0x74
098D   3420           03133         retlw   0x20
098E   346F           03134         retlw   0x6f
098F   346E           03135         retlw   0x6e
0990   342F           03136         retlw   0x2f
0991   346F           03137         retlw   0x6f
0992   3466           03138         retlw   0x66
0993   3466           03139         retlw   0x66
0994   3420           03140         retlw   0x20
0995   3400           03141         retlw   0x00
0996   3400           03142         retlw   0x00
0997   3420           03143         retlw   0x20
0998   3433           03144         retlw   0x33
0999   3420           03145         retlw   0x20
099A   346C           03146         retlw   0x6c
099B   3469           03147         retlw   0x69
099C   3467           03148         retlw   0x67
099D   3468           03149         retlw   0x68
099E   3474           03150         retlw   0x74
099F   3420           03151         retlw   0x20
09A0   3461           03152         retlw   0x61
09A1   3475           03153         retlw   0x75
09A2   3474           03154         retlw   0x74
09A3   346F           03155         retlw   0x6f
09A4   3420           03156         retlw   0x20
09A5   3420           03157         retlw   0x20
09A6   3420           03158         retlw   0x20
09A7   3400           03159         retlw   0x00
09A8   3400           03160         retlw   0x00
09A9   3420           03161         retlw   0x20
09AA   3434           03162         retlw   0x34
09AB   3420           03163         retlw   0x20
09AC   3473           03164         retlw   0x73
09AD   3463           03165         retlw   0x63
09AE   3461           03166         retlw   0x61
09AF   346E           03167         retlw   0x6e
09B0   3420           03168         retlw   0x20
gpasm-1.5.0 #1285 (Jan 23 2020) unidds_v1_10.   27.01.2020  22:56:48        PAGE 61


LOC    OBJECT CODE    LINE  SOURCE TEXT
  VALUE

09B1   3420           03169         retlw   0x20
09B2   3420           03170         retlw   0x20
09B3   3420           03171         retlw   0x20
09B4   3420           03172         retlw   0x20
09B5   3420           03173         retlw   0x20
09B6   3420           03174         retlw   0x20
09B7   3420           03175         retlw   0x20
09B8   3420           03176         retlw   0x20
09B9   3400           03177         retlw   0x00
09BA   3400           03178         retlw   0x00
09BB   3420           03179         retlw   0x20
09BC   3435           03180         retlw   0x35
09BD   3420           03181         retlw   0x20
09BE   3453           03182         retlw   0x53
09BF   3445           03183         retlw   0x45
09C0   3454           03184         retlw   0x54
09C1   3455           03185         retlw   0x55
09C2   3450           03186         retlw   0x50
09C3   3420           03187         retlw   0x20
09C4   3420           03188         retlw   0x20
09C5   3420           03189         retlw   0x20
09C6   3420           03190         retlw   0x20
09C7   3420           03191         retlw   0x20
09C8   3420           03192         retlw   0x20
09C9   3420           03193         retlw   0x20
09CA   3420           03194         retlw   0x20
09CB   3400           03195         retlw   0x00
09CC   3400           03196         retlw   0x00
09CD   3420           03197         retlw   0x20
09CE   3436           03198         retlw   0x36
09CF   3420           03199         retlw   0x20
09D0   346B           03200         retlw   0x6b
09D1   3465           03201         retlw   0x65
09D2   3479           03202         retlw   0x79
09D3   3465           03203         retlw   0x65
09D4   3472           03204         retlw   0x72
09D5   3420           03205         retlw   0x20
09D6   3420           03206         retlw   0x20
09D7   3420           03207         retlw   0x20
09D8   3420           03208         retlw   0x20
09D9   3420           03209         retlw   0x20
09DA   3420           03210         retlw   0x20
09DB   3420           03211         retlw   0x20
09DC   3420           03212         retlw   0x20
09DD   3400           03213         retlw   0x00
09DE   3400           03214         retlw   0x00
09DF   3420           03215         retlw   0x20
09E0   3437           03216         retlw   0x37
09E1   3420           03217         retlw   0x20
09E2   3474           03218         retlw   0x74
09E3   3475           03219         retlw   0x75
09E4   346E           03220         retlw   0x6e
09E5   3465           03221         retlw   0x65
gpasm-1.5.0 #1285 (Jan 23 2020) unidds_v1_10.   27.01.2020  22:56:48        PAGE 62


LOC    OBJECT CODE    LINE  SOURCE TEXT
  VALUE

09E6   3420           03222         retlw   0x20
09E7   3420           03223         retlw   0x20
09E8   3420           03224         retlw   0x20
09E9   3420           03225         retlw   0x20
09EA   3420           03226         retlw   0x20
09EB   3420           03227         retlw   0x20
09EC   3420           03228         retlw   0x20
09ED   3420           03229         retlw   0x20
09EE   3420           03230         retlw   0x20
09EF   3400           03231         retlw   0x00
09F0   3400           03232         retlw   0x00
09F1   3420           03233         retlw   0x20
09F2   3438           03234         retlw   0x38
09F3   3420           03235         retlw   0x20
09F4   3478           03236         retlw   0x78
09F5   3469           03237         retlw   0x69
09F6   3474           03238         retlw   0x74
09F7   3420           03239         retlw   0x20
09F8   3431           03240         retlw   0x31
09F9   346B           03241         retlw   0x6b
09FA   3420           03242         retlw   0x20
09FB   3420           03243         retlw   0x20
09FC   3420           03244         retlw   0x20
09FD   3420           03245         retlw   0x20
09FE   3420           03246         retlw   0x20
09FF   3420           03247         retlw   0x20
0A00   3420           03248         retlw   0x20
0A01   3400           03249         retlw   0x00
0A02   3400           03250         retlw   0x00
0A03   3420           03251         retlw   0x20
0A04   3439           03252         retlw   0x39
0A05   3420           03253         retlw   0x20
0A06   3478           03254         retlw   0x78
0A07   3469           03255         retlw   0x69
0A08   3474           03256         retlw   0x74
0A09   3420           03257         retlw   0x20
0A0A   3432           03258         retlw   0x32
0A0B   346B           03259         retlw   0x6b
0A0C   3420           03260         retlw   0x20
0A0D   3420           03261         retlw   0x20
0A0E   3420           03262         retlw   0x20
0A0F   3420           03263         retlw   0x20
0A10   3420           03264         retlw   0x20
0A11   3420           03265         retlw   0x20
0A12   3420           03266         retlw   0x20
0A13   3400           03267         retlw   0x00
0A14   3400           03268         retlw   0x00
0A15   3431           03269         retlw   0x31
0A16   3430           03270         retlw   0x30
0A17   3420           03271         retlw   0x20
0A18   3472           03272         retlw   0x72
0A19   3469           03273         retlw   0x69
0A1A   3474           03274         retlw   0x74
gpasm-1.5.0 #1285 (Jan 23 2020) unidds_v1_10.   27.01.2020  22:56:48        PAGE 63


LOC    OBJECT CODE    LINE  SOURCE TEXT
  VALUE

0A1B   3420           03275         retlw   0x20
0A1C   3420           03276         retlw   0x20
0A1D   3420           03277         retlw   0x20
0A1E   3420           03278         retlw   0x20
0A1F   3420           03279         retlw   0x20
0A20   3420           03280         retlw   0x20
0A21   3420           03281         retlw   0x20
0A22   3420           03282         retlw   0x20
0A23   3420           03283         retlw   0x20
0A24   3420           03284         retlw   0x20
0A25   3400           03285         retlw   0x00
0A26   3400           03286         retlw   0x00
0A27   3420           03287         retlw   0x20
0A28   3430           03288         retlw   0x30
0A29   3420           03289         retlw   0x20
0A2A   3453           03290         retlw   0x53
0A2B   3465           03291         retlw   0x65
0A2C   3474           03292         retlw   0x74
0A2D   3475           03293         retlw   0x75
0A2E   3470           03294         retlw   0x70
0A2F   3420           03295         retlw   0x20
0A30   3462           03296         retlw   0x62
0A31   3472           03297         retlw   0x72
0A32   3465           03298         retlw   0x65
0A33   3461           03299         retlw   0x61
0A34   346B           03300         retlw   0x6b
0A35   3420           03301         retlw   0x20
0A36   3420           03302         retlw   0x20
0A37   3400           03303         retlw   0x00
0A38   3400           03304         retlw   0x00
0A39   3420           03305         retlw   0x20
0A3A   3431           03306         retlw   0x31
0A3B   3420           03307         retlw   0x20
0A3C   3444           03308         retlw   0x44
0A3D   3444           03309         retlw   0x44
0A3E   3453           03310         retlw   0x53
0A3F   342D           03311         retlw   0x2d
0A40   3454           03312         retlw   0x54
0A41   3461           03313         retlw   0x61
0A42   346B           03314         retlw   0x6b
0A43   3474           03315         retlw   0x74
0A44   3420           03316         retlw   0x20
0A45   3420           03317         retlw   0x20
0A46   3420           03318         retlw   0x20
0A47   3420           03319         retlw   0x20
0A48   3420           03320         retlw   0x20
0A49   3400           03321         retlw   0x00
0A4A   3400           03322         retlw   0x00
0A4B   3420           03323         retlw   0x20
0A4C   3432           03324         retlw   0x32
0A4D   3420           03325         retlw   0x20
0A4E   3456           03326         retlw   0x56
0A4F   3446           03327         retlw   0x46
gpasm-1.5.0 #1285 (Jan 23 2020) unidds_v1_10.   27.01.2020  22:56:48        PAGE 64


LOC    OBJECT CODE    LINE  SOURCE TEXT
  VALUE

0A50   344F           03328         retlw   0x4f
0A51   342D           03329         retlw   0x2d
0A52   3441           03330         retlw   0x41
0A53   3420           03331         retlw   0x20
0A54   3428           03332         retlw   0x28
0A55   3448           03333         retlw   0x48
0A56   347A           03334         retlw   0x7a
0A57   3429           03335         retlw   0x29
0A58   3420           03336         retlw   0x20
0A59   3420           03337         retlw   0x20
0A5A   3420           03338         retlw   0x20
0A5B   3400           03339         retlw   0x00
0A5C   3400           03340         retlw   0x00
0A5D   3420           03341         retlw   0x20
0A5E   3433           03342         retlw   0x33
0A5F   3420           03343         retlw   0x20
0A60   3456           03344         retlw   0x56
0A61   3446           03345         retlw   0x46
0A62   344F           03346         retlw   0x4f
0A63   342D           03347         retlw   0x2d
0A64   3442           03348         retlw   0x42
0A65   3420           03349         retlw   0x20
0A66   3428           03350         retlw   0x28
0A67   3448           03351         retlw   0x48
0A68   347A           03352         retlw   0x7a
0A69   3429           03353         retlw   0x29
0A6A   3420           03354         retlw   0x20
0A6B   3420           03355         retlw   0x20
0A6C   3420           03356         retlw   0x20
0A6D   3400           03357         retlw   0x00
0A6E   3400           03358         retlw   0x00
0A6F   3420           03359         retlw   0x20
0A70   3434           03360         retlw   0x34
0A71   3420           03361         retlw   0x20
0A72   345A           03362         retlw   0x5a
0A73   3446           03363         retlw   0x46
0A74   3420           03364         retlw   0x20
0A75   3428           03365         retlw   0x28
0A76   3448           03366         retlw   0x48
0A77   347A           03367         retlw   0x7a
0A78   3429           03368         retlw   0x29
0A79   3420           03369         retlw   0x20
0A7A   3420           03370         retlw   0x20
0A7B   3420           03371         retlw   0x20
0A7C   3420           03372         retlw   0x20
0A7D   3420           03373         retlw   0x20
0A7E   3420           03374         retlw   0x20
0A7F   3400           03375         retlw   0x00
0A80   3400           03376         retlw   0x00
0A81   3420           03377         retlw   0x20
0A82   3435           03378         retlw   0x35
0A83   3420           03379         retlw   0x20
0A84   3473           03380         retlw   0x73
gpasm-1.5.0 #1285 (Jan 23 2020) unidds_v1_10.   27.01.2020  22:56:48        PAGE 65


LOC    OBJECT CODE    LINE  SOURCE TEXT
  VALUE

0A85   3463           03381         retlw   0x63
0A86   3461           03382         retlw   0x61
0A87   346E           03383         retlw   0x6e
0A88   342D           03384         retlw   0x2d
0A89   3462           03385         retlw   0x62
0A8A   3465           03386         retlw   0x65
0A8B   3467           03387         retlw   0x67
0A8C   3469           03388         retlw   0x69
0A8D   346E           03389         retlw   0x6e
0A8E   3420           03390         retlw   0x20
0A8F   3420           03391         retlw   0x20
0A90   3420           03392         retlw   0x20
0A91   3400           03393         retlw   0x00
0A92   3400           03394         retlw   0x00
0A93   3420           03395         retlw   0x20
0A94   3436           03396         retlw   0x36
0A95   3420           03397         retlw   0x20
0A96   3473           03398         retlw   0x73
0A97   3463           03399         retlw   0x63
0A98   3461           03400         retlw   0x61
0A99   346E           03401         retlw   0x6e
0A9A   342D           03402         retlw   0x2d
0A9B   3465           03403         retlw   0x65
0A9C   346E           03404         retlw   0x6e
0A9D   3464           03405         retlw   0x64
0A9E   3420           03406         retlw   0x20
0A9F   3420           03407         retlw   0x20
0AA0   3420           03408         retlw   0x20
0AA1   3420           03409         retlw   0x20
0AA2   3420           03410         retlw   0x20
0AA3   3400           03411         retlw   0x00
0AA4   3400           03412         retlw   0x00
0AA5   3420           03413         retlw   0x20
0AA6   3437           03414         retlw   0x37
0AA7   3420           03415         retlw   0x20
0AA8   3453           03416         retlw   0x53
0AA9   342D           03417         retlw   0x2d
0AAA   344D           03418         retlw   0x4d
0AAB   3465           03419         retlw   0x65
0AAC   3474           03420         retlw   0x74
0AAD   3465           03421         retlw   0x65
0AAE   3472           03422         retlw   0x72
0AAF   3420           03423         retlw   0x20
0AB0   3465           03424         retlw   0x65
0AB1   3469           03425         retlw   0x69
0AB2   3463           03426         retlw   0x63
0AB3   3468           03427         retlw   0x68
0AB4   342E           03428         retlw   0x2e
0AB5   3400           03429         retlw   0x00
0AB6   3400           03430         retlw   0x00
0AB7   3420           03431         retlw   0x20
0AB8   3438           03432         retlw   0x38
0AB9   3420           03433         retlw   0x20
gpasm-1.5.0 #1285 (Jan 23 2020) unidds_v1_10.   27.01.2020  22:56:48        PAGE 66


LOC    OBJECT CODE    LINE  SOURCE TEXT
  VALUE

0ABA   3456           03434         retlw   0x56
0ABB   3446           03435         retlw   0x46
0ABC   344F           03436         retlw   0x4f
0ABD   3420           03437         retlw   0x20
0ABE   342B           03438         retlw   0x2b
0ABF   342F           03439         retlw   0x2f
0AC0   342D           03440         retlw   0x2d
0AC1   3420           03441         retlw   0x20
0AC2   345A           03442         retlw   0x5a
0AC3   3446           03443         retlw   0x46
0AC4   3420           03444         retlw   0x20
0AC5   3420           03445         retlw   0x20
0AC6   3420           03446         retlw   0x20
0AC7   3400           03447         retlw   0x00
0AC8   3400           03448         retlw   0x00
0AC9   3420           03449         retlw   0x20
0ACA   3439           03450         retlw   0x39
0ACB   3420           03451         retlw   0x20
0ACC   3454           03452         retlw   0x54
0ACD   3458           03453         retlw   0x58
0ACE   3420           03454         retlw   0x20
0ACF   342B           03455         retlw   0x2b
0AD0   342F           03456         retlw   0x2f
0AD1   342D           03457         retlw   0x2d
0AD2   3420           03458         retlw   0x20
0AD3   345A           03459         retlw   0x5a
0AD4   3446           03460         retlw   0x46
0AD5   3420           03461         retlw   0x20
0AD6   3420           03462         retlw   0x20
0AD7   3420           03463         retlw   0x20
0AD8   3420           03464         retlw   0x20
0AD9   3400           03465         retlw   0x00
0ADA   3400           03466         retlw   0x00
0ADB   3431           03467         retlw   0x31
0ADC   3430           03468         retlw   0x30
0ADD   3420           03469         retlw   0x20
0ADE   3431           03470         retlw   0x31
0ADF   3430           03471         retlw   0x30
0AE0   3430           03472         retlw   0x30
0AE1   346B           03473         retlw   0x6b
0AE2   3448           03474         retlw   0x48
0AE3   347A           03475         retlw   0x7a
0AE4   3420           03476         retlw   0x20
0AE5   3473           03477         retlw   0x73
0AE6   3474           03478         retlw   0x74
0AE7   3465           03479         retlw   0x65
0AE8   3470           03480         retlw   0x70
0AE9   3420           03481         retlw   0x20
0AEA   3420           03482         retlw   0x20
0AEB   3400           03483         retlw   0x00
0AEC   3400           03484         retlw   0x00
0AED   3431           03485         retlw   0x31
0AEE   3431           03486         retlw   0x31
gpasm-1.5.0 #1285 (Jan 23 2020) unidds_v1_10.   27.01.2020  22:56:48        PAGE 67


LOC    OBJECT CODE    LINE  SOURCE TEXT
  VALUE

0AEF   3420           03487         retlw   0x20
0AF0   3464           03488         retlw   0x64
0AF1   3465           03489         retlw   0x65
0AF2   3466           03490         retlw   0x66
0AF3   342E           03491         retlw   0x2e
0AF4   3420           03492         retlw   0x20
0AF5   3463           03493         retlw   0x63
0AF6   346F           03494         retlw   0x6f
0AF7   346E           03495         retlw   0x6e
0AF8   3466           03496         retlw   0x66
0AF9   3469           03497         retlw   0x69
0AFA   3467           03498         retlw   0x67
0AFB   3420           03499         retlw   0x20
0AFC   3420           03500         retlw   0x20
0AFD   3400           03501         retlw   0x00
0AFE   3EFF           03502         addlw   0xff
0AFF   3EFF           03503         addlw   0xff
0B00   3EFF           03504         addlw   0xff
0B01   3EFF           03505         addlw   0xff
0B02   3EFF           03506         addlw   0xff
0B03   3EFF           03507         addlw   0xff
0B04   3EFF           03508         addlw   0xff
0B05   3EFF           03509         addlw   0xff
0B06   3EFF           03510         addlw   0xff
0B07   3EFF           03511         addlw   0xff
0B08   3EFF           03512         addlw   0xff
0B09   3EFF           03513         addlw   0xff
0B0A   3EFF           03514         addlw   0xff
0B0B   3EFF           03515         addlw   0xff
0B0C   3EFF           03516         addlw   0xff
0B0D   3EFF           03517         addlw   0xff
0B0E   3EFF           03518         addlw   0xff
0B0F   3EFF           03519         addlw   0xff
0B10   3EFF           03520         addlw   0xff
0B11   3EFF           03521         addlw   0xff
0B12   3EFF           03522         addlw   0xff
0B13   3EFF           03523         addlw   0xff
0B14   3EFF           03524         addlw   0xff
0B15   3EFF           03525         addlw   0xff
0B16   3EFF           03526         addlw   0xff
0B17   3EFF           03527         addlw   0xff
0B18   3EFF           03528         addlw   0xff
0B19   3EFF           03529         addlw   0xff
0B1A   3EFF           03530         addlw   0xff
0B1B   3EFF           03531         addlw   0xff
0B1C   3EFF           03532         addlw   0xff
0B1D   3EFF           03533         addlw   0xff
0B1E   3EFF           03534         addlw   0xff
0B1F   3EFF           03535         addlw   0xff
0B20   3EFF           03536         addlw   0xff
0B21   3EFF           03537         addlw   0xff
0B22   3EFF           03538         addlw   0xff
0B23   3EFF           03539         addlw   0xff
gpasm-1.5.0 #1285 (Jan 23 2020) unidds_v1_10.   27.01.2020  22:56:48        PAGE 68


LOC    OBJECT CODE    LINE  SOURCE TEXT
  VALUE

0B24   3EFF           03540         addlw   0xff
0B25   3EFF           03541         addlw   0xff
0B26   3EFF           03542         addlw   0xff
0B27   3EFF           03543         addlw   0xff
0B28   3EFF           03544         addlw   0xff
0B29   3EFF           03545         addlw   0xff
0B2A   3EFF           03546         addlw   0xff
0B2B   3EFF           03547         addlw   0xff
0B2C   3EFF           03548         addlw   0xff
0B2D   3EFF           03549         addlw   0xff
0B2E   3EFF           03550         addlw   0xff
0B2F   3EFF           03551         addlw   0xff
0B30   3EFF           03552         addlw   0xff
0B31   3EFF           03553         addlw   0xff
0B32   3EFF           03554         addlw   0xff
0B33   3EFF           03555         addlw   0xff
0B34   3EFF           03556         addlw   0xff
0B35   3EFF           03557         addlw   0xff
0B36   3EFF           03558         addlw   0xff
0B37   3EFF           03559         addlw   0xff
0B38   3EFF           03560         addlw   0xff
0B39   3EFF           03561         addlw   0xff
0B3A   3EFF           03562         addlw   0xff
0B3B   3EFF           03563         addlw   0xff
0B3C   3EFF           03564         addlw   0xff
0B3D   3EFF           03565         addlw   0xff
0B3E   3EFF           03566         addlw   0xff
0B3F   3EFF           03567         addlw   0xff
0B40   3EFF           03568         addlw   0xff
0B41   3EFF           03569         addlw   0xff
0B42   3EFF           03570         addlw   0xff
0B43   3EFF           03571         addlw   0xff
0B44   3EFF           03572         addlw   0xff
0B45   3EFF           03573         addlw   0xff
0B46   3EFF           03574         addlw   0xff
0B47   3EFF           03575         addlw   0xff
0B48   3EFF           03576         addlw   0xff
0B49   3EFF           03577         addlw   0xff
0B4A   3EFF           03578         addlw   0xff
0B4B   3EFF           03579         addlw   0xff
0B4C   3EFF           03580         addlw   0xff
0B4D   3EFF           03581         addlw   0xff
0B4E   3EFF           03582         addlw   0xff
0B4F   3EFF           03583         addlw   0xff
0B50   3EFF           03584         addlw   0xff
0B51   3EFF           03585         addlw   0xff
0B52   3EFF           03586         addlw   0xff
0B53   3EFF           03587         addlw   0xff
0B54   3EFF           03588         addlw   0xff
0B55   3EFF           03589         addlw   0xff
0B56   3EFF           03590         addlw   0xff
0B57   3EFF           03591         addlw   0xff
0B58   3EFF           03592         addlw   0xff
gpasm-1.5.0 #1285 (Jan 23 2020) unidds_v1_10.   27.01.2020  22:56:48        PAGE 69


LOC    OBJECT CODE    LINE  SOURCE TEXT
  VALUE

0B59   3EFF           03593         addlw   0xff
0B5A   3EFF           03594         addlw   0xff
0B5B   3EFF           03595         addlw   0xff
0B5C   3EFF           03596         addlw   0xff
0B5D   3EFF           03597         addlw   0xff
0B5E   3EFF           03598         addlw   0xff
0B5F   3EFF           03599         addlw   0xff
0B60   3EFF           03600         addlw   0xff
0B61   3EFF           03601         addlw   0xff
0B62   3EFF           03602         addlw   0xff
0B63   3EFF           03603         addlw   0xff
0B64   3EFF           03604         addlw   0xff
0B65   3EFF           03605         addlw   0xff
0B66   3EFF           03606         addlw   0xff
0B67   3EFF           03607         addlw   0xff
0B68   3EFF           03608         addlw   0xff
0B69   3EFF           03609         addlw   0xff
0B6A   3EFF           03610         addlw   0xff
0B6B   3EFF           03611         addlw   0xff
0B6C   3EFF           03612         addlw   0xff
0B6D   3EFF           03613         addlw   0xff
0B6E   3EFF           03614         addlw   0xff
0B6F   3EFF           03615         addlw   0xff
0B70   3EFF           03616         addlw   0xff
0B71   3EFF           03617         addlw   0xff
0B72   3EFF           03618         addlw   0xff
0B73   3EFF           03619         addlw   0xff
0B74   3EFF           03620         addlw   0xff
0B75   3EFF           03621         addlw   0xff
0B76   3EFF           03622         addlw   0xff
0B77   3EFF           03623         addlw   0xff
0B78   3EFF           03624         addlw   0xff
0B79   3EFF           03625         addlw   0xff
0B7A   3EFF           03626         addlw   0xff
0B7B   3EFF           03627         addlw   0xff
0B7C   3EFF           03628         addlw   0xff
0B7D   3EFF           03629         addlw   0xff
0B7E   3EFF           03630         addlw   0xff
0B7F   3EFF           03631         addlw   0xff
0B80   3EFF           03632         addlw   0xff
0B81   3EFF           03633         addlw   0xff
0B82   3EFF           03634         addlw   0xff
0B83   3EFF           03635         addlw   0xff
0B84   3EFF           03636         addlw   0xff
0B85   3EFF           03637         addlw   0xff
0B86   3EFF           03638         addlw   0xff
0B87   3EFF           03639         addlw   0xff
0B88   3EFF           03640         addlw   0xff
0B89   3EFF           03641         addlw   0xff
0B8A   3EFF           03642         addlw   0xff
0B8B   3EFF           03643         addlw   0xff
0B8C   3EFF           03644         addlw   0xff
0B8D   3EFF           03645         addlw   0xff
gpasm-1.5.0 #1285 (Jan 23 2020) unidds_v1_10.   27.01.2020  22:56:48        PAGE 70


LOC    OBJECT CODE    LINE  SOURCE TEXT
  VALUE

0B8E   3EFF           03646         addlw   0xff
0B8F   3EFF           03647         addlw   0xff
0B90   3EFF           03648         addlw   0xff
0B91   3EFF           03649         addlw   0xff
0B92   3EFF           03650         addlw   0xff
0B93   3EFF           03651         addlw   0xff
0B94   3EFF           03652         addlw   0xff
0B95   3EFF           03653         addlw   0xff
0B96   3EFF           03654         addlw   0xff
0B97   3EFF           03655         addlw   0xff
0B98   3EFF           03656         addlw   0xff
0B99   3EFF           03657         addlw   0xff
0B9A   3EFF           03658         addlw   0xff
0B9B   3EFF           03659         addlw   0xff
0B9C   3EFF           03660         addlw   0xff
0B9D   3EFF           03661         addlw   0xff
0B9E   3EFF           03662         addlw   0xff
0B9F   3EFF           03663         addlw   0xff
0BA0   3EFF           03664         addlw   0xff
0BA1   3EFF           03665         addlw   0xff
0BA2   3EFF           03666         addlw   0xff
0BA3   3EFF           03667         addlw   0xff
0BA4   3EFF           03668         addlw   0xff
0BA5   3EFF           03669         addlw   0xff
0BA6   3EFF           03670         addlw   0xff
0BA7   3EFF           03671         addlw   0xff
0BA8   3EFF           03672         addlw   0xff
0BA9   3EFF           03673         addlw   0xff
0BAA   3EFF           03674         addlw   0xff
0BAB   3EFF           03675         addlw   0xff
0BAC   3EFF           03676         addlw   0xff
0BAD   3EFF           03677         addlw   0xff
0BAE   3EFF           03678         addlw   0xff
0BAF   3EFF           03679         addlw   0xff
0BB0   3EFF           03680         addlw   0xff
0BB1   3EFF           03681         addlw   0xff
0BB2   3EFF           03682         addlw   0xff
0BB3   3EFF           03683         addlw   0xff
0BB4   3EFF           03684         addlw   0xff
0BB5   3EFF           03685         addlw   0xff
0BB6   3EFF           03686         addlw   0xff
0BB7   3EFF           03687         addlw   0xff
0BB8   3EFF           03688         addlw   0xff
0BB9   3EFF           03689         addlw   0xff
0BBA   3EFF           03690         addlw   0xff
0BBB   3EFF           03691         addlw   0xff
0BBC   3EFF           03692         addlw   0xff
0BBD   3EFF           03693         addlw   0xff
0BBE   3EFF           03694         addlw   0xff
0BBF   3EFF           03695         addlw   0xff
0BC0   3EFF           03696         addlw   0xff
0BC1   3EFF           03697         addlw   0xff
0BC2   3EFF           03698         addlw   0xff
gpasm-1.5.0 #1285 (Jan 23 2020) unidds_v1_10.   27.01.2020  22:56:48        PAGE 71


LOC    OBJECT CODE    LINE  SOURCE TEXT
  VALUE

0BC3   3EFF           03699         addlw   0xff
0BC4   3EFF           03700         addlw   0xff
0BC5   3EFF           03701         addlw   0xff
0BC6   3EFF           03702         addlw   0xff
0BC7   3EFF           03703         addlw   0xff
0BC8   3EFF           03704         addlw   0xff
0BC9   3EFF           03705         addlw   0xff
0BCA   3EFF           03706         addlw   0xff
0BCB   3EFF           03707         addlw   0xff
0BCC   3EFF           03708         addlw   0xff
0BCD   3EFF           03709         addlw   0xff
0BCE   3EFF           03710         addlw   0xff
0BCF   3EFF           03711         addlw   0xff
0BD0   3EFF           03712         addlw   0xff
0BD1   3EFF           03713         addlw   0xff
0BD2   3EFF           03714         addlw   0xff
0BD3   3EFF           03715         addlw   0xff
0BD4   3EFF           03716         addlw   0xff
0BD5   3EFF           03717         addlw   0xff
0BD6   3EFF           03718         addlw   0xff
0BD7   3EFF           03719         addlw   0xff
0BD8   3EFF           03720         addlw   0xff
0BD9   3EFF           03721         addlw   0xff
0BDA   3EFF           03722         addlw   0xff
0BDB   3EFF           03723         addlw   0xff
0BDC   3EFF           03724         addlw   0xff
0BDD   3EFF           03725         addlw   0xff
0BDE   3EFF           03726         addlw   0xff
0BDF   3EFF           03727         addlw   0xff
0BE0   3EFF           03728         addlw   0xff
0BE1   3EFF           03729         addlw   0xff
0BE2   3EFF           03730         addlw   0xff
0BE3   3EFF           03731         addlw   0xff
0BE4   3EFF           03732         addlw   0xff
0BE5   3EFF           03733         addlw   0xff
0BE6   3EFF           03734         addlw   0xff
0BE7   3EFF           03735         addlw   0xff
0BE8   3EFF           03736         addlw   0xff
0BE9   3EFF           03737         addlw   0xff
0BEA   3EFF           03738         addlw   0xff
0BEB   3EFF           03739         addlw   0xff
0BEC   3EFF           03740         addlw   0xff
0BED   3EFF           03741         addlw   0xff
0BEE   3EFF           03742         addlw   0xff
0BEF   3EFF           03743         addlw   0xff
0BF0   3EFF           03744         addlw   0xff
0BF1   3EFF           03745         addlw   0xff
0BF2   3EFF           03746         addlw   0xff
0BF3   3EFF           03747         addlw   0xff
0BF4   3EFF           03748         addlw   0xff
0BF5   3EFF           03749         addlw   0xff
0BF6   3EFF           03750         addlw   0xff
0BF7   3EFF           03751         addlw   0xff
gpasm-1.5.0 #1285 (Jan 23 2020) unidds_v1_10.   27.01.2020  22:56:48        PAGE 72


LOC    OBJECT CODE    LINE  SOURCE TEXT
  VALUE

0BF8   3EFF           03752         addlw   0xff
0BF9   3EFF           03753         addlw   0xff
0BFA   3EFF           03754         addlw   0xff
0BFB   3EFF           03755         addlw   0xff
0BFC   3EFF           03756         addlw   0xff
0BFD   3EFF           03757         addlw   0xff
0BFE   3EFF           03758         addlw   0xff
0BFF   3EFF           03759         addlw   0xff
0C00   3EFF           03760         addlw   0xff
0C01   3EFF           03761         addlw   0xff
0C02   3EFF           03762         addlw   0xff
0C03   3EFF           03763         addlw   0xff
0C04   3EFF           03764         addlw   0xff
0C05   3EFF           03765         addlw   0xff
0C06   3EFF           03766         addlw   0xff
0C07   3EFF           03767         addlw   0xff
0C08   3EFF           03768         addlw   0xff
0C09   3EFF           03769         addlw   0xff
0C0A   3EFF           03770         addlw   0xff
0C0B   3EFF           03771         addlw   0xff
0C0C   3EFF           03772         addlw   0xff
0C0D   3EFF           03773         addlw   0xff
0C0E   3EFF           03774         addlw   0xff
0C0F   3EFF           03775         addlw   0xff
0C10   3EFF           03776         addlw   0xff
0C11   3EFF           03777         addlw   0xff
0C12   3EFF           03778         addlw   0xff
0C13   3EFF           03779         addlw   0xff
0C14   3EFF           03780         addlw   0xff
0C15   3EFF           03781         addlw   0xff
0C16   3EFF           03782         addlw   0xff
0C17   3EFF           03783         addlw   0xff
0C18   3EFF           03784         addlw   0xff
0C19   3EFF           03785         addlw   0xff
0C1A   3EFF           03786         addlw   0xff
0C1B   3EFF           03787         addlw   0xff
0C1C   3EFF           03788         addlw   0xff
0C1D   3EFF           03789         addlw   0xff
0C1E   3EFF           03790         addlw   0xff
0C1F   3EFF           03791         addlw   0xff
0C20   3EFF           03792         addlw   0xff
0C21   3EFF           03793         addlw   0xff
0C22   3EFF           03794         addlw   0xff
0C23   3EFF           03795         addlw   0xff
0C24   3EFF           03796         addlw   0xff
0C25   3EFF           03797         addlw   0xff
0C26   3EFF           03798         addlw   0xff
0C27   3EFF           03799         addlw   0xff
0C28   3EFF           03800         addlw   0xff
0C29   3EFF           03801         addlw   0xff
0C2A   3EFF           03802         addlw   0xff
0C2B   3EFF           03803         addlw   0xff
0C2C   3EFF           03804         addlw   0xff
gpasm-1.5.0 #1285 (Jan 23 2020) unidds_v1_10.   27.01.2020  22:56:48        PAGE 73


LOC    OBJECT CODE    LINE  SOURCE TEXT
  VALUE

0C2D   3EFF           03805         addlw   0xff
0C2E   3EFF           03806         addlw   0xff
0C2F   3EFF           03807         addlw   0xff
0C30   3EFF           03808         addlw   0xff
0C31   3EFF           03809         addlw   0xff
0C32   3EFF           03810         addlw   0xff
0C33   3EFF           03811         addlw   0xff
0C34   3EFF           03812         addlw   0xff
0C35   3EFF           03813         addlw   0xff
0C36   3EFF           03814         addlw   0xff
0C37   3EFF           03815         addlw   0xff
0C38   3EFF           03816         addlw   0xff
0C39   3EFF           03817         addlw   0xff
0C3A   3EFF           03818         addlw   0xff
0C3B   3EFF           03819         addlw   0xff
0C3C   3EFF           03820         addlw   0xff
0C3D   3EFF           03821         addlw   0xff
0C3E   3EFF           03822         addlw   0xff
0C3F   3EFF           03823         addlw   0xff
0C40   3EFF           03824         addlw   0xff
0C41   3EFF           03825         addlw   0xff
0C42   3EFF           03826         addlw   0xff
0C43   3EFF           03827         addlw   0xff
0C44   3EFF           03828         addlw   0xff
0C45   3EFF           03829         addlw   0xff
0C46   3EFF           03830         addlw   0xff
0C47   3EFF           03831         addlw   0xff
0C48   3EFF           03832         addlw   0xff
0C49   3EFF           03833         addlw   0xff
0C4A   3EFF           03834         addlw   0xff
0C4B   3EFF           03835         addlw   0xff
0C4C   3EFF           03836         addlw   0xff
0C4D   3EFF           03837         addlw   0xff
0C4E   3EFF           03838         addlw   0xff
0C4F   3EFF           03839         addlw   0xff
0C50   3EFF           03840         addlw   0xff
0C51   3EFF           03841         addlw   0xff
0C52   3EFF           03842         addlw   0xff
0C53   3EFF           03843         addlw   0xff
0C54   3EFF           03844         addlw   0xff
0C55   3EFF           03845         addlw   0xff
0C56   3EFF           03846         addlw   0xff
0C57   3EFF           03847         addlw   0xff
0C58   3EFF           03848         addlw   0xff
0C59   3EFF           03849         addlw   0xff
0C5A   3EFF           03850         addlw   0xff
0C5B   3EFF           03851         addlw   0xff
0C5C   3EFF           03852         addlw   0xff
0C5D   3EFF           03853         addlw   0xff
0C5E   3EFF           03854         addlw   0xff
0C5F   3EFF           03855         addlw   0xff
0C60   3EFF           03856         addlw   0xff
0C61   3EFF           03857         addlw   0xff
gpasm-1.5.0 #1285 (Jan 23 2020) unidds_v1_10.   27.01.2020  22:56:48        PAGE 74


LOC    OBJECT CODE    LINE  SOURCE TEXT
  VALUE

0C62   3EFF           03858         addlw   0xff
0C63   3EFF           03859         addlw   0xff
0C64   3EFF           03860         addlw   0xff
0C65   3EFF           03861         addlw   0xff
0C66   3EFF           03862         addlw   0xff
0C67   3EFF           03863         addlw   0xff
0C68   3EFF           03864         addlw   0xff
0C69   3EFF           03865         addlw   0xff
0C6A   3EFF           03866         addlw   0xff
0C6B   3EFF           03867         addlw   0xff
0C6C   3EFF           03868         addlw   0xff
0C6D   3EFF           03869         addlw   0xff
0C6E   3EFF           03870         addlw   0xff
0C6F   3EFF           03871         addlw   0xff
0C70   3EFF           03872         addlw   0xff
0C71   3EFF           03873         addlw   0xff
0C72   3EFF           03874         addlw   0xff
0C73   3EFF           03875         addlw   0xff
0C74   3EFF           03876         addlw   0xff
0C75   3EFF           03877         addlw   0xff
0C76   3EFF           03878         addlw   0xff
0C77   3EFF           03879         addlw   0xff
0C78   3EFF           03880         addlw   0xff
0C79   3EFF           03881         addlw   0xff
0C7A   3EFF           03882         addlw   0xff
0C7B   3EFF           03883         addlw   0xff
0C7C   3EFF           03884         addlw   0xff
0C7D   3EFF           03885         addlw   0xff
0C7E   3EFF           03886         addlw   0xff
0C7F   3EFF           03887         addlw   0xff
0C80   3EFF           03888         addlw   0xff
0C81   3EFF           03889         addlw   0xff
0C82   3EFF           03890         addlw   0xff
0C83   3EFF           03891         addlw   0xff
0C84   3EFF           03892         addlw   0xff
0C85   3EFF           03893         addlw   0xff
0C86   3EFF           03894         addlw   0xff
0C87   3EFF           03895         addlw   0xff
0C88   3EFF           03896         addlw   0xff
0C89   3EFF           03897         addlw   0xff
0C8A   3EFF           03898         addlw   0xff
0C8B   3EFF           03899         addlw   0xff
0C8C   3EFF           03900         addlw   0xff
0C8D   3EFF           03901         addlw   0xff
0C8E   3EFF           03902         addlw   0xff
0C8F   3EFF           03903         addlw   0xff
0C90   3EFF           03904         addlw   0xff
0C91   3EFF           03905         addlw   0xff
0C92   3EFF           03906         addlw   0xff
0C93   3EFF           03907         addlw   0xff
0C94   3EFF           03908         addlw   0xff
0C95   3EFF           03909         addlw   0xff
0C96   3EFF           03910         addlw   0xff
gpasm-1.5.0 #1285 (Jan 23 2020) unidds_v1_10.   27.01.2020  22:56:48        PAGE 75


LOC    OBJECT CODE    LINE  SOURCE TEXT
  VALUE

0C97   3EFF           03911         addlw   0xff
0C98   3EFF           03912         addlw   0xff
0C99   3EFF           03913         addlw   0xff
0C9A   3EFF           03914         addlw   0xff
0C9B   3EFF           03915         addlw   0xff
0C9C   3EFF           03916         addlw   0xff
0C9D   3EFF           03917         addlw   0xff
0C9E   3EFF           03918         addlw   0xff
0C9F   3EFF           03919         addlw   0xff
0CA0   3EFF           03920         addlw   0xff
0CA1   3EFF           03921         addlw   0xff
0CA2   3EFF           03922         addlw   0xff
0CA3   3EFF           03923         addlw   0xff
0CA4   3EFF           03924         addlw   0xff
0CA5   3EFF           03925         addlw   0xff
0CA6   3EFF           03926         addlw   0xff
0CA7   3EFF           03927         addlw   0xff
0CA8   3EFF           03928         addlw   0xff
0CA9   3EFF           03929         addlw   0xff
0CAA   3EFF           03930         addlw   0xff
0CAB   3EFF           03931         addlw   0xff
0CAC   3EFF           03932         addlw   0xff
0CAD   3EFF           03933         addlw   0xff
0CAE   3EFF           03934         addlw   0xff
0CAF   3EFF           03935         addlw   0xff
0CB0   3EFF           03936         addlw   0xff
0CB1   3EFF           03937         addlw   0xff
0CB2   3EFF           03938         addlw   0xff
0CB3   3EFF           03939         addlw   0xff
0CB4   3EFF           03940         addlw   0xff
0CB5   3EFF           03941         addlw   0xff
0CB6   3EFF           03942         addlw   0xff
0CB7   3EFF           03943         addlw   0xff
0CB8   3EFF           03944         addlw   0xff
0CB9   3EFF           03945         addlw   0xff
0CBA   3EFF           03946         addlw   0xff
0CBB   3EFF           03947         addlw   0xff
0CBC   3EFF           03948         addlw   0xff
0CBD   3EFF           03949         addlw   0xff
0CBE   3EFF           03950         addlw   0xff
0CBF   3EFF           03951         addlw   0xff
0CC0   3EFF           03952         addlw   0xff
0CC1   3EFF           03953         addlw   0xff
0CC2   3EFF           03954         addlw   0xff
0CC3   3EFF           03955         addlw   0xff
0CC4   3EFF           03956         addlw   0xff
0CC5   3EFF           03957         addlw   0xff
0CC6   3EFF           03958         addlw   0xff
0CC7   3EFF           03959         addlw   0xff
0CC8   3EFF           03960         addlw   0xff
0CC9   3EFF           03961         addlw   0xff
0CCA   3EFF           03962         addlw   0xff
0CCB   3EFF           03963         addlw   0xff
gpasm-1.5.0 #1285 (Jan 23 2020) unidds_v1_10.   27.01.2020  22:56:48        PAGE 76


LOC    OBJECT CODE    LINE  SOURCE TEXT
  VALUE

0CCC   3EFF           03964         addlw   0xff
0CCD   3EFF           03965         addlw   0xff
0CCE   3EFF           03966         addlw   0xff
0CCF   3EFF           03967         addlw   0xff
0CD0   3EFF           03968         addlw   0xff
0CD1   3EFF           03969         addlw   0xff
0CD2   3EFF           03970         addlw   0xff
0CD3   3EFF           03971         addlw   0xff
0CD4   3EFF           03972         addlw   0xff
0CD5   3EFF           03973         addlw   0xff
0CD6   3EFF           03974         addlw   0xff
0CD7   3EFF           03975         addlw   0xff
0CD8   3EFF           03976         addlw   0xff
0CD9   3EFF           03977         addlw   0xff
0CDA   3EFF           03978         addlw   0xff
0CDB   3EFF           03979         addlw   0xff
0CDC   3EFF           03980         addlw   0xff
0CDD   3EFF           03981         addlw   0xff
0CDE   3EFF           03982         addlw   0xff
0CDF   3EFF           03983         addlw   0xff
0CE0   3EFF           03984         addlw   0xff
0CE1   3EFF           03985         addlw   0xff
0CE2   3EFF           03986         addlw   0xff
0CE3   3EFF           03987         addlw   0xff
0CE4   3EFF           03988         addlw   0xff
0CE5   3EFF           03989         addlw   0xff
0CE6   3EFF           03990         addlw   0xff
0CE7   3EFF           03991         addlw   0xff
0CE8   3EFF           03992         addlw   0xff
0CE9   3EFF           03993         addlw   0xff
0CEA   3EFF           03994         addlw   0xff
0CEB   3EFF           03995         addlw   0xff
0CEC   3EFF           03996         addlw   0xff
0CED   3EFF           03997         addlw   0xff
0CEE   3EFF           03998         addlw   0xff
0CEF   3EFF           03999         addlw   0xff
0CF0   3EFF           04000         addlw   0xff
0CF1   3EFF           04001         addlw   0xff
0CF2   3EFF           04002         addlw   0xff
0CF3   3EFF           04003         addlw   0xff
0CF4   3EFF           04004         addlw   0xff
0CF5   3EFF           04005         addlw   0xff
0CF6   3EFF           04006         addlw   0xff
0CF7   3EFF           04007         addlw   0xff
0CF8   3EFF           04008         addlw   0xff
0CF9   3EFF           04009         addlw   0xff
0CFA   3EFF           04010         addlw   0xff
0CFB   3EFF           04011         addlw   0xff
0CFC   3EFF           04012         addlw   0xff
0CFD   3EFF           04013         addlw   0xff
0CFE   3EFF           04014         addlw   0xff
0CFF   3EFF           04015         addlw   0xff
0D00   3EFF           04016         addlw   0xff
gpasm-1.5.0 #1285 (Jan 23 2020) unidds_v1_10.   27.01.2020  22:56:48        PAGE 77


LOC    OBJECT CODE    LINE  SOURCE TEXT
  VALUE

0D01   3EFF           04017         addlw   0xff
0D02   3EFF           04018         addlw   0xff
0D03   3EFF           04019         addlw   0xff
0D04   3EFF           04020         addlw   0xff
0D05   3EFF           04021         addlw   0xff
0D06   3EFF           04022         addlw   0xff
0D07   3EFF           04023         addlw   0xff
0D08   3EFF           04024         addlw   0xff
0D09   3EFF           04025         addlw   0xff
0D0A   3EFF           04026         addlw   0xff
0D0B   3EFF           04027         addlw   0xff
0D0C   3EFF           04028         addlw   0xff
0D0D   3EFF           04029         addlw   0xff
0D0E   3EFF           04030         addlw   0xff
0D0F   3EFF           04031         addlw   0xff
0D10   3EFF           04032         addlw   0xff
0D11   3EFF           04033         addlw   0xff
0D12   3EFF           04034         addlw   0xff
0D13   3EFF           04035         addlw   0xff
0D14   3EFF           04036         addlw   0xff
0D15   3EFF           04037         addlw   0xff
0D16   3EFF           04038         addlw   0xff
0D17   3EFF           04039         addlw   0xff
0D18   3EFF           04040         addlw   0xff
0D19   3EFF           04041         addlw   0xff
0D1A   3EFF           04042         addlw   0xff
0D1B   3EFF           04043         addlw   0xff
0D1C   3EFF           04044         addlw   0xff
0D1D   3EFF           04045         addlw   0xff
0D1E   3EFF           04046         addlw   0xff
0D1F   3EFF           04047         addlw   0xff
0D20   3EFF           04048         addlw   0xff
0D21   3EFF           04049         addlw   0xff
0D22   3EFF           04050         addlw   0xff
0D23   3EFF           04051         addlw   0xff
0D24   3EFF           04052         addlw   0xff
0D25   3EFF           04053         addlw   0xff
0D26   3EFF           04054         addlw   0xff
0D27   3EFF           04055         addlw   0xff
0D28   3EFF           04056         addlw   0xff
0D29   3EFF           04057         addlw   0xff
0D2A   3EFF           04058         addlw   0xff
0D2B   3EFF           04059         addlw   0xff
0D2C   3EFF           04060         addlw   0xff
0D2D   3EFF           04061         addlw   0xff
0D2E   3EFF           04062         addlw   0xff
0D2F   3EFF           04063         addlw   0xff
0D30   3EFF           04064         addlw   0xff
0D31   3EFF           04065         addlw   0xff
0D32   3EFF           04066         addlw   0xff
0D33   3EFF           04067         addlw   0xff
0D34   3EFF           04068         addlw   0xff
0D35   3EFF           04069         addlw   0xff
gpasm-1.5.0 #1285 (Jan 23 2020) unidds_v1_10.   27.01.2020  22:56:48        PAGE 78


LOC    OBJECT CODE    LINE  SOURCE TEXT
  VALUE

0D36   3EFF           04070         addlw   0xff
0D37   3EFF           04071         addlw   0xff
0D38   3EFF           04072         addlw   0xff
0D39   3EFF           04073         addlw   0xff
0D3A   3EFF           04074         addlw   0xff
0D3B   3EFF           04075         addlw   0xff
0D3C   3EFF           04076         addlw   0xff
0D3D   3EFF           04077         addlw   0xff
0D3E   3EFF           04078         addlw   0xff
0D3F   3EFF           04079         addlw   0xff
0D40   3EFF           04080         addlw   0xff
0D41   3EFF           04081         addlw   0xff
0D42   3EFF           04082         addlw   0xff
0D43   3EFF           04083         addlw   0xff
0D44   3EFF           04084         addlw   0xff
0D45   3EFF           04085         addlw   0xff
0D46   3EFF           04086         addlw   0xff
0D47   3EFF           04087         addlw   0xff
0D48   3EFF           04088         addlw   0xff
0D49   3EFF           04089         addlw   0xff
0D4A   3EFF           04090         addlw   0xff
0D4B   3EFF           04091         addlw   0xff
0D4C   3EFF           04092         addlw   0xff
0D4D   3EFF           04093         addlw   0xff
0D4E   3EFF           04094         addlw   0xff
0D4F   3EFF           04095         addlw   0xff
0D50   3EFF           04096         addlw   0xff
0D51   3EFF           04097         addlw   0xff
0D52   3EFF           04098         addlw   0xff
0D53   3EFF           04099         addlw   0xff
0D54   3EFF           04100         addlw   0xff
0D55   3EFF           04101         addlw   0xff
0D56   3EFF           04102         addlw   0xff
0D57   3EFF           04103         addlw   0xff
0D58   3EFF           04104         addlw   0xff
0D59   3EFF           04105         addlw   0xff
0D5A   3EFF           04106         addlw   0xff
0D5B   3EFF           04107         addlw   0xff
0D5C   3EFF           04108         addlw   0xff
0D5D   3EFF           04109         addlw   0xff
0D5E   3EFF           04110         addlw   0xff
0D5F   3EFF           04111         addlw   0xff
0D60   3EFF           04112         addlw   0xff
0D61   3EFF           04113         addlw   0xff
0D62   3EFF           04114         addlw   0xff
0D63   3EFF           04115         addlw   0xff
0D64   3EFF           04116         addlw   0xff
0D65   3EFF           04117         addlw   0xff
0D66   3EFF           04118         addlw   0xff
0D67   3EFF           04119         addlw   0xff
0D68   3EFF           04120         addlw   0xff
0D69   3EFF           04121         addlw   0xff
0D6A   3EFF           04122         addlw   0xff
gpasm-1.5.0 #1285 (Jan 23 2020) unidds_v1_10.   27.01.2020  22:56:48        PAGE 79


LOC    OBJECT CODE    LINE  SOURCE TEXT
  VALUE

0D6B   3EFF           04123         addlw   0xff
0D6C   3EFF           04124         addlw   0xff
0D6D   3EFF           04125         addlw   0xff
0D6E   3EFF           04126         addlw   0xff
0D6F   3EFF           04127         addlw   0xff
0D70   3EFF           04128         addlw   0xff
0D71   3EFF           04129         addlw   0xff
0D72   3EFF           04130         addlw   0xff
0D73   3EFF           04131         addlw   0xff
0D74   3EFF           04132         addlw   0xff
0D75   3EFF           04133         addlw   0xff
0D76   3EFF           04134         addlw   0xff
0D77   3EFF           04135         addlw   0xff
0D78   3EFF           04136         addlw   0xff
0D79   3EFF           04137         addlw   0xff
0D7A   3EFF           04138         addlw   0xff
0D7B   3EFF           04139         addlw   0xff
0D7C   3EFF           04140         addlw   0xff
0D7D   3EFF           04141         addlw   0xff
0D7E   3EFF           04142         addlw   0xff
0D7F   3EFF           04143         addlw   0xff
0D80   3EFF           04144         addlw   0xff
0D81   3EFF           04145         addlw   0xff
0D82   3EFF           04146         addlw   0xff
0D83   3EFF           04147         addlw   0xff
0D84   3EFF           04148         addlw   0xff
0D85   3EFF           04149         addlw   0xff
0D86   3EFF           04150         addlw   0xff
0D87   3EFF           04151         addlw   0xff
0D88   3EFF           04152         addlw   0xff
0D89   3EFF           04153         addlw   0xff
0D8A   3EFF           04154         addlw   0xff
0D8B   3EFF           04155         addlw   0xff
0D8C   3EFF           04156         addlw   0xff
0D8D   3EFF           04157         addlw   0xff
0D8E   3EFF           04158         addlw   0xff
0D8F   3EFF           04159         addlw   0xff
0D90   3EFF           04160         addlw   0xff
0D91   3EFF           04161         addlw   0xff
0D92   3EFF           04162         addlw   0xff
0D93   3EFF           04163         addlw   0xff
0D94   3EFF           04164         addlw   0xff
0D95   3EFF           04165         addlw   0xff
0D96   3EFF           04166         addlw   0xff
0D97   3EFF           04167         addlw   0xff
0D98   3EFF           04168         addlw   0xff
0D99   3EFF           04169         addlw   0xff
0D9A   3EFF           04170         addlw   0xff
0D9B   3EFF           04171         addlw   0xff
0D9C   3EFF           04172         addlw   0xff
0D9D   3EFF           04173         addlw   0xff
0D9E   3EFF           04174         addlw   0xff
0D9F   3EFF           04175         addlw   0xff
gpasm-1.5.0 #1285 (Jan 23 2020) unidds_v1_10.   27.01.2020  22:56:48        PAGE 80


LOC    OBJECT CODE    LINE  SOURCE TEXT
  VALUE

0DA0   3EFF           04176         addlw   0xff
0DA1   3EFF           04177         addlw   0xff
0DA2   3EFF           04178         addlw   0xff
0DA3   3EFF           04179         addlw   0xff
0DA4   3EFF           04180         addlw   0xff
0DA5   3EFF           04181         addlw   0xff
0DA6   3EFF           04182         addlw   0xff
0DA7   3EFF           04183         addlw   0xff
0DA8   3EFF           04184         addlw   0xff
0DA9   3EFF           04185         addlw   0xff
0DAA   3EFF           04186         addlw   0xff
0DAB   3EFF           04187         addlw   0xff
0DAC   3EFF           04188         addlw   0xff
0DAD   3EFF           04189         addlw   0xff
0DAE   3EFF           04190         addlw   0xff
0DAF   3EFF           04191         addlw   0xff
0DB0   3EFF           04192         addlw   0xff
0DB1   3EFF           04193         addlw   0xff
0DB2   3EFF           04194         addlw   0xff
0DB3   3EFF           04195         addlw   0xff
0DB4   3EFF           04196         addlw   0xff
0DB5   3EFF           04197         addlw   0xff
0DB6   3EFF           04198         addlw   0xff
0DB7   3EFF           04199         addlw   0xff
0DB8   3EFF           04200         addlw   0xff
0DB9   3EFF           04201         addlw   0xff
0DBA   3EFF           04202         addlw   0xff
0DBB   3EFF           04203         addlw   0xff
0DBC   3EFF           04204         addlw   0xff
0DBD   3EFF           04205         addlw   0xff
0DBE   3EFF           04206         addlw   0xff
0DBF   3EFF           04207         addlw   0xff
0DC0   3EFF           04208         addlw   0xff
0DC1   3EFF           04209         addlw   0xff
0DC2   3EFF           04210         addlw   0xff
0DC3   3EFF           04211         addlw   0xff
0DC4   3EFF           04212         addlw   0xff
0DC5   3EFF           04213         addlw   0xff
0DC6   3EFF           04214         addlw   0xff
0DC7   3EFF           04215         addlw   0xff
0DC8   3EFF           04216         addlw   0xff
0DC9   3EFF           04217         addlw   0xff
0DCA   3EFF           04218         addlw   0xff
0DCB   3EFF           04219         addlw   0xff
0DCC   3EFF           04220         addlw   0xff
0DCD   3EFF           04221         addlw   0xff
0DCE   3EFF           04222         addlw   0xff
0DCF   3EFF           04223         addlw   0xff
0DD0   3EFF           04224         addlw   0xff
0DD1   3EFF           04225         addlw   0xff
0DD2   3EFF           04226         addlw   0xff
0DD3   3EFF           04227         addlw   0xff
0DD4   3EFF           04228         addlw   0xff
gpasm-1.5.0 #1285 (Jan 23 2020) unidds_v1_10.   27.01.2020  22:56:48        PAGE 81


LOC    OBJECT CODE    LINE  SOURCE TEXT
  VALUE

0DD5   3EFF           04229         addlw   0xff
0DD6   3EFF           04230         addlw   0xff
0DD7   3EFF           04231         addlw   0xff
0DD8   3EFF           04232         addlw   0xff
0DD9   3EFF           04233         addlw   0xff
0DDA   3EFF           04234         addlw   0xff
0DDB   3EFF           04235         addlw   0xff
0DDC   3EFF           04236         addlw   0xff
0DDD   3EFF           04237         addlw   0xff
0DDE   3EFF           04238         addlw   0xff
0DDF   3EFF           04239         addlw   0xff
0DE0   3EFF           04240         addlw   0xff
0DE1   3EFF           04241         addlw   0xff
0DE2   3EFF           04242         addlw   0xff
0DE3   3EFF           04243         addlw   0xff
0DE4   3EFF           04244         addlw   0xff
0DE5   3EFF           04245         addlw   0xff
0DE6   3EFF           04246         addlw   0xff
0DE7   3EFF           04247         addlw   0xff
0DE8   3EFF           04248         addlw   0xff
0DE9   3EFF           04249         addlw   0xff
0DEA   3EFF           04250         addlw   0xff
0DEB   3EFF           04251         addlw   0xff
0DEC   3EFF           04252         addlw   0xff
0DED   3EFF           04253         addlw   0xff
0DEE   3EFF           04254         addlw   0xff
0DEF   3EFF           04255         addlw   0xff
0DF0   3EFF           04256         addlw   0xff
0DF1   3EFF           04257         addlw   0xff
0DF2   3EFF           04258         addlw   0xff
0DF3   3EFF           04259         addlw   0xff
0DF4   3EFF           04260         addlw   0xff
0DF5   3EFF           04261         addlw   0xff
0DF6   3EFF           04262         addlw   0xff
0DF7   3EFF           04263         addlw   0xff
0DF8   3EFF           04264         addlw   0xff
0DF9   3EFF           04265         addlw   0xff
0DFA   3EFF           04266         addlw   0xff
0DFB   3EFF           04267         addlw   0xff
0DFC   3EFF           04268         addlw   0xff
0DFD   3EFF           04269         addlw   0xff
0DFE   3EFF           04270         addlw   0xff
0DFF   3EFF           04271         addlw   0xff
0E00   3EFF           04272         addlw   0xff
0E01   3EFF           04273         addlw   0xff
0E02   3EFF           04274         addlw   0xff
0E03   3EFF           04275         addlw   0xff
0E04   3EFF           04276         addlw   0xff
0E05   3EFF           04277         addlw   0xff
0E06   3EFF           04278         addlw   0xff
0E07   3EFF           04279         addlw   0xff
0E08   3EFF           04280         addlw   0xff
0E09   3EFF           04281         addlw   0xff
gpasm-1.5.0 #1285 (Jan 23 2020) unidds_v1_10.   27.01.2020  22:56:48        PAGE 82


LOC    OBJECT CODE    LINE  SOURCE TEXT
  VALUE

0E0A   3EFF           04282         addlw   0xff
0E0B   3EFF           04283         addlw   0xff
0E0C   3EFF           04284         addlw   0xff
0E0D   3EFF           04285         addlw   0xff
0E0E   3EFF           04286         addlw   0xff
0E0F   3EFF           04287         addlw   0xff
0E10   3EFF           04288         addlw   0xff
0E11   3EFF           04289         addlw   0xff
0E12   3EFF           04290         addlw   0xff
0E13   3EFF           04291         addlw   0xff
0E14   3EFF           04292         addlw   0xff
0E15   3EFF           04293         addlw   0xff
0E16   3EFF           04294         addlw   0xff
0E17   3EFF           04295         addlw   0xff
0E18   3EFF           04296         addlw   0xff
0E19   3EFF           04297         addlw   0xff
0E1A   3EFF           04298         addlw   0xff
0E1B   3EFF           04299         addlw   0xff
0E1C   3EFF           04300         addlw   0xff
0E1D   3EFF           04301         addlw   0xff
0E1E   3EFF           04302         addlw   0xff
0E1F   3EFF           04303         addlw   0xff
0E20   3EFF           04304         addlw   0xff
0E21   3EFF           04305         addlw   0xff
0E22   3EFF           04306         addlw   0xff
0E23   3EFF           04307         addlw   0xff
0E24   3EFF           04308         addlw   0xff
0E25   3EFF           04309         addlw   0xff
0E26   3EFF           04310         addlw   0xff
0E27   3EFF           04311         addlw   0xff
0E28   3EFF           04312         addlw   0xff
0E29   3EFF           04313         addlw   0xff
0E2A   3EFF           04314         addlw   0xff
0E2B   3EFF           04315         addlw   0xff
0E2C   3EFF           04316         addlw   0xff
0E2D   3EFF           04317         addlw   0xff
0E2E   3EFF           04318         addlw   0xff
0E2F   3EFF           04319         addlw   0xff
0E30   3EFF           04320         addlw   0xff
0E31   3EFF           04321         addlw   0xff
0E32   3EFF           04322         addlw   0xff
0E33   3EFF           04323         addlw   0xff
0E34   3EFF           04324         addlw   0xff
0E35   3EFF           04325         addlw   0xff
0E36   3EFF           04326         addlw   0xff
0E37   3EFF           04327         addlw   0xff
0E38   3EFF           04328         addlw   0xff
0E39   3EFF           04329         addlw   0xff
0E3A   3EFF           04330         addlw   0xff
0E3B   3EFF           04331         addlw   0xff
0E3C   3EFF           04332         addlw   0xff
0E3D   3EFF           04333         addlw   0xff
0E3E   3EFF           04334         addlw   0xff
gpasm-1.5.0 #1285 (Jan 23 2020) unidds_v1_10.   27.01.2020  22:56:48        PAGE 83


LOC    OBJECT CODE    LINE  SOURCE TEXT
  VALUE

0E3F   3EFF           04335         addlw   0xff
0E40   3EFF           04336         addlw   0xff
0E41   3EFF           04337         addlw   0xff
0E42   3EFF           04338         addlw   0xff
0E43   3EFF           04339         addlw   0xff
0E44   3EFF           04340         addlw   0xff
0E45   3EFF           04341         addlw   0xff
0E46   3EFF           04342         addlw   0xff
0E47   3EFF           04343         addlw   0xff
0E48   3EFF           04344         addlw   0xff
0E49   3EFF           04345         addlw   0xff
0E4A   3EFF           04346         addlw   0xff
0E4B   3EFF           04347         addlw   0xff
0E4C   3EFF           04348         addlw   0xff
0E4D   3EFF           04349         addlw   0xff
0E4E   3EFF           04350         addlw   0xff
0E4F   3EFF           04351         addlw   0xff
0E50   3EFF           04352         addlw   0xff
0E51   3EFF           04353         addlw   0xff
0E52   3EFF           04354         addlw   0xff
0E53   3EFF           04355         addlw   0xff
0E54   3EFF           04356         addlw   0xff
0E55   3EFF           04357         addlw   0xff
0E56   3EFF           04358         addlw   0xff
0E57   3EFF           04359         addlw   0xff
0E58   3EFF           04360         addlw   0xff
0E59   3EFF           04361         addlw   0xff
0E5A   3EFF           04362         addlw   0xff
0E5B   3EFF           04363         addlw   0xff
0E5C   3EFF           04364         addlw   0xff
0E5D   3EFF           04365         addlw   0xff
0E5E   3EFF           04366         addlw   0xff
0E5F   3EFF           04367         addlw   0xff
0E60   3EFF           04368         addlw   0xff
0E61   3EFF           04369         addlw   0xff
0E62   3EFF           04370         addlw   0xff
0E63   3EFF           04371         addlw   0xff
0E64   3EFF           04372         addlw   0xff
0E65   3EFF           04373         addlw   0xff
0E66   3EFF           04374         addlw   0xff
0E67   3EFF           04375         addlw   0xff
0E68   3EFF           04376         addlw   0xff
0E69   3EFF           04377         addlw   0xff
0E6A   3EFF           04378         addlw   0xff
0E6B   3EFF           04379         addlw   0xff
0E6C   3EFF           04380         addlw   0xff
0E6D   3EFF           04381         addlw   0xff
0E6E   3EFF           04382         addlw   0xff
0E6F   3EFF           04383         addlw   0xff
0E70   3EFF           04384         addlw   0xff
0E71   3EFF           04385         addlw   0xff
0E72   3EFF           04386         addlw   0xff
0E73   3EFF           04387         addlw   0xff
gpasm-1.5.0 #1285 (Jan 23 2020) unidds_v1_10.   27.01.2020  22:56:48        PAGE 84


LOC    OBJECT CODE    LINE  SOURCE TEXT
  VALUE

0E74   3EFF           04388         addlw   0xff
0E75   3EFF           04389         addlw   0xff
0E76   3EFF           04390         addlw   0xff
0E77   3EFF           04391         addlw   0xff
0E78   3EFF           04392         addlw   0xff
0E79   3EFF           04393         addlw   0xff
0E7A   3EFF           04394         addlw   0xff
0E7B   3EFF           04395         addlw   0xff
0E7C   3EFF           04396         addlw   0xff
0E7D   3EFF           04397         addlw   0xff
0E7E   3EFF           04398         addlw   0xff
0E7F   3EFF           04399         addlw   0xff
0E80   3EFF           04400         addlw   0xff
0E81   3EFF           04401         addlw   0xff
0E82   3EFF           04402         addlw   0xff
0E83   3EFF           04403         addlw   0xff
0E84   3EFF           04404         addlw   0xff
0E85   3EFF           04405         addlw   0xff
0E86   3EFF           04406         addlw   0xff
0E87   3EFF           04407         addlw   0xff
0E88   3EFF           04408         addlw   0xff
0E89   3EFF           04409         addlw   0xff
0E8A   3EFF           04410         addlw   0xff
0E8B   3EFF           04411         addlw   0xff
0E8C   3EFF           04412         addlw   0xff
0E8D   3EFF           04413         addlw   0xff
0E8E   3EFF           04414         addlw   0xff
0E8F   3EFF           04415         addlw   0xff
0E90   3EFF           04416         addlw   0xff
0E91   3EFF           04417         addlw   0xff
0E92   3EFF           04418         addlw   0xff
0E93   3EFF           04419         addlw   0xff
0E94   3EFF           04420         addlw   0xff
0E95   3EFF           04421         addlw   0xff
0E96   3EFF           04422         addlw   0xff
0E97   3EFF           04423         addlw   0xff
0E98   3EFF           04424         addlw   0xff
0E99   3EFF           04425         addlw   0xff
0E9A   3EFF           04426         addlw   0xff
0E9B   3EFF           04427         addlw   0xff
0E9C   3EFF           04428         addlw   0xff
0E9D   3EFF           04429         addlw   0xff
0E9E   3EFF           04430         addlw   0xff
0E9F   3EFF           04431         addlw   0xff
0EA0   3EFF           04432         addlw   0xff
0EA1   3EFF           04433         addlw   0xff
0EA2   3EFF           04434         addlw   0xff
0EA3   3EFF           04435         addlw   0xff
0EA4   3EFF           04436         addlw   0xff
0EA5   3EFF           04437         addlw   0xff
0EA6   3EFF           04438         addlw   0xff
0EA7   3EFF           04439         addlw   0xff
0EA8   3EFF           04440         addlw   0xff
gpasm-1.5.0 #1285 (Jan 23 2020) unidds_v1_10.   27.01.2020  22:56:48        PAGE 85


LOC    OBJECT CODE    LINE  SOURCE TEXT
  VALUE

0EA9   3EFF           04441         addlw   0xff
0EAA   3EFF           04442         addlw   0xff
0EAB   3EFF           04443         addlw   0xff
0EAC   3EFF           04444         addlw   0xff
0EAD   3EFF           04445         addlw   0xff
0EAE   3EFF           04446         addlw   0xff
0EAF   3EFF           04447         addlw   0xff
0EB0   3EFF           04448         addlw   0xff
0EB1   3EFF           04449         addlw   0xff
0EB2   3EFF           04450         addlw   0xff
0EB3   3EFF           04451         addlw   0xff
0EB4   3EFF           04452         addlw   0xff
0EB5   3EFF           04453         addlw   0xff
0EB6   3EFF           04454         addlw   0xff
0EB7   3EFF           04455         addlw   0xff
0EB8   3EFF           04456         addlw   0xff
0EB9   3EFF           04457         addlw   0xff
0EBA   3EFF           04458         addlw   0xff
0EBB   3EFF           04459         addlw   0xff
0EBC   3EFF           04460         addlw   0xff
0EBD   3EFF           04461         addlw   0xff
0EBE   3EFF           04462         addlw   0xff
0EBF   3EFF           04463         addlw   0xff
0EC0   3EFF           04464         addlw   0xff
0EC1   3EFF           04465         addlw   0xff
0EC2   3EFF           04466         addlw   0xff
0EC3   3EFF           04467         addlw   0xff
0EC4   3EFF           04468         addlw   0xff
0EC5   3EFF           04469         addlw   0xff
0EC6   3EFF           04470         addlw   0xff
0EC7   3EFF           04471         addlw   0xff
0EC8   3EFF           04472         addlw   0xff
0EC9   3EFF           04473         addlw   0xff
0ECA   3EFF           04474         addlw   0xff
0ECB   3EFF           04475         addlw   0xff
0ECC   3EFF           04476         addlw   0xff
0ECD   3EFF           04477         addlw   0xff
0ECE   3EFF           04478         addlw   0xff
0ECF   3EFF           04479         addlw   0xff
0ED0   3EFF           04480         addlw   0xff
0ED1   3EFF           04481         addlw   0xff
0ED2   3EFF           04482         addlw   0xff
0ED3   3EFF           04483         addlw   0xff
0ED4   3EFF           04484         addlw   0xff
0ED5   3EFF           04485         addlw   0xff
0ED6   3EFF           04486         addlw   0xff
0ED7   3EFF           04487         addlw   0xff
0ED8   3EFF           04488         addlw   0xff
0ED9   3EFF           04489         addlw   0xff
0EDA   3EFF           04490         addlw   0xff
0EDB   3EFF           04491         addlw   0xff
0EDC   3EFF           04492         addlw   0xff
0EDD   3EFF           04493         addlw   0xff
gpasm-1.5.0 #1285 (Jan 23 2020) unidds_v1_10.   27.01.2020  22:56:48        PAGE 86


LOC    OBJECT CODE    LINE  SOURCE TEXT
  VALUE

0EDE   3EFF           04494         addlw   0xff
0EDF   3EFF           04495         addlw   0xff
0EE0   3EFF           04496         addlw   0xff
0EE1   3EFF           04497         addlw   0xff
0EE2   3EFF           04498         addlw   0xff
0EE3   3EFF           04499         addlw   0xff
0EE4   3EFF           04500         addlw   0xff
0EE5   3EFF           04501         addlw   0xff
0EE6   3EFF           04502         addlw   0xff
0EE7   3EFF           04503         addlw   0xff
0EE8   3EFF           04504         addlw   0xff
0EE9   3EFF           04505         addlw   0xff
0EEA   3EFF           04506         addlw   0xff
0EEB   3EFF           04507         addlw   0xff
0EEC   3EFF           04508         addlw   0xff
0EED   3EFF           04509         addlw   0xff
0EEE   3EFF           04510         addlw   0xff
0EEF   3EFF           04511         addlw   0xff
0EF0   3EFF           04512         addlw   0xff
0EF1   3EFF           04513         addlw   0xff
0EF2   3EFF           04514         addlw   0xff
0EF3   3EFF           04515         addlw   0xff
0EF4   3EFF           04516         addlw   0xff
0EF5   3EFF           04517         addlw   0xff
0EF6   3EFF           04518         addlw   0xff
0EF7   3EFF           04519         addlw   0xff
0EF8   3EFF           04520         addlw   0xff
0EF9   3EFF           04521         addlw   0xff
0EFA   3EFF           04522         addlw   0xff
0EFB   3EFF           04523         addlw   0xff
0EFC   3EFF           04524         addlw   0xff
0EFD   3EFF           04525         addlw   0xff
0EFE   3EFF           04526         addlw   0xff
0EFF   3EFF           04527         addlw   0xff
0F00   3EFF           04528         addlw   0xff
0F01   3EFF           04529         addlw   0xff
0F02   3EFF           04530         addlw   0xff
0F03   3EFF           04531         addlw   0xff
0F04   3EFF           04532         addlw   0xff
0F05   3EFF           04533         addlw   0xff
0F06   3EFF           04534         addlw   0xff
0F07   3EFF           04535         addlw   0xff
0F08   3EFF           04536         addlw   0xff
0F09   3EFF           04537         addlw   0xff
0F0A   3EFF           04538         addlw   0xff
0F0B   3EFF           04539         addlw   0xff
0F0C   3EFF           04540         addlw   0xff
0F0D   3EFF           04541         addlw   0xff
0F0E   3EFF           04542         addlw   0xff
0F0F   3EFF           04543         addlw   0xff
0F10   3EFF           04544         addlw   0xff
0F11   3EFF           04545         addlw   0xff
0F12   3EFF           04546         addlw   0xff
gpasm-1.5.0 #1285 (Jan 23 2020) unidds_v1_10.   27.01.2020  22:56:48        PAGE 87


LOC    OBJECT CODE    LINE  SOURCE TEXT
  VALUE

0F13   3EFF           04547         addlw   0xff
0F14   3EFF           04548         addlw   0xff
0F15   3EFF           04549         addlw   0xff
0F16   3EFF           04550         addlw   0xff
0F17   3EFF           04551         addlw   0xff
0F18   3EFF           04552         addlw   0xff
0F19   3EFF           04553         addlw   0xff
0F1A   3EFF           04554         addlw   0xff
0F1B   3EFF           04555         addlw   0xff
0F1C   3EFF           04556         addlw   0xff
0F1D   3EFF           04557         addlw   0xff
0F1E   3EFF           04558         addlw   0xff
0F1F   3EFF           04559         addlw   0xff
0F20   3EFF           04560         addlw   0xff
0F21   3EFF           04561         addlw   0xff
0F22   3EFF           04562         addlw   0xff
0F23   3EFF           04563         addlw   0xff
0F24   3EFF           04564         addlw   0xff
0F25   3EFF           04565         addlw   0xff
0F26   3EFF           04566         addlw   0xff
0F27   3EFF           04567         addlw   0xff
0F28   3EFF           04568         addlw   0xff
0F29   3EFF           04569         addlw   0xff
0F2A   3EFF           04570         addlw   0xff
0F2B   3EFF           04571         addlw   0xff
0F2C   3EFF           04572         addlw   0xff
0F2D   3EFF           04573         addlw   0xff
0F2E   3EFF           04574         addlw   0xff
0F2F   3EFF           04575         addlw   0xff
0F30   3EFF           04576         addlw   0xff
0F31   3EFF           04577         addlw   0xff
0F32   3EFF           04578         addlw   0xff
0F33   3EFF           04579         addlw   0xff
0F34   3EFF           04580         addlw   0xff
0F35   3EFF           04581         addlw   0xff
0F36   3EFF           04582         addlw   0xff
0F37   3EFF           04583         addlw   0xff
0F38   3EFF           04584         addlw   0xff
0F39   3EFF           04585         addlw   0xff
0F3A   3EFF           04586         addlw   0xff
0F3B   3EFF           04587         addlw   0xff
0F3C   3EFF           04588         addlw   0xff
0F3D   3EFF           04589         addlw   0xff
0F3E   3EFF           04590         addlw   0xff
0F3F   3EFF           04591         addlw   0xff
0F40   3EFF           04592         addlw   0xff
0F41   3EFF           04593         addlw   0xff
0F42   3EFF           04594         addlw   0xff
0F43   3EFF           04595         addlw   0xff
0F44   3EFF           04596         addlw   0xff
0F45   3EFF           04597         addlw   0xff
0F46   3EFF           04598         addlw   0xff
0F47   3EFF           04599         addlw   0xff
gpasm-1.5.0 #1285 (Jan 23 2020) unidds_v1_10.   27.01.2020  22:56:48        PAGE 88


LOC    OBJECT CODE    LINE  SOURCE TEXT
  VALUE

0F48   3EFF           04600         addlw   0xff
0F49   3EFF           04601         addlw   0xff
0F4A   3EFF           04602         addlw   0xff
0F4B   3EFF           04603         addlw   0xff
0F4C   3EFF           04604         addlw   0xff
0F4D   3EFF           04605         addlw   0xff
0F4E   3EFF           04606         addlw   0xff
0F4F   3EFF           04607         addlw   0xff
0F50   3EFF           04608         addlw   0xff
0F51   3EFF           04609         addlw   0xff
0F52   3EFF           04610         addlw   0xff
0F53   3EFF           04611         addlw   0xff
0F54   3EFF           04612         addlw   0xff
0F55   3EFF           04613         addlw   0xff
0F56   3EFF           04614         addlw   0xff
0F57   3EFF           04615         addlw   0xff
0F58   3EFF           04616         addlw   0xff
0F59   3EFF           04617         addlw   0xff
0F5A   3EFF           04618         addlw   0xff
0F5B   3EFF           04619         addlw   0xff
0F5C   3EFF           04620         addlw   0xff
0F5D   3EFF           04621         addlw   0xff
0F5E   3EFF           04622         addlw   0xff
0F5F   3EFF           04623         addlw   0xff
0F60   3EFF           04624         addlw   0xff
0F61   3EFF           04625         addlw   0xff
0F62   3EFF           04626         addlw   0xff
0F63   3EFF           04627         addlw   0xff
0F64   3EFF           04628         addlw   0xff
0F65   3EFF           04629         addlw   0xff
0F66   3EFF           04630         addlw   0xff
0F67   3EFF           04631         addlw   0xff
0F68   3EFF           04632         addlw   0xff
0F69   3EFF           04633         addlw   0xff
0F6A   3EFF           04634         addlw   0xff
0F6B   3EFF           04635         addlw   0xff
0F6C   3EFF           04636         addlw   0xff
0F6D   3EFF           04637         addlw   0xff
0F6E   3EFF           04638         addlw   0xff
0F6F   3EFF           04639         addlw   0xff
0F70   3EFF           04640         addlw   0xff
0F71   3EFF           04641         addlw   0xff
0F72   3EFF           04642         addlw   0xff
0F73   3EFF           04643         addlw   0xff
0F74   3EFF           04644         addlw   0xff
0F75   3EFF           04645         addlw   0xff
0F76   3EFF           04646         addlw   0xff
0F77   3EFF           04647         addlw   0xff
0F78   3EFF           04648         addlw   0xff
0F79   3EFF           04649         addlw   0xff
0F7A   3EFF           04650         addlw   0xff
0F7B   3EFF           04651         addlw   0xff
0F7C   3EFF           04652         addlw   0xff
gpasm-1.5.0 #1285 (Jan 23 2020) unidds_v1_10.   27.01.2020  22:56:48        PAGE 89


LOC    OBJECT CODE    LINE  SOURCE TEXT
  VALUE

0F7D   3EFF           04653         addlw   0xff
0F7E   3EFF           04654         addlw   0xff
0F7F   3EFF           04655         addlw   0xff
0F80   3EFF           04656         addlw   0xff
0F81   3EFF           04657         addlw   0xff
0F82   3EFF           04658         addlw   0xff
0F83   3EFF           04659         addlw   0xff
0F84   3EFF           04660         addlw   0xff
0F85   3EFF           04661         addlw   0xff
0F86   3EFF           04662         addlw   0xff
0F87   3EFF           04663         addlw   0xff
0F88   3EFF           04664         addlw   0xff
0F89   3EFF           04665         addlw   0xff
0F8A   3EFF           04666         addlw   0xff
0F8B   3EFF           04667         addlw   0xff
0F8C   3EFF           04668         addlw   0xff
0F8D   3EFF           04669         addlw   0xff
0F8E   3EFF           04670         addlw   0xff
0F8F   3EFF           04671         addlw   0xff
0F90   3EFF           04672         addlw   0xff
0F91   3EFF           04673         addlw   0xff
0F92   3EFF           04674         addlw   0xff
0F93   3EFF           04675         addlw   0xff
0F94   3EFF           04676         addlw   0xff
0F95   3EFF           04677         addlw   0xff
0F96   3EFF           04678         addlw   0xff
0F97   3EFF           04679         addlw   0xff
0F98   3EFF           04680         addlw   0xff
0F99   3EFF           04681         addlw   0xff
0F9A   3EFF           04682         addlw   0xff
0F9B   3EFF           04683         addlw   0xff
0F9C   3EFF           04684         addlw   0xff
0F9D   3EFF           04685         addlw   0xff
0F9E   3EFF           04686         addlw   0xff
0F9F   3EFF           04687         addlw   0xff
0FA0   3EFF           04688         addlw   0xff
0FA1   3EFF           04689         addlw   0xff
0FA2   3EFF           04690         addlw   0xff
0FA3   3EFF           04691         addlw   0xff
0FA4   3EFF           04692         addlw   0xff
0FA5   3EFF           04693         addlw   0xff
0FA6   3EFF           04694         addlw   0xff
0FA7   3EFF           04695         addlw   0xff
0FA8   3EFF           04696         addlw   0xff
0FA9   3EFF           04697         addlw   0xff
0FAA   3EFF           04698         addlw   0xff
0FAB   3EFF           04699         addlw   0xff
0FAC   3EFF           04700         addlw   0xff
0FAD   3EFF           04701         addlw   0xff
0FAE   3EFF           04702         addlw   0xff
0FAF   3EFF           04703         addlw   0xff
0FB0   3EFF           04704         addlw   0xff
0FB1   3EFF           04705         addlw   0xff
gpasm-1.5.0 #1285 (Jan 23 2020) unidds_v1_10.   27.01.2020  22:56:48        PAGE 90


LOC    OBJECT CODE    LINE  SOURCE TEXT
  VALUE

0FB2   3EFF           04706         addlw   0xff
0FB3   3EFF           04707         addlw   0xff
0FB4   3EFF           04708         addlw   0xff
0FB5   3EFF           04709         addlw   0xff
0FB6   3EFF           04710         addlw   0xff
0FB7   3EFF           04711         addlw   0xff
0FB8   3EFF           04712         addlw   0xff
0FB9   3EFF           04713         addlw   0xff
0FBA   3EFF           04714         addlw   0xff
0FBB   3EFF           04715         addlw   0xff
0FBC   3EFF           04716         addlw   0xff
0FBD   3EFF           04717         addlw   0xff
0FBE   3EFF           04718         addlw   0xff
0FBF   3EFF           04719         addlw   0xff
0FC0   3EFF           04720         addlw   0xff
0FC1   3EFF           04721         addlw   0xff
0FC2   3EFF           04722         addlw   0xff
0FC3   3EFF           04723         addlw   0xff
0FC4   3EFF           04724         addlw   0xff
0FC5   3EFF           04725         addlw   0xff
0FC6   3EFF           04726         addlw   0xff
0FC7   3EFF           04727         addlw   0xff
0FC8   3EFF           04728         addlw   0xff
0FC9   3EFF           04729         addlw   0xff
0FCA   3EFF           04730         addlw   0xff
0FCB   3EFF           04731         addlw   0xff
0FCC   3EFF           04732         addlw   0xff
0FCD   3EFF           04733         addlw   0xff
0FCE   3EFF           04734         addlw   0xff
0FCF   3EFF           04735         addlw   0xff
0FD0   3EFF           04736         addlw   0xff
0FD1   3EFF           04737         addlw   0xff
0FD2   3EFF           04738         addlw   0xff
0FD3   3EFF           04739         addlw   0xff
0FD4   3EFF           04740         addlw   0xff
0FD5   3EFF           04741         addlw   0xff
0FD6   3EFF           04742         addlw   0xff
0FD7   3EFF           04743         addlw   0xff
0FD8   3EFF           04744         addlw   0xff
0FD9   3EFF           04745         addlw   0xff
0FDA   3EFF           04746         addlw   0xff
0FDB   3EFF           04747         addlw   0xff
0FDC   3EFF           04748         addlw   0xff
0FDD   3EFF           04749         addlw   0xff
0FDE   3EFF           04750         addlw   0xff
0FDF   3EFF           04751         addlw   0xff
0FE0   3EFF           04752         addlw   0xff
0FE1   3EFF           04753         addlw   0xff
0FE2   3EFF           04754         addlw   0xff
0FE3   3EFF           04755         addlw   0xff
0FE4   3EFF           04756         addlw   0xff
0FE5   3EFF           04757         addlw   0xff
0FE6   3EFF           04758         addlw   0xff
gpasm-1.5.0 #1285 (Jan 23 2020) unidds_v1_10.   27.01.2020  22:56:48        PAGE 91


LOC    OBJECT CODE    LINE  SOURCE TEXT
  VALUE

0FE7   3EFF           04759         addlw   0xff
0FE8   3EFF           04760         addlw   0xff
0FE9   3EFF           04761         addlw   0xff
0FEA   3EFF           04762         addlw   0xff
0FEB   3EFF           04763         addlw   0xff
0FEC   3EFF           04764         addlw   0xff
0FED   3EFF           04765         addlw   0xff
0FEE   3EFF           04766         addlw   0xff
0FEF   3EFF           04767         addlw   0xff
0FF0   3EFF           04768         addlw   0xff
0FF1   3EFF           04769         addlw   0xff
0FF2   3EFF           04770         addlw   0xff
0FF3   3EFF           04771         addlw   0xff
0FF4   3EFF           04772         addlw   0xff
0FF5   3EFF           04773         addlw   0xff
0FF6   3EFF           04774         addlw   0xff
0FF7   3EFF           04775         addlw   0xff
0FF8   3EFF           04776         addlw   0xff
0FF9   3EFF           04777         addlw   0xff
0FFA   3EFF           04778         addlw   0xff
0FFB   3EFF           04779         addlw   0xff
0FFC   3EFF           04780         addlw   0xff
0FFD   3EFF           04781         addlw   0xff
0FFE   3EFF           04782         addlw   0xff
0FFF   3EFF           04783         addlw   0xff
                      04784 
1000                  04785 function_058:                                               ; address: 0x1000
                      04786 
1000   390F           04787         andlw   0x0f
1001   0782           04788         addwf   PCL, F                                      ; reg: 0x002
1002   2AE4           04789         goto    label_074
1003   2AED           04790         goto    label_077
1004   2AF6           04791         goto    label_078
1005   2AFF           04792         goto    label_080
1006   2B08           04793         goto    label_082
1007   2B11           04794         goto    label_084
1008   2B1A           04795         goto    function_023
                      04796 
1009                  04797 function_059:                                               ; address: 0x1009
                      04798 
1009   2B23           04799         goto    label_087
100A   2B2C           04800         goto    label_089
100B   2B48           04801         goto    label_090
100C   2B64           04802         goto    label_096
100D   2B80           04803         goto    label_100
100E   2B9B           04804         goto    label_103
100F   2B9B           04805         goto    label_103
1010   2B9B           04806         goto    label_103
1011   2B9B           04807         goto    label_103
                      04808 
1012                  04809 function_060:                                               ; address: 0x1012
                      04810 
1012   390F           04811         andlw   0x0f
gpasm-1.5.0 #1285 (Jan 23 2020) unidds_v1_10.   27.01.2020  22:56:48        PAGE 92


LOC    OBJECT CODE    LINE  SOURCE TEXT
  VALUE

1013   0782           04812         addwf   PCL, F                                      ; reg: 0x002
1014   2B9B           04813         goto    label_103
1015   2BD2           04814         goto    label_115
1016   2BDB           04815         goto    label_117
1017   2BE9           04816         goto    label_118
1018   2BA4           04817         goto    label_104
1019   2BAD           04818         goto    label_106
101A   2BB6           04819         goto    label_108
101B   2BF7           04820         goto    label_120
101C   2C00           04821         goto    label_122
101D   2C0E           04822         goto    label_125
101E   2BC4           04823         goto    label_113
101F   2B9B           04824         goto    label_103
1020   2B9B           04825         goto    label_103
1021   2B9B           04826         goto    label_103
1022   2B9B           04827         goto    label_103
1023   2B9B           04828         goto    label_103
1024   2B9B           04829         goto    label_103
                      04830 
1025                  04831 function_061:                                               ; address: 0x1025
                      04832 
1025   390F           04833         andlw   0x0f
1026   0782           04834         addwf   PCL, F                                      ; reg: 0x002
1027   2963           04835         goto    label_035
1028   2967           04836         goto    function_016
1029   296A           04837         goto    label_036
102A   296C           04838         goto    label_037
102B   296E           04839         goto    label_038
102C   2971           04840         goto    label_040
102D   2973           04841         goto    label_041
102E   285C           04842         goto    label_012
102F   295D           04843         goto    label_034
1030   2951           04844         goto    label_032
1031   2957           04845         goto    label_033
1032   2975           04846         goto    label_042
1033   28C4           04847         goto    label_013
1034   28C4           04848         goto    label_013
1035   28C4           04849         goto    label_013
1036   28C4           04850         goto    label_013
                      04851 
1037                  04852 function_062:                                               ; address: 0x1037
                      04853 
1037   390F           04854         andlw   0x0f
1038   0782           04855         addwf   PCL, F                                      ; reg: 0x002
1039   28C4           04856         goto    label_013
103A   28D3           04857         goto    label_015
103B   28F0           04858         goto    label_020
103C   2942           04859         goto    label_031
103D   2D91           04860         goto    label_146
103E   2E39           04861         goto    label_158
103F   28EA           04862         goto    label_019
1040   28FA           04863         goto    label_021
1041   290E           04864         goto    label_024
gpasm-1.5.0 #1285 (Jan 23 2020) unidds_v1_10.   27.01.2020  22:56:48        PAGE 93


LOC    OBJECT CODE    LINE  SOURCE TEXT
  VALUE

1042   2928           04865         goto    label_025
1043   28D9           04866         goto    label_017
1044   28C4           04867         goto    label_013
1045   28C4           04868         goto    label_013
1046   28C4           04869         goto    label_013
1047   28C4           04870         goto    label_013
1048   28C4           04871         goto    label_013
1049   28C4           04872         goto    label_013
                      04873 
104A                  04874 function_063:                                               ; address: 0x104a
                      04875 
104A   390F           04876         andlw   0x0f
104B   0782           04877         addwf   PCL, F                                      ; reg: 0x002
104C   3430           04878         retlw   0x30
104D   3431           04879         retlw   0x31
104E   3432           04880         retlw   0x32
104F   3433           04881         retlw   0x33
1050   3434           04882         retlw   0x34
1051   3435           04883         retlw   0x35
1052   3436           04884         retlw   0x36
1053   3437           04885         retlw   0x37
1054   3438           04886         retlw   0x38
1055   3439           04887         retlw   0x39
1056   342B           04888         retlw   0x2b
1057   342B           04889         retlw   0x2b
1058   342B           04890         retlw   0x2b
1059   342B           04891         retlw   0x2b
105A   342B           04892         retlw   0x2b
105B   342B           04893         retlw   0x2b
105C   158A           04894         bsf     PCLATH, 0x3                                 ; reg: 0x00a
105D   160A           04895         bsf     PCLATH, 0x4                                 ; reg: 0x00a
105E   2945           04896         goto    label_290
                      04897 
105F                  04898 label_160:                                                  ; address: 0x105f
                      04899 
105F   2963           04900         goto    label_293
                      04901 
1060                  04902 function_064:                                               ; address: 0x1060
                      04903 
1060   01BE           04904         clrf    0x3e                                        ; reg: 0x03e
1061   118A           04905         bcf     PCLATH, 0x3                                 ; reg: 0x00a
1062   120A           04906         bcf     PCLATH, 0x4                                 ; reg: 0x00a
1063   2184           04907         call    function_017
1064   118A           04908         bcf     PCLATH, 0x3                                 ; reg: 0x00a
1065   160A           04909         bsf     PCLATH, 0x4                                 ; reg: 0x00a
                      04910 
1066                  04911 label_161:                                                  ; address: 0x1066
                      04912 
1066   118A           04913         bcf     PCLATH, 0x3                                 ; reg: 0x00a
1067   120A           04914         bcf     PCLATH, 0x4                                 ; reg: 0x00a
1068   236D           04915         call    function_025
1069   118A           04916         bcf     PCLATH, 0x3                                 ; reg: 0x00a
106A   160A           04917         bsf     PCLATH, 0x4                                 ; reg: 0x00a
gpasm-1.5.0 #1285 (Jan 23 2020) unidds_v1_10.   27.01.2020  22:56:48        PAGE 94


LOC    OBJECT CODE    LINE  SOURCE TEXT
  VALUE

106B   1803           04918         btfsc   STATUS, C                                   ; reg: 0x003, bit: 0
106C   2866           04919         goto    label_161
106D   083C           04920         movf    0x3c, W                                     ; reg: 0x03c
106E   2012           04921         call    function_060
                      04922 
106F                  04923 label_162:                                                  ; address: 0x106f
                      04924 
106F   083E           04925         movf    0x3e, W                                     ; reg: 0x03e
1070   1903           04926         btfsc   STATUS, Z                                   ; reg: 0x003, bit: 2
1071   288E           04927         goto    label_165
1072   118A           04928         bcf     PCLATH, 0x3                                 ; reg: 0x00a
1073   120A           04929         bcf     PCLATH, 0x4                                 ; reg: 0x00a
1074   2620           04930         call    function_051
1075   118A           04931         bcf     PCLATH, 0x3                                 ; reg: 0x00a
1076   160A           04932         bsf     PCLATH, 0x4                                 ; reg: 0x00a
1077   1BBE           04933         btfsc   0x3e, 0x7                                   ; reg: 0x03e
1078   287F           04934         goto    label_163
1079   0ABC           04935         incf    0x3c, F                                     ; reg: 0x03c
107A   083C           04936         movf    0x3c, W                                     ; reg: 0x03c
107B   3A0B           04937         xorlw   0x0b
107C   1903           04938         btfsc   STATUS, Z                                   ; reg: 0x003, bit: 2
107D   01BC           04939         clrf    0x3c                                        ; reg: 0x03c
107E   2886           04940         goto    label_164
                      04941 
107F                  04942 label_163:                                                  ; address: 0x107f
                      04943 
107F   03BC           04944         decf    0x3c, F                                     ; reg: 0x03c
1080   083C           04945         movf    0x3c, W                                     ; reg: 0x03c
1081   3AFF           04946         xorlw   0xff
1082   1D03           04947         btfss   STATUS, Z                                   ; reg: 0x003, bit: 2
1083   2886           04948         goto    label_164
1084   300A           04949         movlw   0x0a
1085   00BC           04950         movwf   0x3c                                        ; reg: 0x03c
                      04951 
1086                  04952 label_164:                                                  ; address: 0x1086
                      04953 
1086   118A           04954         bcf     PCLATH, 0x3                                 ; reg: 0x00a
1087   120A           04955         bcf     PCLATH, 0x4                                 ; reg: 0x00a
1088   2184           04956         call    function_017
1089   118A           04957         bcf     PCLATH, 0x3                                 ; reg: 0x00a
108A   160A           04958         bsf     PCLATH, 0x4                                 ; reg: 0x00a
108B   083C           04959         movf    0x3c, W                                     ; reg: 0x03c
108C   2012           04960         call    function_060
108D   01BE           04961         clrf    0x3e                                        ; reg: 0x03e
                      04962 
108E                  04963 label_165:                                                  ; address: 0x108e
                      04964 
108E   118A           04965         bcf     PCLATH, 0x3                                 ; reg: 0x00a
108F   120A           04966         bcf     PCLATH, 0x4                                 ; reg: 0x00a
1090   236D           04967         call    function_025
1091   118A           04968         bcf     PCLATH, 0x3                                 ; reg: 0x00a
1092   160A           04969         bsf     PCLATH, 0x4                                 ; reg: 0x00a
1093   1803           04970         btfsc   STATUS, C                                   ; reg: 0x003, bit: 0
gpasm-1.5.0 #1285 (Jan 23 2020) unidds_v1_10.   27.01.2020  22:56:48        PAGE 95


LOC    OBJECT CODE    LINE  SOURCE TEXT
  VALUE

1094   28AA           04971         goto    label_167
1095   1B86           04972         btfsc   PORTB, RB7                                  ; reg: 0x006, bit: 7
1096   286F           04973         goto    label_162
1097   118A           04974         bcf     PCLATH, 0x3                                 ; reg: 0x00a
1098   120A           04975         bcf     PCLATH, 0x4                                 ; reg: 0x00a
1099   3009           04976         movlw   0x09
109A   00F4           04977         movwf   (Common_RAM + 4)                            ; reg: 0x074
109B   302A           04978         movlw   0x2a
109C   218E           04979         call    function_019
109D   118A           04980         bcf     PCLATH, 0x3                                 ; reg: 0x00a
109E   160A           04981         bsf     PCLATH, 0x4                                 ; reg: 0x00a
                      04982 
109F                  04983 label_166:                                                  ; address: 0x109f
                      04984 
109F   1F86           04985         btfss   PORTB, RB7                                  ; reg: 0x006, bit: 7
10A0   289F           04986         goto    label_166
10A1   118A           04987         bcf     PCLATH, 0x3                                 ; reg: 0x00a
10A2   120A           04988         bcf     PCLATH, 0x4                                 ; reg: 0x00a
10A3   211F           04989         call    function_008
10A4   118A           04990         bcf     PCLATH, 0x3                                 ; reg: 0x00a
10A5   160A           04991         bsf     PCLATH, 0x4                                 ; reg: 0x00a
10A6   1F86           04992         btfss   PORTB, RB7                                  ; reg: 0x006, bit: 7
10A7   289F           04993         goto    label_166
10A8   2495           04994         call    function_074
10A9   28B3           04995         goto    label_168
                      04996 
10AA                  04997 label_167:                                                  ; address: 0x10aa
                      04998 
10AA   118A           04999         bcf     PCLATH, 0x3                                 ; reg: 0x00a
10AB   120A           05000         bcf     PCLATH, 0x4                                 ; reg: 0x00a
10AC   236D           05001         call    function_025
10AD   118A           05002         bcf     PCLATH, 0x3                                 ; reg: 0x00a
10AE   160A           05003         bsf     PCLATH, 0x4                                 ; reg: 0x00a
10AF   1803           05004         btfsc   STATUS, C                                   ; reg: 0x003, bit: 0
10B0   28AA           05005         goto    label_167
10B1   083C           05006         movf    0x3c, W                                     ; reg: 0x03c
10B2   2037           05007         call    function_062
                      05008 
10B3                  05009 label_168:                                                  ; address: 0x10b3
                      05010 
10B3   1683           05011         bsf     STATUS, RP0                                 ; reg: 0x003, bit: 5
10B4   1303           05012         bcf     STATUS, RP1                                 ; reg: 0x003, bit: 6
10B5   30FF           05013         movlw   0xff
10B6   00D7           05014         movwf   0x57                                        ; reg: 0x0d7
10B7   00D5           05015         movwf   0x55                                        ; reg: 0x0d5
10B8   1283           05016         bcf     STATUS, RP0                                 ; reg: 0x003, bit: 5
10B9   1303           05017         bcf     STATUS, RP1                                 ; reg: 0x003, bit: 6
10BA   0008           05018         return
                      05019 
10BB                  05020 label_169:                                                  ; address: 0x10bb
                      05021 
10BB   0820           05022         movf    0x20, W                                     ; reg: 0x020
10BC   00F9           05023         movwf   (Common_RAM + 9)                            ; reg: 0x079
gpasm-1.5.0 #1285 (Jan 23 2020) unidds_v1_10.   27.01.2020  22:56:48        PAGE 96


LOC    OBJECT CODE    LINE  SOURCE TEXT
  VALUE

10BD   3000           05024         movlw   0x00
10BE   00F8           05025         movwf   (Common_RAM + 8)                            ; reg: 0x078
10BF   118A           05026         bcf     PCLATH, 0x3                                 ; reg: 0x00a
10C0   120A           05027         bcf     PCLATH, 0x4                                 ; reg: 0x00a
10C1   2623           05028         call    function_052
10C2   118A           05029         bcf     PCLATH, 0x3                                 ; reg: 0x00a
10C3   160A           05030         bsf     PCLATH, 0x4                                 ; reg: 0x00a
                      05031 
10C4                  05032 label_170:                                                  ; address: 0x10c4
                      05033 
10C4   118A           05034         bcf     PCLATH, 0x3                                 ; reg: 0x00a
10C5   120A           05035         bcf     PCLATH, 0x4                                 ; reg: 0x00a
10C6   2184           05036         call    function_017
10C7   118A           05037         bcf     PCLATH, 0x3                                 ; reg: 0x00a
10C8   160A           05038         bsf     PCLATH, 0x4                                 ; reg: 0x00a
10C9   1532           05039         bsf     0x32, 0x2                                   ; reg: 0x032
10CA   14B2           05040         bsf     0x32, 0x1                                   ; reg: 0x032
10CB   1683           05041         bsf     STATUS, RP0                                 ; reg: 0x003, bit: 5
10CC   1303           05042         bcf     STATUS, RP1                                 ; reg: 0x003, bit: 6
10CD   30FF           05043         movlw   0xff
10CE   00D7           05044         movwf   0x57                                        ; reg: 0x0d7
10CF   00D5           05045         movwf   0x55                                        ; reg: 0x0d5
10D0   1283           05046         bcf     STATUS, RP0                                 ; reg: 0x003, bit: 5
10D1   1303           05047         bcf     STATUS, RP1                                 ; reg: 0x003, bit: 6
10D2   0008           05048         return
10D3   1C32           05049         btfss   0x32, 0x0                                   ; reg: 0x032
10D4   28D7           05050         goto    label_171
10D5   1032           05051         bcf     0x32, 0x0                                   ; reg: 0x032
10D6   28D8           05052         goto    label_172
                      05053 
10D7                  05054 label_171:                                                  ; address: 0x10d7
                      05055 
10D7   1432           05056         bsf     0x32, 0x0                                   ; reg: 0x032
                      05057 
10D8                  05058 label_172:                                                  ; address: 0x10d8
                      05059 
10D8   28C4           05060         goto    label_170
10D9   12B2           05061         bcf     0x32, 0x5                                   ; reg: 0x032
10DA   1DA0           05062         btfss   0x20, 0x3                                   ; reg: 0x020
10DB   28E3           05063         goto    label_174
10DC   11A0           05064         bcf     0x20, 0x3                                   ; reg: 0x020
10DD   1832           05065         btfsc   0x32, 0x0                                   ; reg: 0x032
10DE   28E1           05066         goto    label_173
10DF   2105           05067         call    function_066
10E0   28E9           05068         goto    label_176
                      05069 
10E1                  05070 label_173:                                                  ; address: 0x10e1
                      05071 
10E1   20FC           05072         call    function_065
10E2   28E9           05073         goto    label_176
                      05074 
10E3                  05075 label_174:                                                  ; address: 0x10e3
                      05076 
gpasm-1.5.0 #1285 (Jan 23 2020) unidds_v1_10.   27.01.2020  22:56:48        PAGE 97


LOC    OBJECT CODE    LINE  SOURCE TEXT
  VALUE

10E3   15A0           05077         bsf     0x20, 0x3                                   ; reg: 0x020
10E4   1C32           05078         btfss   0x32, 0x0                                   ; reg: 0x032
10E5   28E8           05079         goto    label_175
10E6   2105           05080         call    function_066
10E7   28E9           05081         goto    label_176
                      05082 
10E8                  05083 label_175:                                                  ; address: 0x10e8
                      05084 
10E8   20FC           05085         call    function_065
                      05086 
10E9                  05087 label_176:                                                  ; address: 0x10e9
                      05088 
10E9   28C4           05089         goto    label_170
10EA   1CA0           05090         btfss   0x20, 0x1                                   ; reg: 0x020
10EB   28EE           05091         goto    label_177
10EC   10A0           05092         bcf     0x20, 0x1                                   ; reg: 0x020
10ED   28EF           05093         goto    label_178
                      05094 
10EE                  05095 label_177:                                                  ; address: 0x10ee
                      05096 
10EE   14A0           05097         bsf     0x20, 0x1                                   ; reg: 0x020
                      05098 
10EF                  05099 label_178:                                                  ; address: 0x10ef
                      05100 
10EF   28BB           05101         goto    label_169
10F0   1920           05102         btfsc   0x20, 0x2                                   ; reg: 0x020
10F1   28F6           05103         goto    label_179
10F2   1520           05104         bsf     0x20, 0x2                                   ; reg: 0x020
10F3   1605           05105         bsf     PORTA, RA4                                  ; reg: 0x005, bit: 4
10F4   1020           05106         bcf     0x20, 0x0                                   ; reg: 0x020
10F5   28BB           05107         goto    label_169
                      05108 
10F6                  05109 label_179:                                                  ; address: 0x10f6
                      05110 
10F6   1120           05111         bcf     0x20, 0x2                                   ; reg: 0x020
10F7   1205           05112         bcf     PORTA, RA4                                  ; reg: 0x005, bit: 4
10F8   1420           05113         bsf     0x20, 0x0                                   ; reg: 0x020
10F9   28BB           05114         goto    label_169
10FA   2495           05115         call    function_074
10FB   28C4           05116         goto    label_170
                      05117 
10FC                  05118 function_065:                                               ; address: 0x10fc
                      05119 
10FC   082A           05120         movf    0x2a, W                                     ; reg: 0x02a
10FD   00AE           05121         movwf   0x2e                                        ; reg: 0x02e
10FE   0829           05122         movf    0x29, W                                     ; reg: 0x029
10FF   00AD           05123         movwf   0x2d                                        ; reg: 0x02d
1100   082B           05124         movf    0x2b, W                                     ; reg: 0x02b
1101   00AF           05125         movwf   0x2f                                        ; reg: 0x02f
1102   082C           05126         movf    0x2c, W                                     ; reg: 0x02c
1103   00B0           05127         movwf   0x30                                        ; reg: 0x030
1104   0008           05128         return
                      05129 
gpasm-1.5.0 #1285 (Jan 23 2020) unidds_v1_10.   27.01.2020  22:56:48        PAGE 98


LOC    OBJECT CODE    LINE  SOURCE TEXT
  VALUE

1105                  05130 function_066:                                               ; address: 0x1105
                      05131 
1105   082E           05132         movf    0x2e, W                                     ; reg: 0x02e
1106   00AA           05133         movwf   0x2a                                        ; reg: 0x02a
1107   082D           05134         movf    0x2d, W                                     ; reg: 0x02d
1108   00A9           05135         movwf   0x29                                        ; reg: 0x029
1109   082F           05136         movf    0x2f, W                                     ; reg: 0x02f
110A   00AB           05137         movwf   0x2b                                        ; reg: 0x02b
110B   0830           05138         movf    0x30, W                                     ; reg: 0x030
110C   00AC           05139         movwf   0x2c                                        ; reg: 0x02c
110D   0008           05140         return
110E   1AB2           05141         btfsc   0x32, 0x5                                   ; reg: 0x032
110F   2926           05142         goto    label_182
1110   1C32           05143         btfss   0x32, 0x0                                   ; reg: 0x032
1111   2914           05144         goto    label_180
1112   2105           05145         call    function_066
1113   2915           05146         goto    label_181
                      05147 
1114                  05148 label_180:                                                  ; address: 0x1114
                      05149 
1114   20FC           05150         call    function_065
                      05151 
1115                  05152 label_181:                                                  ; address: 0x1115
                      05153 
1115   11A0           05154         bcf     0x20, 0x3                                   ; reg: 0x020
1116   16B2           05155         bsf     0x32, 0x5                                   ; reg: 0x032
1117   303F           05156         movlw   0x3f
1118   00B4           05157         movwf   0x34                                        ; reg: 0x034
1119   3029           05158         movlw   0x29
111A   1C32           05159         btfss   0x32, 0x0                                   ; reg: 0x032
111B   302D           05160         movlw   0x2d
111C   00B3           05161         movwf   0x33                                        ; reg: 0x033
111D   118A           05162         bcf     PCLATH, 0x3                                 ; reg: 0x00a
111E   120A           05163         bcf     PCLATH, 0x4                                 ; reg: 0x00a
111F   238C           05164         call    function_027
1120   3010           05165         movlw   0x10
1121   00C0           05166         movwf   0x40                                        ; reg: 0x040
1122   23C0           05167         call    0x03c0
1123   118A           05168         bcf     PCLATH, 0x3                                 ; reg: 0x00a
1124   160A           05169         bsf     PCLATH, 0x4                                 ; reg: 0x00a
1125   2927           05170         goto    label_183
                      05171 
1126                  05172 label_182:                                                  ; address: 0x1126
                      05173 
1126   12B2           05174         bcf     0x32, 0x5                                   ; reg: 0x032
                      05175 
1127                  05176 label_183:                                                  ; address: 0x1127
                      05177 
1127   28C4           05178         goto    label_170
1128   1AB2           05179         btfsc   0x32, 0x5                                   ; reg: 0x032
1129   2940           05180         goto    label_186
112A   1C32           05181         btfss   0x32, 0x0                                   ; reg: 0x032
112B   292E           05182         goto    label_184
gpasm-1.5.0 #1285 (Jan 23 2020) unidds_v1_10.   27.01.2020  22:56:48        PAGE 99


LOC    OBJECT CODE    LINE  SOURCE TEXT
  VALUE

112C   2105           05183         call    function_066
112D   292F           05184         goto    label_185
                      05185 
112E                  05186 label_184:                                                  ; address: 0x112e
                      05187 
112E   20FC           05188         call    function_065
                      05189 
112F                  05190 label_185:                                                  ; address: 0x112f
                      05191 
112F   11A0           05192         bcf     0x20, 0x3                                   ; reg: 0x020
1130   16B2           05193         bsf     0x32, 0x5                                   ; reg: 0x032
1131   303F           05194         movlw   0x3f
1132   00B4           05195         movwf   0x34                                        ; reg: 0x034
1133   3029           05196         movlw   0x29
1134   1C32           05197         btfss   0x32, 0x0                                   ; reg: 0x032
1135   302D           05198         movlw   0x2d
1136   00B3           05199         movwf   0x33                                        ; reg: 0x033
1137   118A           05200         bcf     PCLATH, 0x3                                 ; reg: 0x00a
1138   120A           05201         bcf     PCLATH, 0x4                                 ; reg: 0x00a
1139   238C           05202         call    function_027
113A   3020           05203         movlw   0x20
113B   00C0           05204         movwf   0x40                                        ; reg: 0x040
113C   23C0           05205         call    0x03c0
113D   118A           05206         bcf     PCLATH, 0x3                                 ; reg: 0x00a
113E   160A           05207         bsf     PCLATH, 0x4                                 ; reg: 0x00a
113F   2941           05208         goto    label_187
                      05209 
1140                  05210 label_186:                                                  ; address: 0x1140
                      05211 
1140   12B2           05212         bcf     0x32, 0x5                                   ; reg: 0x032
                      05213 
1141                  05214 label_187:                                                  ; address: 0x1141
                      05215 
1141   28C4           05216         goto    label_170
1142   1C20           05217         btfss   0x20, 0x0                                   ; reg: 0x020
1143   2948           05218         goto    label_188
1144   1020           05219         bcf     0x20, 0x0                                   ; reg: 0x020
1145   1205           05220         bcf     PORTA, RA4                                  ; reg: 0x005, bit: 4
1146   1120           05221         bcf     0x20, 0x2                                   ; reg: 0x020
1147   2950           05222         goto    label_189
                      05223 
1148                  05224 label_188:                                                  ; address: 0x1148
                      05225 
1148   118A           05226         bcf     PCLATH, 0x3                                 ; reg: 0x00a
1149   120A           05227         bcf     PCLATH, 0x4                                 ; reg: 0x00a
114A   2620           05228         call    function_051
114B   118A           05229         bcf     PCLATH, 0x3                                 ; reg: 0x00a
114C   160A           05230         bsf     PCLATH, 0x4                                 ; reg: 0x00a
114D   1420           05231         bsf     0x20, 0x0                                   ; reg: 0x020
114E   1120           05232         bcf     0x20, 0x2                                   ; reg: 0x020
114F   1605           05233         bsf     PORTA, RA4                                  ; reg: 0x005, bit: 4
                      05234 
1150                  05235 label_189:                                                  ; address: 0x1150
gpasm-1.5.0 #1285 (Jan 23 2020) unidds_v1_10.   27.01.2020  22:56:48        PAGE 100


LOC    OBJECT CODE    LINE  SOURCE TEXT
  VALUE

                      05236 
1150   28BB           05237         goto    label_169
1151   1EA0           05238         btfss   0x20, 0x5                                   ; reg: 0x020
1152   2955           05239         goto    label_190
1153   12A0           05240         bcf     0x20, 0x5                                   ; reg: 0x020
1154   28BB           05241         goto    label_169
                      05242 
1155                  05243 label_190:                                                  ; address: 0x1155
                      05244 
1155   16A0           05245         bsf     0x20, 0x5                                   ; reg: 0x020
1156   28BB           05246         goto    label_169
1157   1F20           05247         btfss   0x20, 0x6                                   ; reg: 0x020
1158   295B           05248         goto    label_191
1159   1320           05249         bcf     0x20, 0x6                                   ; reg: 0x020
115A   28BB           05250         goto    label_169
                      05251 
115B                  05252 label_191:                                                  ; address: 0x115b
                      05253 
115B   1720           05254         bsf     0x20, 0x6                                   ; reg: 0x020
115C   28BB           05255         goto    label_169
115D   1E20           05256         btfss   0x20, 0x4                                   ; reg: 0x020
115E   2961           05257         goto    label_192
115F   1220           05258         bcf     0x20, 0x4                                   ; reg: 0x020
1160   28BB           05259         goto    label_169
                      05260 
1161                  05261 label_192:                                                  ; address: 0x1161
                      05262 
1161   1620           05263         bsf     0x20, 0x4                                   ; reg: 0x020
1162   28BB           05264         goto    label_169
1163   118A           05265         bcf     PCLATH, 0x3                                 ; reg: 0x00a
1164   120A           05266         bcf     PCLATH, 0x4                                 ; reg: 0x00a
1165   2184           05267         call    function_017
1166   2800           05268         goto    0x0000
1167   3001           05269         movlw   0x01
1168   1632           05270         bsf     0x32, 0x4                                   ; reg: 0x032
1169   2987           05271         goto    0x0187
116A   3009           05272         movlw   0x09
116B   2989           05273         goto    0x0189
116C   300D           05274         movlw   0x0d
116D   2989           05275         goto    0x0189
116E   3005           05276         movlw   0x05
116F   15B2           05277         bsf     0x32, 0x3                                   ; reg: 0x032
1170   298C           05278         goto    0x018c
1171   3011           05279         movlw   0x11
1172   2989           05280         goto    0x0189
1173   3015           05281         movlw   0x15
1174   2989           05282         goto    0x0189
                      05283 
1175                  05284 label_193:                                                  ; address: 0x1175
                      05285 
1175   118A           05286         bcf     PCLATH, 0x3                                 ; reg: 0x00a
1176   120A           05287         bcf     PCLATH, 0x4                                 ; reg: 0x00a
1177   2184           05288         call    function_017
gpasm-1.5.0 #1285 (Jan 23 2020) unidds_v1_10.   27.01.2020  22:56:48        PAGE 101


LOC    OBJECT CODE    LINE  SOURCE TEXT
  VALUE

1178   300A           05289         movlw   0x0a
1179   00F4           05290         movwf   (Common_RAM + 4)                            ; reg: 0x074
117A   30EC           05291         movlw   0xec
117B   218E           05292         call    0x018e
117C   2117           05293         call    0x0117
117D   118A           05294         bcf     PCLATH, 0x3                                 ; reg: 0x00a
117E   160A           05295         bsf     PCLATH, 0x4                                 ; reg: 0x00a
117F   300F           05296         movlw   0x0f
1180   00C7           05297         movwf   0x47                                        ; reg: 0x047
1181   218F           05298         call    function_068
1182   158A           05299         bsf     PCLATH, 0x3                                 ; reg: 0x00a
1183   160A           05300         bsf     PCLATH, 0x4                                 ; reg: 0x00a
                      05301 
1184                  05302 function_067:                                               ; address: 0x1184
                      05303 
1184   20BA           05304         call    function_081
1185   118A           05305         bcf     PCLATH, 0x3                                 ; reg: 0x00a
1186   160A           05306         bsf     PCLATH, 0x4                                 ; reg: 0x00a
1187   01C7           05307         clrf    0x47                                        ; reg: 0x047
1188   298F           05308         goto    function_068
1189   01C7           05309         clrf    0x47                                        ; reg: 0x047
118A   1447           05310         bsf     0x47, 0x0                                   ; reg: 0x047
118B   298F           05311         goto    function_068
118C   01C7           05312         clrf    0x47                                        ; reg: 0x047
118D   1447           05313         bsf     0x47, 0x0                                   ; reg: 0x047
118E   14C7           05314         bsf     0x47, 0x1                                   ; reg: 0x047
                      05315 
118F                  05316 function_068:                                               ; address: 0x118f
                      05317 
118F   00C6           05318         movwf   0x46                                        ; reg: 0x046
1190   00F8           05319         movwf   (Common_RAM + 8)                            ; reg: 0x078
1191   01BF           05320         clrf    0x3f                                        ; reg: 0x03f
1192   01C0           05321         clrf    0x40                                        ; reg: 0x040
1193   01C1           05322         clrf    0x41                                        ; reg: 0x041
1194   01C2           05323         clrf    0x42                                        ; reg: 0x042
1195   01C3           05324         clrf    0x43                                        ; reg: 0x043
1196   1947           05325         btfsc   0x47, 0x2                                   ; reg: 0x047
1197   29A1           05326         goto    label_194
1198   3004           05327         movlw   0x04
1199   00B8           05328         movwf   0x38                                        ; reg: 0x038
119A   3040           05329         movlw   0x40
119B   0084           05330         movwf   FSR                                         ; reg: 0x004
119C   118A           05331         bcf     PCLATH, 0x3                                 ; reg: 0x00a
119D   120A           05332         bcf     PCLATH, 0x4                                 ; reg: 0x00a
119E   266E           05333         call    function_055
119F   118A           05334         bcf     PCLATH, 0x3                                 ; reg: 0x00a
11A0   160A           05335         bsf     PCLATH, 0x4                                 ; reg: 0x00a
                      05336 
11A1                  05337 label_194:                                                  ; address: 0x11a1
                      05338 
11A1   18C7           05339         btfsc   0x47, 0x1                                   ; reg: 0x047
11A2   2679           05340         call    function_076
11A3   01C4           05341         clrf    0x44                                        ; reg: 0x044
gpasm-1.5.0 #1285 (Jan 23 2020) unidds_v1_10.   27.01.2020  22:56:48        PAGE 102


LOC    OBJECT CODE    LINE  SOURCE TEXT
  VALUE

11A4   19C7           05342         btfsc   0x47, 0x3                                   ; reg: 0x047
11A5   14C4           05343         bsf     0x44, 0x1                                   ; reg: 0x044
11A6   220D           05344         call    function_069
11A7   01BE           05345         clrf    0x3e                                        ; reg: 0x03e
                      05346 
11A8                  05347 label_195:                                                  ; address: 0x11a8
                      05348 
11A8   1A86           05349         btfsc   PORTB, RB5                                  ; reg: 0x006, bit: 5
11A9   29D5           05350         goto    label_200
                      05351 
11AA                  05352 label_196:                                                  ; address: 0x11aa
                      05353 
11AA   118A           05354         bcf     PCLATH, 0x3                                 ; reg: 0x00a
11AB   120A           05355         bcf     PCLATH, 0x4                                 ; reg: 0x00a
11AC   236D           05356         call    function_025
11AD   118A           05357         bcf     PCLATH, 0x3                                 ; reg: 0x00a
11AE   160A           05358         bsf     PCLATH, 0x4                                 ; reg: 0x00a
11AF   1803           05359         btfsc   STATUS, C                                   ; reg: 0x003, bit: 0
11B0   29AA           05360         goto    label_196
11B1   083F           05361         movf    0x3f, W                                     ; reg: 0x03f
11B2   1903           05362         btfsc   STATUS, Z                                   ; reg: 0x003, bit: 2
11B3   29CF           05363         goto    label_199
11B4   083F           05364         movf    0x3f, W                                     ; reg: 0x03f
11B5   3A01           05365         xorlw   0x01
11B6   1D03           05366         btfss   STATUS, Z                                   ; reg: 0x003, bit: 2
11B7   29C8           05367         goto    label_198
11B8   18C7           05368         btfsc   0x47, 0x1                                   ; reg: 0x047
11B9   26AC           05369         call    function_077
11BA   1947           05370         btfsc   0x47, 0x2                                   ; reg: 0x047
11BB   29C7           05371         goto    label_197
11BC   3004           05372         movlw   0x04
11BD   00B8           05373         movwf   0x38                                        ; reg: 0x038
11BE   3040           05374         movlw   0x40
11BF   0084           05375         movwf   FSR                                         ; reg: 0x004
11C0   0846           05376         movf    0x46, W                                     ; reg: 0x046
11C1   00F8           05377         movwf   (Common_RAM + 8)                            ; reg: 0x078
11C2   118A           05378         bcf     PCLATH, 0x3                                 ; reg: 0x00a
11C3   120A           05379         bcf     PCLATH, 0x4                                 ; reg: 0x00a
11C4   2675           05380         call    function_056
11C5   118A           05381         bcf     PCLATH, 0x3                                 ; reg: 0x00a
11C6   160A           05382         bsf     PCLATH, 0x4                                 ; reg: 0x00a
                      05383 
11C7                  05384 label_197:                                                  ; address: 0x11c7
                      05385 
11C7   2A0C           05386         goto    label_206
                      05387 
11C8                  05388 label_198:                                                  ; address: 0x11c8
                      05389 
11C8   083F           05390         movf    0x3f, W                                     ; reg: 0x03f
11C9   3A02           05391         xorlw   0x02
11CA   1D03           05392         btfss   STATUS, Z                                   ; reg: 0x003, bit: 2
11CB   29CF           05393         goto    label_199
11CC   18C7           05394         btfsc   0x47, 0x1                                   ; reg: 0x047
gpasm-1.5.0 #1285 (Jan 23 2020) unidds_v1_10.   27.01.2020  22:56:48        PAGE 103


LOC    OBJECT CODE    LINE  SOURCE TEXT
  VALUE

11CD   26AC           05395         call    function_077
11CE   2A0C           05396         goto    label_206
                      05397 
11CF                  05398 label_199:                                                  ; address: 0x11cf
                      05399 
11CF   0AC4           05400         incf    0x44, F                                     ; reg: 0x044
11D0   0844           05401         movf    0x44, W                                     ; reg: 0x044
11D1   3A05           05402         xorlw   0x05
11D2   1903           05403         btfsc   STATUS, Z                                   ; reg: 0x003, bit: 2
11D3   01C4           05404         clrf    0x44                                        ; reg: 0x044
11D4   220D           05405         call    function_069
                      05406 
11D5                  05407 label_200:                                                  ; address: 0x11d5
                      05408 
11D5   08BE           05409         movf    0x3e, F                                     ; reg: 0x03e
11D6   1903           05410         btfsc   STATUS, Z                                   ; reg: 0x003, bit: 2
11D7   29A8           05411         goto    label_195
11D8   3043           05412         movlw   0x43
11D9   0084           05413         movwf   FSR                                         ; reg: 0x004
11DA   0844           05414         movf    0x44, W                                     ; reg: 0x044
11DB   0284           05415         subwf   FSR, F                                      ; reg: 0x004
11DC   1BBE           05416         btfsc   0x3e, 0x7                                   ; reg: 0x03e
11DD   29F0           05417         goto    label_202
11DE   3001           05418         movlw   0x01
11DF   0780           05419         addwf   INDF, F                                     ; reg: 0x000
11E0   1C47           05420         btfss   0x47, 0x0                                   ; reg: 0x047
11E1   29F0           05421         goto    label_202
11E2   0800           05422         movf    INDF, W                                     ; reg: 0x000
11E3   00CF           05423         movwf   0x4f                                        ; reg: 0x04f
11E4   3006           05424         movlw   0x06
11E5   074F           05425         addwf   0x4f, W                                     ; reg: 0x04f
11E6   1C83           05426         btfss   STATUS, DC                                  ; reg: 0x003, bit: 1
11E7   29E9           05427         goto    label_201
11E8   0080           05428         movwf   INDF                                        ; reg: 0x000
                      05429 
11E9                  05430 label_201:                                                  ; address: 0x11e9
                      05431 
11E9   0800           05432         movf    INDF, W                                     ; reg: 0x000
11EA   00CF           05433         movwf   0x4f                                        ; reg: 0x04f
11EB   3060           05434         movlw   0x60
11EC   074F           05435         addwf   0x4f, W                                     ; reg: 0x04f
11ED   1C03           05436         btfss   STATUS, C                                   ; reg: 0x003, bit: 0
11EE   29F0           05437         goto    label_202
11EF   0080           05438         movwf   INDF                                        ; reg: 0x000
                      05439 
11F0                  05440 label_202:                                                  ; address: 0x11f0
                      05441 
11F0   1FBE           05442         btfss   0x3e, 0x7                                   ; reg: 0x03e
11F1   29FF           05443         goto    label_204
11F2   3001           05444         movlw   0x01
11F3   0280           05445         subwf   INDF, F                                     ; reg: 0x000
11F4   1C47           05446         btfss   0x47, 0x0                                   ; reg: 0x047
11F5   29FF           05447         goto    label_204
gpasm-1.5.0 #1285 (Jan 23 2020) unidds_v1_10.   27.01.2020  22:56:48        PAGE 104


LOC    OBJECT CODE    LINE  SOURCE TEXT
  VALUE

11F6   0DC8           05448         rlf     0x48, F                                     ; reg: 0x048
11F7   1883           05449         btfsc   STATUS, DC                                  ; reg: 0x003, bit: 1
11F8   29FB           05450         goto    label_203
11F9   3006           05451         movlw   0x06
11FA   0280           05452         subwf   INDF, F                                     ; reg: 0x000
                      05453 
11FB                  05454 label_203:                                                  ; address: 0x11fb
                      05455 
11FB   1848           05456         btfsc   0x48, 0x0                                   ; reg: 0x048
11FC   29FF           05457         goto    label_204
11FD   3060           05458         movlw   0x60
11FE   0280           05459         subwf   INDF, F                                     ; reg: 0x000
                      05460 
11FF                  05461 label_204:                                                  ; address: 0x11ff
                      05462 
11FF   083F           05463         movf    0x3f, W                                     ; reg: 0x03f
1200   3A03           05464         xorlw   0x03
1201   1903           05465         btfsc   STATUS, Z                                   ; reg: 0x003, bit: 2
1202   01BF           05466         clrf    0x3f                                        ; reg: 0x03f
1203   083F           05467         movf    0x3f, W                                     ; reg: 0x03f
1204   3AFF           05468         xorlw   0xff
1205   1D03           05469         btfss   STATUS, Z                                   ; reg: 0x003, bit: 2
1206   2A09           05470         goto    label_205
1207   3002           05471         movlw   0x02
1208   00BF           05472         movwf   0x3f                                        ; reg: 0x03f
                      05473 
1209                  05474 label_205:                                                  ; address: 0x1209
                      05475 
1209   220D           05476         call    function_069
120A   01BE           05477         clrf    0x3e                                        ; reg: 0x03e
120B   29A8           05478         goto    label_195
                      05479 
120C                  05480 label_206:                                                  ; address: 0x120c
                      05481 
120C   0008           05482         return
                      05483 
120D                  05484 function_069:                                               ; address: 0x120d
                      05485 
120D   0840           05486         movf    0x40, W                                     ; reg: 0x040
                      05487 
120E                  05488 label_207:                                                  ; address: 0x120e
                      05489 
120E   00FB           05490         movwf   (Common_RAM + 11)                           ; reg: 0x07b
120F   083F           05491         movf    0x3f, W                                     ; reg: 0x03f
1210   00FA           05492         movwf   (Common_RAM + 10)                           ; reg: 0x07a
1211   0841           05493         movf    0x41, W                                     ; reg: 0x041
1212   00FC           05494         movwf   (Common_RAM + 12)                           ; reg: 0x07c
1213   0842           05495         movf    0x42, W                                     ; reg: 0x042
1214   00FD           05496         movwf   (Common_RAM + 13)                           ; reg: 0x07d
1215   1683           05497         bsf     STATUS, RP0                                 ; reg: 0x003, bit: 5
1216   1303           05498         bcf     STATUS, RP1                                 ; reg: 0x003, bit: 6
1217   087B           05499         movf    0x7b, W                                     ; reg: 0x0fb
1218   00B4           05500         movwf   0x34                                        ; reg: 0x0b4
gpasm-1.5.0 #1285 (Jan 23 2020) unidds_v1_10.   27.01.2020  22:56:48        PAGE 105


LOC    OBJECT CODE    LINE  SOURCE TEXT
  VALUE

1219   087A           05501         movf    0x7a, W                                     ; reg: 0x0fa
121A   00B3           05502         movwf   0x33                                        ; reg: 0x0b3
121B   087C           05503         movf    0x7c, W                                     ; reg: 0x0fc
121C   00B5           05504         movwf   0x35                                        ; reg: 0x0b5
121D   087D           05505         movf    0x7d, W                                     ; reg: 0x0fd
121E   00B6           05506         movwf   0x36                                        ; reg: 0x0b6
121F   1283           05507         bcf     STATUS, RP0                                 ; reg: 0x003, bit: 5
1220   1303           05508         bcf     STATUS, RP1                                 ; reg: 0x003, bit: 6
1221   0844           05509         movf    0x44, W                                     ; reg: 0x044
1222   00FB           05510         movwf   (Common_RAM + 11)                           ; reg: 0x07b
1223   0843           05511         movf    0x43, W                                     ; reg: 0x043
1224   00FA           05512         movwf   (Common_RAM + 10)                           ; reg: 0x07a
1225   0845           05513         movf    0x45, W                                     ; reg: 0x045
1226   00FC           05514         movwf   (Common_RAM + 12)                           ; reg: 0x07c
1227   0846           05515         movf    0x46, W                                     ; reg: 0x046
1228   00FD           05516         movwf   (Common_RAM + 13)                           ; reg: 0x07d
1229   1683           05517         bsf     STATUS, RP0                                 ; reg: 0x003, bit: 5
122A   1303           05518         bcf     STATUS, RP1                                 ; reg: 0x003, bit: 6
122B   087B           05519         movf    0x7b, W                                     ; reg: 0x0fb
122C   00B8           05520         movwf   0x38                                        ; reg: 0x0b8
122D   087A           05521         movf    0x7a, W                                     ; reg: 0x0fa
122E   00B7           05522         movwf   0x37                                        ; reg: 0x0b7
122F   087C           05523         movf    0x7c, W                                     ; reg: 0x0fc
1230   00B9           05524         movwf   0x39                                        ; reg: 0x0b9
1231   087D           05525         movf    0x7d, W                                     ; reg: 0x0fd
1232   00BA           05526         movwf   0x3a                                        ; reg: 0x0ba
1233   1283           05527         bcf     STATUS, RP0                                 ; reg: 0x003, bit: 5
1234   1303           05528         bcf     STATUS, RP1                                 ; reg: 0x003, bit: 6
1235   0848           05529         movf    0x48, W                                     ; reg: 0x048
1236   00FB           05530         movwf   (Common_RAM + 11)                           ; reg: 0x07b
1237   0847           05531         movf    0x47, W                                     ; reg: 0x047
1238   00FA           05532         movwf   (Common_RAM + 10)                           ; reg: 0x07a
1239   0849           05533         movf    0x49, W                                     ; reg: 0x049
123A   00FC           05534         movwf   (Common_RAM + 12)                           ; reg: 0x07c
123B   084A           05535         movf    0x4a, W                                     ; reg: 0x04a
123C   00FD           05536         movwf   (Common_RAM + 13)                           ; reg: 0x07d
123D   1683           05537         bsf     STATUS, RP0                                 ; reg: 0x003, bit: 5
123E   1303           05538         bcf     STATUS, RP1                                 ; reg: 0x003, bit: 6
123F   087B           05539         movf    0x7b, W                                     ; reg: 0x0fb
1240   00BC           05540         movwf   0x3c                                        ; reg: 0x0bc
1241   087A           05541         movf    0x7a, W                                     ; reg: 0x0fa
1242   00BB           05542         movwf   0x3b                                        ; reg: 0x0bb
1243   087C           05543         movf    0x7c, W                                     ; reg: 0x0fc
1244   00BD           05544         movwf   0x3d                                        ; reg: 0x0bd
1245   087D           05545         movf    0x7d, W                                     ; reg: 0x0fd
1246   00BE           05546         movwf   0x3e                                        ; reg: 0x0be
1247   1283           05547         bcf     STATUS, RP0                                 ; reg: 0x003, bit: 5
1248   1303           05548         bcf     STATUS, RP1                                 ; reg: 0x003, bit: 6
1249   1E32           05549         btfss   0x32, 0x4                                   ; reg: 0x032
124A   2A5C           05550         goto    label_208
124B   0841           05551         movf    0x41, W                                     ; reg: 0x041
124C   00A2           05552         movwf   0x22                                        ; reg: 0x022
124D   0840           05553         movf    0x40, W                                     ; reg: 0x040
gpasm-1.5.0 #1285 (Jan 23 2020) unidds_v1_10.   27.01.2020  22:56:48        PAGE 106


LOC    OBJECT CODE    LINE  SOURCE TEXT
  VALUE

124E   00A1           05554         movwf   0x21                                        ; reg: 0x021
124F   0842           05555         movf    0x42, W                                     ; reg: 0x042
1250   00A3           05556         movwf   0x23                                        ; reg: 0x023
1251   0843           05557         movf    0x43, W                                     ; reg: 0x043
1252   00A4           05558         movwf   0x24                                        ; reg: 0x024
1253   3006           05559         movlw   0x06
1254   00AC           05560         movwf   0x2c                                        ; reg: 0x02c
1255   3007           05561         movlw   0x07
1256   00AB           05562         movwf   0x2b                                        ; reg: 0x02b
1257   3050           05563         movlw   0x50
1258   00AA           05564         movwf   0x2a                                        ; reg: 0x02a
1259   3000           05565         movlw   0x00
125A   00A9           05566         movwf   0x29                                        ; reg: 0x029
125B   2A66           05567         goto    label_209
                      05568 
125C                  05569 label_208:                                                  ; address: 0x125c
                      05570 
125C   1DB2           05571         btfss   0x32, 0x3                                   ; reg: 0x032
125D   2A6E           05572         goto    label_210
125E   0841           05573         movf    0x41, W                                     ; reg: 0x041
125F   00AA           05574         movwf   0x2a                                        ; reg: 0x02a
1260   0840           05575         movf    0x40, W                                     ; reg: 0x040
1261   00A9           05576         movwf   0x29                                        ; reg: 0x029
1262   0842           05577         movf    0x42, W                                     ; reg: 0x042
1263   00AB           05578         movwf   0x2b                                        ; reg: 0x02b
1264   0843           05579         movf    0x43, W                                     ; reg: 0x043
1265   00AC           05580         movwf   0x2c                                        ; reg: 0x02c
                      05581 
1266                  05582 label_209:                                                  ; address: 0x1266
                      05583 
1266   16A0           05584         bsf     0x20, 0x5                                   ; reg: 0x020
1267   1032           05585         bcf     0x32, 0x0                                   ; reg: 0x032
1268   118A           05586         bcf     PCLATH, 0x3                                 ; reg: 0x00a
1269   120A           05587         bcf     PCLATH, 0x4                                 ; reg: 0x00a
126A   24ED           05588         call    function_038
126B   2528           05589         call    0x0528
126C   118A           05590         bcf     PCLATH, 0x3                                 ; reg: 0x00a
126D   160A           05591         bsf     PCLATH, 0x4                                 ; reg: 0x00a
                      05592 
126E                  05593 label_210:                                                  ; address: 0x126e
                      05594 
126E   1683           05595         bsf     STATUS, RP0                                 ; reg: 0x003, bit: 5
126F   1303           05596         bcf     STATUS, RP1                                 ; reg: 0x003, bit: 6
1270   0834           05597         movf    0x34, W                                     ; reg: 0x0b4
1271   00FB           05598         movwf   0x7b                                        ; reg: 0x0fb
1272   0833           05599         movf    0x33, W                                     ; reg: 0x0b3
1273   00FA           05600         movwf   0x7a                                        ; reg: 0x0fa
1274   0835           05601         movf    0x35, W                                     ; reg: 0x0b5
1275   00FC           05602         movwf   0x7c                                        ; reg: 0x0fc
1276   0836           05603         movf    0x36, W                                     ; reg: 0x0b6
1277   00FD           05604         movwf   0x7d                                        ; reg: 0x0fd
1278   1283           05605         bcf     STATUS, RP0                                 ; reg: 0x003, bit: 5
1279   1303           05606         bcf     STATUS, RP1                                 ; reg: 0x003, bit: 6
gpasm-1.5.0 #1285 (Jan 23 2020) unidds_v1_10.   27.01.2020  22:56:48        PAGE 107


LOC    OBJECT CODE    LINE  SOURCE TEXT
  VALUE

127A   087B           05607         movf    (Common_RAM + 11), W                        ; reg: 0x07b
127B   00C0           05608         movwf   0x40                                        ; reg: 0x040
127C   087A           05609         movf    (Common_RAM + 10), W                        ; reg: 0x07a
127D   00BF           05610         movwf   0x3f                                        ; reg: 0x03f
127E   087C           05611         movf    (Common_RAM + 12), W                        ; reg: 0x07c
127F   00C1           05612         movwf   0x41                                        ; reg: 0x041
1280   087D           05613         movf    (Common_RAM + 13), W                        ; reg: 0x07d
1281   00C2           05614         movwf   0x42                                        ; reg: 0x042
1282   1683           05615         bsf     STATUS, RP0                                 ; reg: 0x003, bit: 5
1283   1303           05616         bcf     STATUS, RP1                                 ; reg: 0x003, bit: 6
1284   0838           05617         movf    0x38, W                                     ; reg: 0x0b8
1285   00FB           05618         movwf   0x7b                                        ; reg: 0x0fb
1286   0837           05619         movf    0x37, W                                     ; reg: 0x0b7
1287   00FA           05620         movwf   0x7a                                        ; reg: 0x0fa
1288   0839           05621         movf    0x39, W                                     ; reg: 0x0b9
1289   00FC           05622         movwf   0x7c                                        ; reg: 0x0fc
128A   083A           05623         movf    0x3a, W                                     ; reg: 0x0ba
128B   00FD           05624         movwf   0x7d                                        ; reg: 0x0fd
128C   1283           05625         bcf     STATUS, RP0                                 ; reg: 0x003, bit: 5
128D   1303           05626         bcf     STATUS, RP1                                 ; reg: 0x003, bit: 6
128E   087B           05627         movf    (Common_RAM + 11), W                        ; reg: 0x07b
128F   00C4           05628         movwf   0x44                                        ; reg: 0x044
1290   087A           05629         movf    (Common_RAM + 10), W                        ; reg: 0x07a
1291   00C3           05630         movwf   0x43                                        ; reg: 0x043
1292   087C           05631         movf    (Common_RAM + 12), W                        ; reg: 0x07c
1293   00C5           05632         movwf   0x45                                        ; reg: 0x045
1294   087D           05633         movf    (Common_RAM + 13), W                        ; reg: 0x07d
1295   00C6           05634         movwf   0x46                                        ; reg: 0x046
1296   1683           05635         bsf     STATUS, RP0                                 ; reg: 0x003, bit: 5
1297   1303           05636         bcf     STATUS, RP1                                 ; reg: 0x003, bit: 6
1298   083C           05637         movf    0x3c, W                                     ; reg: 0x0bc
1299   00FB           05638         movwf   0x7b                                        ; reg: 0x0fb
129A   083B           05639         movf    0x3b, W                                     ; reg: 0x0bb
129B   00FA           05640         movwf   0x7a                                        ; reg: 0x0fa
129C   083D           05641         movf    0x3d, W                                     ; reg: 0x0bd
129D   00FC           05642         movwf   0x7c                                        ; reg: 0x0fc
129E   083E           05643         movf    0x3e, W                                     ; reg: 0x0be
129F   00FD           05644         movwf   0x7d                                        ; reg: 0x0fd
12A0   1283           05645         bcf     STATUS, RP0                                 ; reg: 0x003, bit: 5
12A1   1303           05646         bcf     STATUS, RP1                                 ; reg: 0x003, bit: 6
12A2   087B           05647         movf    (Common_RAM + 11), W                        ; reg: 0x07b
12A3   00C8           05648         movwf   0x48                                        ; reg: 0x048
12A4   087A           05649         movf    (Common_RAM + 10), W                        ; reg: 0x07a
12A5   00C7           05650         movwf   0x47                                        ; reg: 0x047
12A6   087C           05651         movf    (Common_RAM + 12), W                        ; reg: 0x07c
12A7   00C9           05652         movwf   0x49                                        ; reg: 0x049
12A8   087D           05653         movf    (Common_RAM + 13), W                        ; reg: 0x07d
12A9   00CA           05654         movwf   0x4a                                        ; reg: 0x04a
12AA   3043           05655         movlw   0x43
12AB   0084           05656         movwf   FSR                                         ; reg: 0x004
12AC   3004           05657         movlw   0x04
12AD   00B8           05658         movwf   0x38                                        ; reg: 0x038
12AE   118A           05659         bcf     PCLATH, 0x3                                 ; reg: 0x00a
gpasm-1.5.0 #1285 (Jan 23 2020) unidds_v1_10.   27.01.2020  22:56:48        PAGE 108


LOC    OBJECT CODE    LINE  SOURCE TEXT
  VALUE

12AF   120A           05660         bcf     PCLATH, 0x4                                 ; reg: 0x00a
12B0   2184           05661         call    function_017
12B1   300F           05662         movlw   0x0f
12B2   215A           05663         call    0x015a
12B3   118A           05664         bcf     PCLATH, 0x3                                 ; reg: 0x00a
12B4   160A           05665         bsf     PCLATH, 0x4                                 ; reg: 0x00a
                      05666 
12B5                  05667 label_211:                                                  ; address: 0x12b5
                      05668 
12B5   0800           05669         movf    INDF, W                                     ; reg: 0x000
12B6   118A           05670         bcf     PCLATH, 0x3                                 ; reg: 0x00a
12B7   120A           05671         bcf     PCLATH, 0x4                                 ; reg: 0x00a
12B8   21C3           05672         call    function_021
12B9   118A           05673         bcf     PCLATH, 0x3                                 ; reg: 0x00a
12BA   160A           05674         bsf     PCLATH, 0x4                                 ; reg: 0x00a
12BB   0384           05675         decf    FSR, F                                      ; reg: 0x004
12BC   0BB8           05676         decfsz  0x38, F                                     ; reg: 0x038
12BD   2AB5           05677         goto    label_211
12BE   083F           05678         movf    0x3f, W                                     ; reg: 0x03f
12BF   1903           05679         btfsc   STATUS, Z                                   ; reg: 0x003, bit: 2
12C0   2AD8           05680         goto    label_213
12C1   3A01           05681         xorlw   0x01
12C2   1D03           05682         btfss   STATUS, Z                                   ; reg: 0x003, bit: 2
12C3   2ACC           05683         goto    label_212
12C4   118A           05684         bcf     PCLATH, 0x3                                 ; reg: 0x00a
12C5   120A           05685         bcf     PCLATH, 0x4                                 ; reg: 0x00a
12C6   3008           05686         movlw   0x08
12C7   00F4           05687         movwf   (Common_RAM + 4)                            ; reg: 0x074
12C8   30AC           05688         movlw   0xac
12C9   218E           05689         call    function_019
12CA   118A           05690         bcf     PCLATH, 0x3                                 ; reg: 0x00a
12CB   160A           05691         bsf     PCLATH, 0x4                                 ; reg: 0x00a
                      05692 
12CC                  05693 label_212:                                                  ; address: 0x12cc
                      05694 
12CC   083F           05695         movf    0x3f, W                                     ; reg: 0x03f
12CD   3A02           05696         xorlw   0x02
12CE   1D03           05697         btfss   STATUS, Z                                   ; reg: 0x003, bit: 2
12CF   2AD8           05698         goto    label_213
12D0   118A           05699         bcf     PCLATH, 0x3                                 ; reg: 0x00a
12D1   120A           05700         bcf     PCLATH, 0x4                                 ; reg: 0x00a
12D2   3008           05701         movlw   0x08
12D3   00F4           05702         movwf   (Common_RAM + 4)                            ; reg: 0x074
12D4   30B5           05703         movlw   0xb5
12D5   218E           05704         call    function_019
12D6   118A           05705         bcf     PCLATH, 0x3                                 ; reg: 0x00a
12D7   160A           05706         bsf     PCLATH, 0x4                                 ; reg: 0x00a
                      05707 
12D8                  05708 label_213:                                                  ; address: 0x12d8
                      05709 
12D8   0844           05710         movf    0x44, W                                     ; reg: 0x044
12D9   00C5           05711         movwf   0x45                                        ; reg: 0x045
12DA   1003           05712         bcf     STATUS, C                                   ; reg: 0x003, bit: 0
gpasm-1.5.0 #1285 (Jan 23 2020) unidds_v1_10.   27.01.2020  22:56:48        PAGE 109


LOC    OBJECT CODE    LINE  SOURCE TEXT
  VALUE

12DB   0DC5           05713         rlf     0x45, F                                     ; reg: 0x045
12DC   0A45           05714         incf    0x45, W                                     ; reg: 0x045
12DD   3840           05715         iorlw   0x40
12DE   118A           05716         bcf     PCLATH, 0x3                                 ; reg: 0x00a
12DF   120A           05717         bcf     PCLATH, 0x4                                 ; reg: 0x00a
12E0   218C           05718         call    function_018
12E1   118A           05719         bcf     PCLATH, 0x3                                 ; reg: 0x00a
12E2   160A           05720         bsf     PCLATH, 0x4                                 ; reg: 0x00a
12E3   0008           05721         return
12E4   118A           05722         bcf     PCLATH, 0x3                                 ; reg: 0x00a
12E5   120A           05723         bcf     PCLATH, 0x4                                 ; reg: 0x00a
12E6   300A           05724         movlw   0x0a
12E7   00F4           05725         movwf   (Common_RAM + 4)                            ; reg: 0x074
12E8   3026           05726         movlw   0x26
12E9   218E           05727         call    function_019
12EA   118A           05728         bcf     PCLATH, 0x3                                 ; reg: 0x00a
12EB   160A           05729         bsf     PCLATH, 0x4                                 ; reg: 0x00a
12EC   0008           05730         return
12ED   118A           05731         bcf     PCLATH, 0x3                                 ; reg: 0x00a
12EE   120A           05732         bcf     PCLATH, 0x4                                 ; reg: 0x00a
12EF   300A           05733         movlw   0x0a
12F0   00F4           05734         movwf   (Common_RAM + 4)                            ; reg: 0x074
12F1   3038           05735         movlw   0x38
12F2   218E           05736         call    function_019
12F3   118A           05737         bcf     PCLATH, 0x3                                 ; reg: 0x00a
12F4   160A           05738         bsf     PCLATH, 0x4                                 ; reg: 0x00a
12F5   0008           05739         return
12F6   118A           05740         bcf     PCLATH, 0x3                                 ; reg: 0x00a
12F7   120A           05741         bcf     PCLATH, 0x4                                 ; reg: 0x00a
12F8   300A           05742         movlw   0x0a
12F9   00F4           05743         movwf   (Common_RAM + 4)                            ; reg: 0x074
12FA   304A           05744         movlw   0x4a
12FB   218E           05745         call    function_019
12FC   118A           05746         bcf     PCLATH, 0x3                                 ; reg: 0x00a
12FD   160A           05747         bsf     PCLATH, 0x4                                 ; reg: 0x00a
12FE   0008           05748         return
12FF   118A           05749         bcf     PCLATH, 0x3                                 ; reg: 0x00a
1300   120A           05750         bcf     PCLATH, 0x4                                 ; reg: 0x00a
1301   300A           05751         movlw   0x0a
1302   00F4           05752         movwf   (Common_RAM + 4)                            ; reg: 0x074
1303   305C           05753         movlw   0x5c
1304   218E           05754         call    function_019
1305   118A           05755         bcf     PCLATH, 0x3                                 ; reg: 0x00a
1306   160A           05756         bsf     PCLATH, 0x4                                 ; reg: 0x00a
1307   0008           05757         return
1308   118A           05758         bcf     PCLATH, 0x3                                 ; reg: 0x00a
1309   120A           05759         bcf     PCLATH, 0x4                                 ; reg: 0x00a
130A   300A           05760         movlw   0x0a
130B   00F4           05761         movwf   (Common_RAM + 4)                            ; reg: 0x074
130C   306E           05762         movlw   0x6e
130D   218E           05763         call    function_019
130E   118A           05764         bcf     PCLATH, 0x3                                 ; reg: 0x00a
130F   160A           05765         bsf     PCLATH, 0x4                                 ; reg: 0x00a
gpasm-1.5.0 #1285 (Jan 23 2020) unidds_v1_10.   27.01.2020  22:56:48        PAGE 110


LOC    OBJECT CODE    LINE  SOURCE TEXT
  VALUE

1310   0008           05766         return
1311   118A           05767         bcf     PCLATH, 0x3                                 ; reg: 0x00a
1312   120A           05768         bcf     PCLATH, 0x4                                 ; reg: 0x00a
1313   300A           05769         movlw   0x0a
1314   00F4           05770         movwf   (Common_RAM + 4)                            ; reg: 0x074
1315   3080           05771         movlw   0x80
1316   218E           05772         call    function_019
1317   118A           05773         bcf     PCLATH, 0x3                                 ; reg: 0x00a
1318   160A           05774         bsf     PCLATH, 0x4                                 ; reg: 0x00a
1319   0008           05775         return
131A   118A           05776         bcf     PCLATH, 0x3                                 ; reg: 0x00a
131B   120A           05777         bcf     PCLATH, 0x4                                 ; reg: 0x00a
131C   300A           05778         movlw   0x0a
131D   00F4           05779         movwf   (Common_RAM + 4)                            ; reg: 0x074
131E   3092           05780         movlw   0x92
131F   218E           05781         call    function_019
1320   118A           05782         bcf     PCLATH, 0x3                                 ; reg: 0x00a
1321   160A           05783         bsf     PCLATH, 0x4                                 ; reg: 0x00a
1322   0008           05784         return
1323   118A           05785         bcf     PCLATH, 0x3                                 ; reg: 0x00a
1324   120A           05786         bcf     PCLATH, 0x4                                 ; reg: 0x00a
1325   300A           05787         movlw   0x0a
1326   00F4           05788         movwf   (Common_RAM + 4)                            ; reg: 0x074
1327   30A4           05789         movlw   0xa4
1328   218E           05790         call    function_019
1329   118A           05791         bcf     PCLATH, 0x3                                 ; reg: 0x00a
132A   160A           05792         bsf     PCLATH, 0x4                                 ; reg: 0x00a
132B   0008           05793         return
132C   118A           05794         bcf     PCLATH, 0x3                                 ; reg: 0x00a
132D   120A           05795         bcf     PCLATH, 0x4                                 ; reg: 0x00a
132E   300A           05796         movlw   0x0a
132F   00F4           05797         movwf   (Common_RAM + 4)                            ; reg: 0x074
1330   30B6           05798         movlw   0xb6
1331   218E           05799         call    function_019
1332   118A           05800         bcf     PCLATH, 0x3                                 ; reg: 0x00a
1333   160A           05801         bsf     PCLATH, 0x4                                 ; reg: 0x00a
1334   1E20           05802         btfss   0x20, 0x4                                   ; reg: 0x020
1335   2B3F           05803         goto    label_214
1336   118A           05804         bcf     PCLATH, 0x3                                 ; reg: 0x00a
1337   120A           05805         bcf     PCLATH, 0x4                                 ; reg: 0x00a
1338   3008           05806         movlw   0x08
1339   00F4           05807         movwf   (Common_RAM + 4)                            ; reg: 0x074
133A   30F4           05808         movlw   0xf4
133B   218E           05809         call    function_019
133C   118A           05810         bcf     PCLATH, 0x3                                 ; reg: 0x00a
133D   160A           05811         bsf     PCLATH, 0x4                                 ; reg: 0x00a
133E   0008           05812         return
                      05813 
133F                  05814 label_214:                                                  ; address: 0x133f
                      05815 
133F   118A           05816         bcf     PCLATH, 0x3                                 ; reg: 0x00a
1340   120A           05817         bcf     PCLATH, 0x4                                 ; reg: 0x00a
1341   3008           05818         movlw   0x08
gpasm-1.5.0 #1285 (Jan 23 2020) unidds_v1_10.   27.01.2020  22:56:48        PAGE 111


LOC    OBJECT CODE    LINE  SOURCE TEXT
  VALUE

1342   00F4           05819         movwf   (Common_RAM + 4)                            ; reg: 0x074
1343   30E2           05820         movlw   0xe2
1344   218E           05821         call    function_019
1345   118A           05822         bcf     PCLATH, 0x3                                 ; reg: 0x00a
1346   160A           05823         bsf     PCLATH, 0x4                                 ; reg: 0x00a
1347   0008           05824         return
1348   118A           05825         bcf     PCLATH, 0x3                                 ; reg: 0x00a
1349   120A           05826         bcf     PCLATH, 0x4                                 ; reg: 0x00a
134A   300A           05827         movlw   0x0a
134B   00F4           05828         movwf   (Common_RAM + 4)                            ; reg: 0x074
134C   30C8           05829         movlw   0xc8
134D   218E           05830         call    function_019
134E   118A           05831         bcf     PCLATH, 0x3                                 ; reg: 0x00a
134F   160A           05832         bsf     PCLATH, 0x4                                 ; reg: 0x00a
1350   1AA0           05833         btfsc   0x20, 0x5                                   ; reg: 0x020
1351   2B5B           05834         goto    label_215
1352   118A           05835         bcf     PCLATH, 0x3                                 ; reg: 0x00a
1353   120A           05836         bcf     PCLATH, 0x4                                 ; reg: 0x00a
1354   3009           05837         movlw   0x09
1355   00F4           05838         movwf   (Common_RAM + 4)                            ; reg: 0x074
1356   304E           05839         movlw   0x4e
1357   218E           05840         call    function_019
1358   118A           05841         bcf     PCLATH, 0x3                                 ; reg: 0x00a
1359   160A           05842         bsf     PCLATH, 0x4                                 ; reg: 0x00a
135A   0008           05843         return
                      05844 
135B                  05845 label_215:                                                  ; address: 0x135b
                      05846 
135B   118A           05847         bcf     PCLATH, 0x3                                 ; reg: 0x00a
135C   120A           05848         bcf     PCLATH, 0x4                                 ; reg: 0x00a
135D   3009           05849         movlw   0x09
135E   00F4           05850         movwf   (Common_RAM + 4)                            ; reg: 0x074
135F   303C           05851         movlw   0x3c
1360   218E           05852         call    function_019
1361   118A           05853         bcf     PCLATH, 0x3                                 ; reg: 0x00a
1362   160A           05854         bsf     PCLATH, 0x4                                 ; reg: 0x00a
1363   0008           05855         return
1364   118A           05856         bcf     PCLATH, 0x3                                 ; reg: 0x00a
1365   120A           05857         bcf     PCLATH, 0x4                                 ; reg: 0x00a
1366   300A           05858         movlw   0x0a
1367   00F4           05859         movwf   (Common_RAM + 4)                            ; reg: 0x074
1368   30DA           05860         movlw   0xda
1369   218E           05861         call    function_019
136A   118A           05862         bcf     PCLATH, 0x3                                 ; reg: 0x00a
136B   160A           05863         bsf     PCLATH, 0x4                                 ; reg: 0x00a
136C   1F20           05864         btfss   0x20, 0x6                                   ; reg: 0x020
136D   2B77           05865         goto    label_216
136E   118A           05866         bcf     PCLATH, 0x3                                 ; reg: 0x00a
136F   120A           05867         bcf     PCLATH, 0x4                                 ; reg: 0x00a
1370   3009           05868         movlw   0x09
1371   00F4           05869         movwf   (Common_RAM + 4)                            ; reg: 0x074
1372   304E           05870         movlw   0x4e
1373   218E           05871         call    function_019
gpasm-1.5.0 #1285 (Jan 23 2020) unidds_v1_10.   27.01.2020  22:56:48        PAGE 112


LOC    OBJECT CODE    LINE  SOURCE TEXT
  VALUE

1374   118A           05872         bcf     PCLATH, 0x3                                 ; reg: 0x00a
1375   160A           05873         bsf     PCLATH, 0x4                                 ; reg: 0x00a
1376   0008           05874         return
                      05875 
1377                  05876 label_216:                                                  ; address: 0x1377
                      05877 
1377   118A           05878         bcf     PCLATH, 0x3                                 ; reg: 0x00a
1378   120A           05879         bcf     PCLATH, 0x4                                 ; reg: 0x00a
1379   3009           05880         movlw   0x09
137A   00F4           05881         movwf   (Common_RAM + 4)                            ; reg: 0x074
137B   303C           05882         movlw   0x3c
137C   218E           05883         call    function_019
137D   118A           05884         bcf     PCLATH, 0x3                                 ; reg: 0x00a
137E   160A           05885         bsf     PCLATH, 0x4                                 ; reg: 0x00a
137F   0008           05886         return
1380   118A           05887         bcf     PCLATH, 0x3                                 ; reg: 0x00a
1381   120A           05888         bcf     PCLATH, 0x4                                 ; reg: 0x00a
1382   300A           05889         movlw   0x0a
1383   00F4           05890         movwf   (Common_RAM + 4)                            ; reg: 0x074
1384   30EC           05891         movlw   0xec
1385   218E           05892         call    function_019
1386   118A           05893         bcf     PCLATH, 0x3                                 ; reg: 0x00a
1387   160A           05894         bsf     PCLATH, 0x4                                 ; reg: 0x00a
1388   0008           05895         return
                      05896 
1389                  05897 function_070:                                               ; address: 0x1389
                      05898 
1389   118A           05899         bcf     PCLATH, 0x3                                 ; reg: 0x00a
138A   120A           05900         bcf     PCLATH, 0x4                                 ; reg: 0x00a
138B   3009           05901         movlw   0x09
138C   00F4           05902         movwf   (Common_RAM + 4)                            ; reg: 0x074
138D   303C           05903         movlw   0x3c
138E   218E           05904         call    function_019
138F   118A           05905         bcf     PCLATH, 0x3                                 ; reg: 0x00a
1390   160A           05906         bsf     PCLATH, 0x4                                 ; reg: 0x00a
1391   0008           05907         return
                      05908 
1392                  05909 function_071:                                               ; address: 0x1392
                      05910 
1392   118A           05911         bcf     PCLATH, 0x3                                 ; reg: 0x00a
1393   120A           05912         bcf     PCLATH, 0x4                                 ; reg: 0x00a
1394   3009           05913         movlw   0x09
1395   00F4           05914         movwf   (Common_RAM + 4)                            ; reg: 0x074
1396   304E           05915         movlw   0x4e
1397   218E           05916         call    function_019
1398   118A           05917         bcf     PCLATH, 0x3                                 ; reg: 0x00a
1399   160A           05918         bsf     PCLATH, 0x4                                 ; reg: 0x00a
139A   0008           05919         return
139B   118A           05920         bcf     PCLATH, 0x3                                 ; reg: 0x00a
139C   120A           05921         bcf     PCLATH, 0x4                                 ; reg: 0x00a
139D   3009           05922         movlw   0x09
139E   00F4           05923         movwf   (Common_RAM + 4)                            ; reg: 0x074
139F   3060           05924         movlw   0x60
gpasm-1.5.0 #1285 (Jan 23 2020) unidds_v1_10.   27.01.2020  22:56:48        PAGE 113


LOC    OBJECT CODE    LINE  SOURCE TEXT
  VALUE

13A0   218E           05925         call    function_019
13A1   118A           05926         bcf     PCLATH, 0x3                                 ; reg: 0x00a
13A2   160A           05927         bsf     PCLATH, 0x4                                 ; reg: 0x00a
13A3   0008           05928         return
13A4   118A           05929         bcf     PCLATH, 0x3                                 ; reg: 0x00a
13A5   120A           05930         bcf     PCLATH, 0x4                                 ; reg: 0x00a
13A6   3009           05931         movlw   0x09
13A7   00F4           05932         movwf   (Common_RAM + 4)                            ; reg: 0x074
13A8   30A8           05933         movlw   0xa8
13A9   218E           05934         call    function_019
13AA   118A           05935         bcf     PCLATH, 0x3                                 ; reg: 0x00a
13AB   160A           05936         bsf     PCLATH, 0x4                                 ; reg: 0x00a
13AC   0008           05937         return
13AD   118A           05938         bcf     PCLATH, 0x3                                 ; reg: 0x00a
13AE   120A           05939         bcf     PCLATH, 0x4                                 ; reg: 0x00a
13AF   3009           05940         movlw   0x09
13B0   00F4           05941         movwf   (Common_RAM + 4)                            ; reg: 0x074
13B1   30BA           05942         movlw   0xba
13B2   218E           05943         call    function_019
13B3   118A           05944         bcf     PCLATH, 0x3                                 ; reg: 0x00a
13B4   160A           05945         bsf     PCLATH, 0x4                                 ; reg: 0x00a
13B5   0008           05946         return
13B6   1CA0           05947         btfss   0x20, 0x1                                   ; reg: 0x020
13B7   2BBA           05948         goto    label_217
13B8   2392           05949         call    function_071
13B9   2BBB           05950         goto    label_218
                      05951 
13BA                  05952 label_217:                                                  ; address: 0x13ba
                      05953 
13BA   2389           05954         call    function_070
                      05955 
13BB                  05956 label_218:                                                  ; address: 0x13bb
                      05957 
13BB   118A           05958         bcf     PCLATH, 0x3                                 ; reg: 0x00a
13BC   120A           05959         bcf     PCLATH, 0x4                                 ; reg: 0x00a
13BD   3009           05960         movlw   0x09
13BE   00F4           05961         movwf   (Common_RAM + 4)                            ; reg: 0x074
13BF   30CC           05962         movlw   0xcc
13C0   218E           05963         call    function_019
13C1   118A           05964         bcf     PCLATH, 0x3                                 ; reg: 0x00a
13C2   160A           05965         bsf     PCLATH, 0x4                                 ; reg: 0x00a
13C3   0008           05966         return
13C4   1DA0           05967         btfss   0x20, 0x3                                   ; reg: 0x020
13C5   2BC8           05968         goto    label_219
13C6   2392           05969         call    function_071
13C7   2BC9           05970         goto    label_220
                      05971 
13C8                  05972 label_219:                                                  ; address: 0x13c8
                      05973 
13C8   2389           05974         call    function_070
                      05975 
13C9                  05976 label_220:                                                  ; address: 0x13c9
                      05977 
gpasm-1.5.0 #1285 (Jan 23 2020) unidds_v1_10.   27.01.2020  22:56:48        PAGE 114


LOC    OBJECT CODE    LINE  SOURCE TEXT
  VALUE

13C9   118A           05978         bcf     PCLATH, 0x3                                 ; reg: 0x00a
13CA   120A           05979         bcf     PCLATH, 0x4                                 ; reg: 0x00a
13CB   300A           05980         movlw   0x0a
13CC   00F4           05981         movwf   (Common_RAM + 4)                            ; reg: 0x074
13CD   3014           05982         movlw   0x14
13CE   218E           05983         call    function_019
13CF   118A           05984         bcf     PCLATH, 0x3                                 ; reg: 0x00a
13D0   160A           05985         bsf     PCLATH, 0x4                                 ; reg: 0x00a
13D1   0008           05986         return
13D2   118A           05987         bcf     PCLATH, 0x3                                 ; reg: 0x00a
13D3   120A           05988         bcf     PCLATH, 0x4                                 ; reg: 0x00a
13D4   3009           05989         movlw   0x09
13D5   00F4           05990         movwf   (Common_RAM + 4)                            ; reg: 0x074
13D6   3072           05991         movlw   0x72
13D7   218E           05992         call    function_019
13D8   118A           05993         bcf     PCLATH, 0x3                                 ; reg: 0x00a
13D9   160A           05994         bsf     PCLATH, 0x4                                 ; reg: 0x00a
13DA   0008           05995         return
13DB   1D20           05996         btfss   0x20, 0x2                                   ; reg: 0x020
13DC   2BDF           05997         goto    label_221
13DD   2392           05998         call    function_071
13DE   2BE0           05999         goto    label_222
                      06000 
13DF                  06001 label_221:                                                  ; address: 0x13df
                      06002 
13DF   2389           06003         call    function_070
                      06004 
13E0                  06005 label_222:                                                  ; address: 0x13e0
                      06006 
13E0   118A           06007         bcf     PCLATH, 0x3                                 ; reg: 0x00a
13E1   120A           06008         bcf     PCLATH, 0x4                                 ; reg: 0x00a
13E2   3009           06009         movlw   0x09
13E3   00F4           06010         movwf   (Common_RAM + 4)                            ; reg: 0x074
13E4   3084           06011         movlw   0x84
13E5   218E           06012         call    function_019
13E6   118A           06013         bcf     PCLATH, 0x3                                 ; reg: 0x00a
13E7   160A           06014         bsf     PCLATH, 0x4                                 ; reg: 0x00a
13E8   0008           06015         return
13E9   1C20           06016         btfss   0x20, 0x0                                   ; reg: 0x020
13EA   2BED           06017         goto    label_223
13EB   2392           06018         call    function_071
13EC   2BEE           06019         goto    label_224
                      06020 
13ED                  06021 label_223:                                                  ; address: 0x13ed
                      06022 
13ED   2389           06023         call    function_070
                      06024 
13EE                  06025 label_224:                                                  ; address: 0x13ee
                      06026 
13EE   118A           06027         bcf     PCLATH, 0x3                                 ; reg: 0x00a
13EF   120A           06028         bcf     PCLATH, 0x4                                 ; reg: 0x00a
13F0   3009           06029         movlw   0x09
13F1   00F4           06030         movwf   (Common_RAM + 4)                            ; reg: 0x074
gpasm-1.5.0 #1285 (Jan 23 2020) unidds_v1_10.   27.01.2020  22:56:48        PAGE 115


LOC    OBJECT CODE    LINE  SOURCE TEXT
  VALUE

13F2   3096           06031         movlw   0x96
13F3   218E           06032         call    function_019
13F4   118A           06033         bcf     PCLATH, 0x3                                 ; reg: 0x00a
13F5   160A           06034         bsf     PCLATH, 0x4                                 ; reg: 0x00a
13F6   0008           06035         return
13F7   118A           06036         bcf     PCLATH, 0x3                                 ; reg: 0x00a
13F8   120A           06037         bcf     PCLATH, 0x4                                 ; reg: 0x00a
13F9   3009           06038         movlw   0x09
13FA   00F4           06039         movwf   (Common_RAM + 4)                            ; reg: 0x074
13FB   30DE           06040         movlw   0xde
13FC   218E           06041         call    function_019
13FD   118A           06042         bcf     PCLATH, 0x3                                 ; reg: 0x00a
13FE   160A           06043         bsf     PCLATH, 0x4                                 ; reg: 0x00a
13FF   0008           06044         return
1400   1EB2           06045         btfss   0x32, 0x5                                   ; reg: 0x032
1401   2C04           06046         goto    label_225
1402   2392           06047         call    function_071
1403   2C05           06048         goto    label_226
                      06049 
1404                  06050 label_225:                                                  ; address: 0x1404
                      06051 
1404   2389           06052         call    function_070
                      06053 
1405                  06054 label_226:                                                  ; address: 0x1405
                      06055 
1405   118A           06056         bcf     PCLATH, 0x3                                 ; reg: 0x00a
1406   120A           06057         bcf     PCLATH, 0x4                                 ; reg: 0x00a
1407   3009           06058         movlw   0x09
1408   00F4           06059         movwf   (Common_RAM + 4)                            ; reg: 0x074
1409   30F0           06060         movlw   0xf0
140A   218E           06061         call    function_019
140B   118A           06062         bcf     PCLATH, 0x3                                 ; reg: 0x00a
140C   160A           06063         bsf     PCLATH, 0x4                                 ; reg: 0x00a
140D   0008           06064         return
140E   1EB2           06065         btfss   0x32, 0x5                                   ; reg: 0x032
140F   2C12           06066         goto    label_227
1410   2392           06067         call    function_071
1411   2C13           06068         goto    label_228
                      06069 
1412                  06070 label_227:                                                  ; address: 0x1412
                      06071 
1412   2389           06072         call    function_070
                      06073 
1413                  06074 label_228:                                                  ; address: 0x1413
                      06075 
1413   118A           06076         bcf     PCLATH, 0x3                                 ; reg: 0x00a
1414   120A           06077         bcf     PCLATH, 0x4                                 ; reg: 0x00a
1415   300A           06078         movlw   0x0a
1416   00F4           06079         movwf   (Common_RAM + 4)                            ; reg: 0x074
1417   3002           06080         movlw   0x02
1418   218E           06081         call    function_019
1419   118A           06082         bcf     PCLATH, 0x3                                 ; reg: 0x00a
141A   160A           06083         bsf     PCLATH, 0x4                                 ; reg: 0x00a
gpasm-1.5.0 #1285 (Jan 23 2020) unidds_v1_10.   27.01.2020  22:56:48        PAGE 116


LOC    OBJECT CODE    LINE  SOURCE TEXT
  VALUE

141B   0008           06084         return
                      06085 
141C                  06086 function_072:                                               ; address: 0x141c
                      06087 
141C   118A           06088         bcf     PCLATH, 0x3                                 ; reg: 0x00a
141D   120A           06089         bcf     PCLATH, 0x4                                 ; reg: 0x00a
141E   2599           06090         call    function_045
141F   118A           06091         bcf     PCLATH, 0x3                                 ; reg: 0x00a
1420   160A           06092         bsf     PCLATH, 0x4                                 ; reg: 0x00a
1421   272D           06093         call    function_080
1422   1683           06094         bsf     STATUS, RP0                                 ; reg: 0x003, bit: 5
1423   1303           06095         bcf     STATUS, RP1                                 ; reg: 0x003, bit: 6
1424   00D4           06096         movwf   0x54                                        ; reg: 0x0d4
1425   0253           06097         subwf   0x53, W                                     ; reg: 0x0d3
1426   1283           06098         bcf     STATUS, RP0                                 ; reg: 0x003, bit: 5
1427   1303           06099         bcf     STATUS, RP1                                 ; reg: 0x003, bit: 6
1428   1803           06100         btfsc   STATUS, C                                   ; reg: 0x003, bit: 0
1429   2C32           06101         goto    label_229
142A   3064           06102         movlw   0x64
142B   00E0           06103         movwf   0x60                                        ; reg: 0x060
142C   1683           06104         bsf     STATUS, RP0                                 ; reg: 0x003, bit: 5
142D   1303           06105         bcf     STATUS, RP1                                 ; reg: 0x003, bit: 6
142E   0854           06106         movf    0x54, W                                     ; reg: 0x0d4
142F   00D3           06107         movwf   0x53                                        ; reg: 0x0d3
1430   1283           06108         bcf     STATUS, RP0                                 ; reg: 0x003, bit: 5
1431   1303           06109         bcf     STATUS, RP1                                 ; reg: 0x003, bit: 6
                      06110 
1432                  06111 label_229:                                                  ; address: 0x1432
                      06112 
1432   08E0           06113         movf    0x60, F                                     ; reg: 0x060
1433   1D03           06114         btfss   STATUS, Z                                   ; reg: 0x003, bit: 2
1434   2C3B           06115         goto    label_230
1435   1683           06116         bsf     STATUS, RP0                                 ; reg: 0x003, bit: 5
1436   1303           06117         bcf     STATUS, RP1                                 ; reg: 0x003, bit: 6
1437   0854           06118         movf    0x54, W                                     ; reg: 0x0d4
1438   00D3           06119         movwf   0x53                                        ; reg: 0x0d3
1439   1283           06120         bcf     STATUS, RP0                                 ; reg: 0x003, bit: 5
143A   1303           06121         bcf     STATUS, RP1                                 ; reg: 0x003, bit: 6
                      06122 
143B                  06123 label_230:                                                  ; address: 0x143b
                      06124 
143B   1683           06125         bsf     STATUS, RP0                                 ; reg: 0x003, bit: 5
143C   1303           06126         bcf     STATUS, RP1                                 ; reg: 0x003, bit: 6
143D   0853           06127         movf    0x53, W                                     ; reg: 0x0d3
143E   0255           06128         subwf   0x55, W                                     ; reg: 0x0d5
143F   1283           06129         bcf     STATUS, RP0                                 ; reg: 0x003, bit: 5
1440   1303           06130         bcf     STATUS, RP1                                 ; reg: 0x003, bit: 6
1441   1903           06131         btfsc   STATUS, Z                                   ; reg: 0x003, bit: 2
1442   2C57           06132         goto    label_231
1443   118A           06133         bcf     PCLATH, 0x3                                 ; reg: 0x00a
1444   120A           06134         bcf     PCLATH, 0x4                                 ; reg: 0x00a
1445   304E           06135         movlw   0x4e
1446   218C           06136         call    function_018
gpasm-1.5.0 #1285 (Jan 23 2020) unidds_v1_10.   27.01.2020  22:56:48        PAGE 117


LOC    OBJECT CODE    LINE  SOURCE TEXT
  VALUE

1447   3053           06137         movlw   0x53
1448   2150           06138         call    0x0150
1449   118A           06139         bcf     PCLATH, 0x3                                 ; reg: 0x00a
144A   160A           06140         bsf     PCLATH, 0x4                                 ; reg: 0x00a
144B   1683           06141         bsf     STATUS, RP0                                 ; reg: 0x003, bit: 5
144C   1303           06142         bcf     STATUS, RP1                                 ; reg: 0x003, bit: 6
144D   0853           06143         movf    0x53, W                                     ; reg: 0x0d3
144E   00D5           06144         movwf   0x55                                        ; reg: 0x0d5
144F   1283           06145         bcf     STATUS, RP0                                 ; reg: 0x003, bit: 5
1450   1303           06146         bcf     STATUS, RP1                                 ; reg: 0x003, bit: 6
1451   204A           06147         call    function_063
1452   118A           06148         bcf     PCLATH, 0x3                                 ; reg: 0x00a
1453   120A           06149         bcf     PCLATH, 0x4                                 ; reg: 0x00a
1454   2150           06150         call    function_013
1455   118A           06151         bcf     PCLATH, 0x3                                 ; reg: 0x00a
1456   160A           06152         bsf     PCLATH, 0x4                                 ; reg: 0x00a
                      06153 
1457                  06154 label_231:                                                  ; address: 0x1457
                      06155 
1457   0008           06156         return
                      06157 
1458                  06158 function_073:                                               ; address: 0x1458
                      06159 
1458   118A           06160         bcf     PCLATH, 0x3                                 ; reg: 0x00a
1459   120A           06161         bcf     PCLATH, 0x4                                 ; reg: 0x00a
145A   25A9           06162         call    function_046
145B   25B8           06163         call    0x05b8
145C   118A           06164         bcf     PCLATH, 0x3                                 ; reg: 0x00a
145D   160A           06165         bsf     PCLATH, 0x4                                 ; reg: 0x00a
145E   1683           06166         bsf     STATUS, RP0                                 ; reg: 0x003, bit: 5
145F   1303           06167         bcf     STATUS, RP1                                 ; reg: 0x003, bit: 6
1460   00D6           06168         movwf   0x56                                        ; reg: 0x0d6
1461   0257           06169         subwf   0x57, W                                     ; reg: 0x0d7
1462   1283           06170         bcf     STATUS, RP0                                 ; reg: 0x003, bit: 5
1463   1303           06171         bcf     STATUS, RP1                                 ; reg: 0x003, bit: 6
1464   1903           06172         btfsc   STATUS, Z                                   ; reg: 0x003, bit: 2
1465   2C94           06173         goto    label_234
1466   118A           06174         bcf     PCLATH, 0x3                                 ; reg: 0x00a
1467   120A           06175         bcf     PCLATH, 0x4                                 ; reg: 0x00a
1468   300B           06176         movlw   0x0b
1469   218C           06177         call    function_018
146A   1683           06178         bsf     STATUS, RP0                                 ; reg: 0x003, bit: 5
146B   1303           06179         bcf     STATUS, RP1                                 ; reg: 0x003, bit: 6
146C   0856           06180         movf    0x56, W                                     ; reg: 0x0d6
146D   00D7           06181         movwf   0x57                                        ; reg: 0x0d7
146E   1283           06182         bcf     STATUS, RP0                                 ; reg: 0x003, bit: 5
146F   1303           06183         bcf     STATUS, RP1                                 ; reg: 0x003, bit: 6
1470   25CF           06184         call    0x05cf
1471   118A           06185         bcf     PCLATH, 0x3                                 ; reg: 0x00a
1472   160A           06186         bsf     PCLATH, 0x4                                 ; reg: 0x00a
1473   0846           06187         movf    0x46, W                                     ; reg: 0x046
1474   390F           06188         andlw   0x0f
1475   1D03           06189         btfss   STATUS, Z                                   ; reg: 0x003, bit: 2
gpasm-1.5.0 #1285 (Jan 23 2020) unidds_v1_10.   27.01.2020  22:56:48        PAGE 118


LOC    OBJECT CODE    LINE  SOURCE TEXT
  VALUE

1476   2C7D           06190         goto    label_232
1477   118A           06191         bcf     PCLATH, 0x3                                 ; reg: 0x00a
1478   120A           06192         bcf     PCLATH, 0x4                                 ; reg: 0x00a
1479   21C1           06193         call    function_020
147A   118A           06194         bcf     PCLATH, 0x3                                 ; reg: 0x00a
147B   160A           06195         bsf     PCLATH, 0x4                                 ; reg: 0x00a
147C   2C84           06196         goto    label_233
                      06197 
147D                  06198 label_232:                                                  ; address: 0x147d
                      06199 
147D   0846           06200         movf    0x46, W                                     ; reg: 0x046
147E   118A           06201         bcf     PCLATH, 0x3                                 ; reg: 0x00a
147F   120A           06202         bcf     PCLATH, 0x4                                 ; reg: 0x00a
1480   2052           06203         call    function_000
1481   2150           06204         call    0x0150
1482   118A           06205         bcf     PCLATH, 0x3                                 ; reg: 0x00a
1483   160A           06206         bsf     PCLATH, 0x4                                 ; reg: 0x00a
                      06207 
1484                  06208 label_233:                                                  ; address: 0x1484
                      06209 
1484   118A           06210         bcf     PCLATH, 0x3                                 ; reg: 0x00a
1485   120A           06211         bcf     PCLATH, 0x4                                 ; reg: 0x00a
1486   0845           06212         movf    0x45, W                                     ; reg: 0x045
1487   00F7           06213         movwf   (Common_RAM + 7)                            ; reg: 0x077
1488   0E77           06214         swapf   (Common_RAM + 7), W                         ; reg: 0x077
1489   2052           06215         call    function_000
148A   2150           06216         call    0x0150
148B   302E           06217         movlw   0x2e
148C   2150           06218         call    0x0150
148D   0877           06219         movf    (Common_RAM + 7), W                         ; reg: 0x077
148E   2052           06220         call    0x0052
148F   2150           06221         call    0x0150
1490   3056           06222         movlw   0x56
1491   2150           06223         call    0x0150
1492   118A           06224         bcf     PCLATH, 0x3                                 ; reg: 0x00a
1493   160A           06225         bsf     PCLATH, 0x4                                 ; reg: 0x00a
                      06226 
1494                  06227 label_234:                                                  ; address: 0x1494
                      06228 
1494   0008           06229         return
                      06230 
1495                  06231 function_074:                                               ; address: 0x1495
                      06232 
1495   118A           06233         bcf     PCLATH, 0x3                                 ; reg: 0x00a
1496   120A           06234         bcf     PCLATH, 0x4                                 ; reg: 0x00a
1497   2528           06235         call    function_039
1498   1587           06236         bsf     PORTC, RC3                                  ; reg: 0x007, bit: 3
1499   2184           06237         call    0x0184
149A   118A           06238         bcf     PCLATH, 0x3                                 ; reg: 0x00a
149B   160A           06239         bsf     PCLATH, 0x4                                 ; reg: 0x00a
                      06240 
149C                  06241 label_235:                                                  ; address: 0x149c
                      06242 
gpasm-1.5.0 #1285 (Jan 23 2020) unidds_v1_10.   27.01.2020  22:56:48        PAGE 119


LOC    OBJECT CODE    LINE  SOURCE TEXT
  VALUE

149C   118A           06243         bcf     PCLATH, 0x3                                 ; reg: 0x00a
149D   120A           06244         bcf     PCLATH, 0x4                                 ; reg: 0x00a
149E   236D           06245         call    function_025
149F   118A           06246         bcf     PCLATH, 0x3                                 ; reg: 0x00a
14A0   160A           06247         bsf     PCLATH, 0x4                                 ; reg: 0x00a
14A1   1803           06248         btfsc   STATUS, C                                   ; reg: 0x003, bit: 0
14A2   2D04           06249         goto    label_237
14A3   1F86           06250         btfss   PORTB, RB7                                  ; reg: 0x006, bit: 7
14A4   2D04           06251         goto    label_237
14A5   1F06           06252         btfss   PORTB, RB6                                  ; reg: 0x006, bit: 6
14A6   2D04           06253         goto    label_237
14A7   118A           06254         bcf     PCLATH, 0x3                                 ; reg: 0x00a
14A8   120A           06255         bcf     PCLATH, 0x4                                 ; reg: 0x00a
14A9   25AD           06256         call    function_047
14AA   00E3           06257         movwf   0x63                                        ; reg: 0x063
14AB   25AB           06258         call    0x05ab
14AC   00E4           06259         movwf   0x64                                        ; reg: 0x064
14AD   118A           06260         bcf     PCLATH, 0x3                                 ; reg: 0x00a
14AE   160A           06261         bsf     PCLATH, 0x4                                 ; reg: 0x00a
14AF   2514           06262         call    function_075
14B0   118A           06263         bcf     PCLATH, 0x3                                 ; reg: 0x00a
14B1   120A           06264         bcf     PCLATH, 0x4                                 ; reg: 0x00a
14B2   3008           06265         movlw   0x08
14B3   00F4           06266         movwf   (Common_RAM + 4)                            ; reg: 0x074
14B4   3084           06267         movlw   0x84
14B5   218E           06268         call    function_019
14B6   118A           06269         bcf     PCLATH, 0x3                                 ; reg: 0x00a
14B7   160A           06270         bsf     PCLATH, 0x4                                 ; reg: 0x00a
14B8   1683           06271         bsf     STATUS, RP0                                 ; reg: 0x003, bit: 5
14B9   1303           06272         bcf     STATUS, RP1                                 ; reg: 0x003, bit: 6
14BA   0822           06273         movf    0x22, W                                     ; reg: 0x0a2
14BB   1283           06274         bcf     STATUS, RP0                                 ; reg: 0x003, bit: 5
14BC   1303           06275         bcf     STATUS, RP1                                 ; reg: 0x003, bit: 6
14BD   3830           06276         iorlw   0x30
14BE   118A           06277         bcf     PCLATH, 0x3                                 ; reg: 0x00a
14BF   120A           06278         bcf     PCLATH, 0x4                                 ; reg: 0x00a
14C0   2150           06279         call    function_013
14C1   302E           06280         movlw   0x2e
14C2   2150           06281         call    0x0150
14C3   1683           06282         bsf     STATUS, RP0                                 ; reg: 0x003, bit: 5
14C4   1303           06283         bcf     STATUS, RP1                                 ; reg: 0x003, bit: 6
14C5   0821           06284         movf    0x21, W                                     ; reg: 0x0a1
14C6   1283           06285         bcf     STATUS, RP0                                 ; reg: 0x003, bit: 5
14C7   1303           06286         bcf     STATUS, RP1                                 ; reg: 0x003, bit: 6
14C8   3830           06287         iorlw   0x30
14C9   2150           06288         call    0x0150
14CA   21C1           06289         call    0x01c1
14CB   3050           06290         movlw   0x50
14CC   2150           06291         call    0x0150
14CD   303A           06292         movlw   0x3a
14CE   2150           06293         call    0x0150
14CF   118A           06294         bcf     PCLATH, 0x3                                 ; reg: 0x00a
14D0   160A           06295         bsf     PCLATH, 0x4                                 ; reg: 0x00a
gpasm-1.5.0 #1285 (Jan 23 2020) unidds_v1_10.   27.01.2020  22:56:48        PAGE 120


LOC    OBJECT CODE    LINE  SOURCE TEXT
  VALUE

14D1   0863           06296         movf    0x63, W                                     ; reg: 0x063
14D2   00BF           06297         movwf   0x3f                                        ; reg: 0x03f
14D3   1003           06298         bcf     STATUS, C                                   ; reg: 0x003, bit: 0
14D4   0CBF           06299         rrf     0x3f, F                                     ; reg: 0x03f
14D5   0C3F           06300         rrf     0x3f, W                                     ; reg: 0x03f
14D6   158A           06301         bsf     PCLATH, 0x3                                 ; reg: 0x00a
14D7   120A           06302         bcf     PCLATH, 0x4                                 ; reg: 0x00a
14D8   2000           06303         call    function_057
14D9   00BF           06304         movwf   0x3f                                        ; reg: 0x03f
14DA   0E3F           06305         swapf   0x3f, W                                     ; reg: 0x03f
14DB   390F           06306         andlw   0x0f
14DC   3830           06307         iorlw   0x30
14DD   118A           06308         bcf     PCLATH, 0x3                                 ; reg: 0x00a
14DE   120A           06309         bcf     PCLATH, 0x4                                 ; reg: 0x00a
14DF   2150           06310         call    function_013
14E0   302E           06311         movlw   0x2e
14E1   2150           06312         call    0x0150
14E2   083F           06313         movf    0x3f, W                                     ; reg: 0x03f
14E3   390F           06314         andlw   0x0f
14E4   3830           06315         iorlw   0x30
14E5   2150           06316         call    0x0150
14E6   3057           06317         movlw   0x57
14E7   2150           06318         call    0x0150
14E8   118A           06319         bcf     PCLATH, 0x3                                 ; reg: 0x00a
14E9   160A           06320         bsf     PCLATH, 0x4                                 ; reg: 0x00a
14EA   3040           06321         movlw   0x40
14EB   118A           06322         bcf     PCLATH, 0x3                                 ; reg: 0x00a
14EC   120A           06323         bcf     PCLATH, 0x4                                 ; reg: 0x00a
14ED   218C           06324         call    function_018
14EE   118A           06325         bcf     PCLATH, 0x3                                 ; reg: 0x00a
14EF   160A           06326         bsf     PCLATH, 0x4                                 ; reg: 0x00a
14F0   1683           06327         bsf     STATUS, RP0                                 ; reg: 0x003, bit: 5
14F1   1303           06328         bcf     STATUS, RP1                                 ; reg: 0x003, bit: 6
14F2   0820           06329         movf    0x20, W                                     ; reg: 0x0a0
14F3   1283           06330         bcf     STATUS, RP0                                 ; reg: 0x003, bit: 5
14F4   1303           06331         bcf     STATUS, RP1                                 ; reg: 0x003, bit: 6
14F5   00B8           06332         movwf   0x38                                        ; reg: 0x038
14F6   3010           06333         movlw   0x10
14F7   00B9           06334         movwf   0x39                                        ; reg: 0x039
                      06335 
14F8                  06336 label_236:                                                  ; address: 0x14f8
                      06337 
14F8   30FF           06338         movlw   0xff
14F9   03B8           06339         decf    0x38, F                                     ; reg: 0x038
14FA   1BB8           06340         btfsc   0x38, 0x7                                   ; reg: 0x038
14FB   3020           06341         movlw   0x20
14FC   118A           06342         bcf     PCLATH, 0x3                                 ; reg: 0x00a
14FD   120A           06343         bcf     PCLATH, 0x4                                 ; reg: 0x00a
14FE   2150           06344         call    function_013
14FF   118A           06345         bcf     PCLATH, 0x3                                 ; reg: 0x00a
1500   160A           06346         bsf     PCLATH, 0x4                                 ; reg: 0x00a
1501   0BB9           06347         decfsz  0x39, F                                     ; reg: 0x039
1502   2CF8           06348         goto    label_236
gpasm-1.5.0 #1285 (Jan 23 2020) unidds_v1_10.   27.01.2020  22:56:48        PAGE 121


LOC    OBJECT CODE    LINE  SOURCE TEXT
  VALUE

1503   2C9C           06349         goto    label_235
                      06350 
1504                  06351 label_237:                                                  ; address: 0x1504
                      06352 
1504   118A           06353         bcf     PCLATH, 0x3                                 ; reg: 0x00a
1505   120A           06354         bcf     PCLATH, 0x4                                 ; reg: 0x00a
1506   236D           06355         call    function_025
1507   118A           06356         bcf     PCLATH, 0x3                                 ; reg: 0x00a
1508   160A           06357         bsf     PCLATH, 0x4                                 ; reg: 0x00a
1509   1803           06358         btfsc   STATUS, C                                   ; reg: 0x003, bit: 0
150A   2D04           06359         goto    label_237
150B   118A           06360         bcf     PCLATH, 0x3                                 ; reg: 0x00a
150C   120A           06361         bcf     PCLATH, 0x4                                 ; reg: 0x00a
150D   1187           06362         bcf     PORTC, RC3                                  ; reg: 0x007, bit: 3
150E   2533           06363         call    function_040
150F   2184           06364         call    0x0184
1510   118A           06365         bcf     PCLATH, 0x3                                 ; reg: 0x00a
1511   160A           06366         bsf     PCLATH, 0x4                                 ; reg: 0x00a
1512   1532           06367         bsf     0x32, 0x2                                   ; reg: 0x032
1513   0008           06368         return
                      06369 
1514                  06370 function_075:                                               ; address: 0x1514
                      06371 
1514   118A           06372         bcf     PCLATH, 0x3                                 ; reg: 0x00a
1515   120A           06373         bcf     PCLATH, 0x4                                 ; reg: 0x00a
1516   2386           06374         call    function_026
1517   118A           06375         bcf     PCLATH, 0x3                                 ; reg: 0x00a
1518   160A           06376         bsf     PCLATH, 0x4                                 ; reg: 0x00a
1519   0863           06377         movf    0x63, W                                     ; reg: 0x063
151A   1903           06378         btfsc   STATUS, Z                                   ; reg: 0x003, bit: 2
151B   2D6A           06379         goto    label_241
151C   00BF           06380         movwf   0x3f                                        ; reg: 0x03f
151D   0864           06381         movf    0x64, W                                     ; reg: 0x064
151E   00C1           06382         movwf   0x41                                        ; reg: 0x041
151F   0841           06383         movf    0x41, W                                     ; reg: 0x041
1520   02BF           06384         subwf   0x3f, F                                     ; reg: 0x03f
1521   0842           06385         movf    0x42, W                                     ; reg: 0x042
1522   1C03           06386         btfss   STATUS, C                                   ; reg: 0x003, bit: 0
1523   0F42           06387         incfsz  0x42, W                                     ; reg: 0x042
1524   02C0           06388         subwf   0x40, F                                     ; reg: 0x040
1525   1C03           06389         btfss   STATUS, C                                   ; reg: 0x003, bit: 0
1526   2D66           06390         goto    label_240
1527   08BF           06391         movf    0x3f, F                                     ; reg: 0x03f
1528   1903           06392         btfsc   STATUS, Z                                   ; reg: 0x003, bit: 2
1529   2D66           06393         goto    label_240
152A   0863           06394         movf    0x63, W                                     ; reg: 0x063
152B   00C3           06395         movwf   0x43                                        ; reg: 0x043
152C   0843           06396         movf    0x43, W                                     ; reg: 0x043
152D   07C1           06397         addwf   0x41, F                                     ; reg: 0x041
152E   0844           06398         movf    0x44, W                                     ; reg: 0x044
152F   1803           06399         btfsc   STATUS, C                                   ; reg: 0x003, bit: 0
1530   0F44           06400         incfsz  0x44, W                                     ; reg: 0x044
1531   07C2           06401         addwf   0x42, F                                     ; reg: 0x042
gpasm-1.5.0 #1285 (Jan 23 2020) unidds_v1_10.   27.01.2020  22:56:48        PAGE 122


LOC    OBJECT CODE    LINE  SOURCE TEXT
  VALUE

1532   01C4           06402         clrf    0x44                                        ; reg: 0x044
1533   03C4           06403         decf    0x44, F                                     ; reg: 0x044
                      06404 
1534                  06405 label_238:                                                  ; address: 0x1534
                      06406 
1534   0AC4           06407         incf    0x44, F                                     ; reg: 0x044
1535   083F           06408         movf    0x3f, W                                     ; reg: 0x03f
1536   02C1           06409         subwf   0x41, F                                     ; reg: 0x041
1537   0840           06410         movf    0x40, W                                     ; reg: 0x040
1538   1C03           06411         btfss   STATUS, C                                   ; reg: 0x003, bit: 0
1539   0F40           06412         incfsz  0x40, W                                     ; reg: 0x040
153A   02C2           06413         subwf   0x42, F                                     ; reg: 0x042
153B   1803           06414         btfsc   STATUS, C                                   ; reg: 0x003, bit: 0
153C   2D34           06415         goto    label_238
153D   083F           06416         movf    0x3f, W                                     ; reg: 0x03f
153E   07C1           06417         addwf   0x41, F                                     ; reg: 0x041
153F   0840           06418         movf    0x40, W                                     ; reg: 0x040
1540   1803           06419         btfsc   STATUS, C                                   ; reg: 0x003, bit: 0
1541   0F40           06420         incfsz  0x40, W                                     ; reg: 0x040
1542   07C2           06421         addwf   0x42, F                                     ; reg: 0x042
1543   01C2           06422         clrf    0x42                                        ; reg: 0x042
1544   0841           06423         movf    0x41, W                                     ; reg: 0x041
1545   1003           06424         bcf     STATUS, C                                   ; reg: 0x003, bit: 0
1546   0DC1           06425         rlf     0x41, F                                     ; reg: 0x041
1547   0DC2           06426         rlf     0x42, F                                     ; reg: 0x042
1548   1003           06427         bcf     STATUS, C                                   ; reg: 0x003, bit: 0
1549   0DC1           06428         rlf     0x41, F                                     ; reg: 0x041
154A   0DC2           06429         rlf     0x42, F                                     ; reg: 0x042
154B   07C1           06430         addwf   0x41, F                                     ; reg: 0x041
154C   1803           06431         btfsc   STATUS, C                                   ; reg: 0x003, bit: 0
154D   0AC2           06432         incf    0x42, F                                     ; reg: 0x042
154E   1003           06433         bcf     STATUS, C                                   ; reg: 0x003, bit: 0
154F   0DC1           06434         rlf     0x41, F                                     ; reg: 0x041
1550   0DC2           06435         rlf     0x42, F                                     ; reg: 0x042
1551   01C3           06436         clrf    0x43                                        ; reg: 0x043
1552   03C3           06437         decf    0x43, F                                     ; reg: 0x043
                      06438 
1553                  06439 label_239:                                                  ; address: 0x1553
                      06440 
1553   0AC3           06441         incf    0x43, F                                     ; reg: 0x043
1554   083F           06442         movf    0x3f, W                                     ; reg: 0x03f
1555   02C1           06443         subwf   0x41, F                                     ; reg: 0x041
1556   0840           06444         movf    0x40, W                                     ; reg: 0x040
1557   1C03           06445         btfss   STATUS, C                                   ; reg: 0x003, bit: 0
1558   0F40           06446         incfsz  0x40, W                                     ; reg: 0x040
1559   02C2           06447         subwf   0x42, F                                     ; reg: 0x042
155A   1803           06448         btfsc   STATUS, C                                   ; reg: 0x003, bit: 0
155B   2D53           06449         goto    label_239
155C   083F           06450         movf    0x3f, W                                     ; reg: 0x03f
155D   07C1           06451         addwf   0x41, F                                     ; reg: 0x041
155E   0840           06452         movf    0x40, W                                     ; reg: 0x040
155F   1803           06453         btfsc   STATUS, C                                   ; reg: 0x003, bit: 0
1560   0F40           06454         incfsz  0x40, W                                     ; reg: 0x040
gpasm-1.5.0 #1285 (Jan 23 2020) unidds_v1_10.   27.01.2020  22:56:48        PAGE 123


LOC    OBJECT CODE    LINE  SOURCE TEXT
  VALUE

1561   07C2           06455         addwf   0x42, F                                     ; reg: 0x042
1562   300A           06456         movlw   0x0a
1563   0244           06457         subwf   0x44, W                                     ; reg: 0x044
1564   1C03           06458         btfss   STATUS, C                                   ; reg: 0x003, bit: 0
1565   2D6E           06459         goto    label_242
                      06460 
1566                  06461 label_240:                                                  ; address: 0x1566
                      06462 
1566   3009           06463         movlw   0x09
1567   00C3           06464         movwf   0x43                                        ; reg: 0x043
1568   00C4           06465         movwf   0x44                                        ; reg: 0x044
1569   2D6E           06466         goto    label_242
                      06467 
156A                  06468 label_241:                                                  ; address: 0x156a
                      06469 
156A   01C3           06470         clrf    0x43                                        ; reg: 0x043
156B   01C4           06471         clrf    0x44                                        ; reg: 0x044
156C   01C2           06472         clrf    0x42                                        ; reg: 0x042
156D   2D7E           06473         goto    label_245
                      06474 
156E                  06475 label_242:                                                  ; address: 0x156e
                      06476 
156E   01C2           06477         clrf    0x42                                        ; reg: 0x042
156F   3002           06478         movlw   0x02
1570   0244           06479         subwf   0x44, W                                     ; reg: 0x044
1571   1C03           06480         btfss   STATUS, C                                   ; reg: 0x003, bit: 0
1572   2D78           06481         goto    label_243
1573   0344           06482         decf    0x44, W                                     ; reg: 0x044
1574   00C2           06483         movwf   0x42                                        ; reg: 0x042
1575   3009           06484         movlw   0x09
1576   07C2           06485         addwf   0x42, F                                     ; reg: 0x042
1577   2D7A           06486         goto    label_244
                      06487 
1578                  06488 label_243:                                                  ; address: 0x1578
                      06489 
1578   0843           06490         movf    0x43, W                                     ; reg: 0x043
1579   00C2           06491         movwf   0x42                                        ; reg: 0x042
                      06492 
157A                  06493 label_244:                                                  ; address: 0x157a
                      06494 
157A   3012           06495         movlw   0x12
157B   0242           06496         subwf   0x42, W                                     ; reg: 0x042
157C   1803           06497         btfsc   STATUS, C                                   ; reg: 0x003, bit: 0
157D   03C2           06498         decf    0x42, F                                     ; reg: 0x042
                      06499 
157E                  06500 label_245:                                                  ; address: 0x157e
                      06501 
157E   0842           06502         movf    0x42, W                                     ; reg: 0x042
157F   1683           06503         bsf     STATUS, RP0                                 ; reg: 0x003, bit: 5
1580   1303           06504         bcf     STATUS, RP1                                 ; reg: 0x003, bit: 6
1581   00A0           06505         movwf   0x20                                        ; reg: 0x0a0
1582   1283           06506         bcf     STATUS, RP0                                 ; reg: 0x003, bit: 5
1583   1303           06507         bcf     STATUS, RP1                                 ; reg: 0x003, bit: 6
gpasm-1.5.0 #1285 (Jan 23 2020) unidds_v1_10.   27.01.2020  22:56:48        PAGE 124


LOC    OBJECT CODE    LINE  SOURCE TEXT
  VALUE

1584   0843           06508         movf    0x43, W                                     ; reg: 0x043
1585   1683           06509         bsf     STATUS, RP0                                 ; reg: 0x003, bit: 5
1586   1303           06510         bcf     STATUS, RP1                                 ; reg: 0x003, bit: 6
1587   00A1           06511         movwf   0x21                                        ; reg: 0x0a1
1588   1283           06512         bcf     STATUS, RP0                                 ; reg: 0x003, bit: 5
1589   1303           06513         bcf     STATUS, RP1                                 ; reg: 0x003, bit: 6
158A   0844           06514         movf    0x44, W                                     ; reg: 0x044
158B   1683           06515         bsf     STATUS, RP0                                 ; reg: 0x003, bit: 5
158C   1303           06516         bcf     STATUS, RP1                                 ; reg: 0x003, bit: 6
158D   00A2           06517         movwf   0x22                                        ; reg: 0x0a2
158E   1283           06518         bcf     STATUS, RP0                                 ; reg: 0x003, bit: 5
158F   1303           06519         bcf     STATUS, RP1                                 ; reg: 0x003, bit: 6
1590   0008           06520         return
                      06521 
1591                  06522 label_246:                                                  ; address: 0x1591
                      06523 
1591   01BE           06524         clrf    0x3e                                        ; reg: 0x03e
1592   1820           06525         btfsc   0x20, 0x0                                   ; reg: 0x020
1593   1205           06526         bcf     PORTA, RA4                                  ; reg: 0x005, bit: 4
1594   3002           06527         movlw   0x02
1595   00BD           06528         movwf   0x3d                                        ; reg: 0x03d
1596   1032           06529         bcf     0x32, 0x0                                   ; reg: 0x032
1597   3011           06530         movlw   0x11
1598   00F8           06531         movwf   (Common_RAM + 8)                            ; reg: 0x078
1599   3008           06532         movlw   0x08
159A   00B8           06533         movwf   0x38                                        ; reg: 0x038
159B   3029           06534         movlw   0x29
159C   0084           06535         movwf   FSR                                         ; reg: 0x004
159D   118A           06536         bcf     PCLATH, 0x3                                 ; reg: 0x00a
159E   120A           06537         bcf     PCLATH, 0x4                                 ; reg: 0x00a
159F   266E           06538         call    function_055
15A0   118A           06539         bcf     PCLATH, 0x3                                 ; reg: 0x00a
15A1   160A           06540         bsf     PCLATH, 0x4                                 ; reg: 0x00a
15A2   241C           06541         call    function_072
15A3   118A           06542         bcf     PCLATH, 0x3                                 ; reg: 0x00a
15A4   120A           06543         bcf     PCLATH, 0x4                                 ; reg: 0x00a
15A5   3008           06544         movlw   0x08
15A6   00F4           06545         movwf   (Common_RAM + 4)                            ; reg: 0x074
15A7   3098           06546         movlw   0x98
15A8   218E           06547         call    function_019
15A9   118A           06548         bcf     PCLATH, 0x3                                 ; reg: 0x00a
15AA   160A           06549         bsf     PCLATH, 0x4                                 ; reg: 0x00a
15AB   1683           06550         bsf     STATUS, RP0                                 ; reg: 0x003, bit: 5
15AC   1303           06551         bcf     STATUS, RP1                                 ; reg: 0x003, bit: 6
15AD   082D           06552         movf    0x2d, W                                     ; reg: 0x0ad
15AE   00AB           06553         movwf   0x2b                                        ; reg: 0x0ab
15AF   082C           06554         movf    0x2c, W                                     ; reg: 0x0ac
15B0   00AA           06555         movwf   0x2a                                        ; reg: 0x0aa
15B1   1283           06556         bcf     STATUS, RP0                                 ; reg: 0x003, bit: 5
15B2   1303           06557         bcf     STATUS, RP1                                 ; reg: 0x003, bit: 6
                      06558 
15B3                  06559 label_247:                                                  ; address: 0x15b3
                      06560 
gpasm-1.5.0 #1285 (Jan 23 2020) unidds_v1_10.   27.01.2020  22:56:48        PAGE 125


LOC    OBJECT CODE    LINE  SOURCE TEXT
  VALUE

15B3   118A           06561         bcf     PCLATH, 0x3                                 ; reg: 0x00a
15B4   120A           06562         bcf     PCLATH, 0x4                                 ; reg: 0x00a
15B5   231A           06563         call    function_023
15B6   2391           06564         call    0x0391
15B7   24ED           06565         call    0x04ed
15B8   2533           06566         call    0x0533
15B9   118A           06567         bcf     PCLATH, 0x3                                 ; reg: 0x00a
15BA   160A           06568         bsf     PCLATH, 0x4                                 ; reg: 0x00a
15BB   241C           06569         call    function_072
15BC   1683           06570         bsf     STATUS, RP0                                 ; reg: 0x003, bit: 5
15BD   1303           06571         bcf     STATUS, RP1                                 ; reg: 0x003, bit: 6
15BE   082D           06572         movf    0x2d, W                                     ; reg: 0x0ad
15BF   022B           06573         subwf   0x2b, W                                     ; reg: 0x0ab
15C0   1D03           06574         btfss   STATUS, Z                                   ; reg: 0x003, bit: 2
15C1   2DC4           06575         goto    label_248
15C2   082C           06576         movf    0x2c, W                                     ; reg: 0x02c
15C3   022A           06577         subwf   0x2a, W                                     ; reg: 0x02a
                      06578 
15C4                  06579 label_248:                                                  ; address: 0x15c4
                      06580 
15C4   0000           06581         nop
15C5   1283           06582         bcf     STATUS, RP0                                 ; reg: 0x003, bit: 5
15C6   1303           06583         bcf     STATUS, RP1                                 ; reg: 0x003, bit: 6
15C7   1803           06584         btfsc   STATUS, C                                   ; reg: 0x003, bit: 0
15C8   2DCF           06585         goto    label_249
15C9   1683           06586         bsf     STATUS, RP0                                 ; reg: 0x003, bit: 5
15CA   1303           06587         bcf     STATUS, RP1                                 ; reg: 0x003, bit: 6
15CB   0AA9           06588         incf    0x29, F                                     ; reg: 0x0a9
15CC   1283           06589         bcf     STATUS, RP0                                 ; reg: 0x003, bit: 5
15CD   1303           06590         bcf     STATUS, RP1                                 ; reg: 0x003, bit: 6
15CE   2DD4           06591         goto    label_250
                      06592 
15CF                  06593 label_249:                                                  ; address: 0x15cf
                      06594 
15CF   1683           06595         bsf     STATUS, RP0                                 ; reg: 0x003, bit: 5
15D0   1303           06596         bcf     STATUS, RP1                                 ; reg: 0x003, bit: 6
15D1   01A9           06597         clrf    0x29                                        ; reg: 0x0a9
15D2   1283           06598         bcf     STATUS, RP0                                 ; reg: 0x003, bit: 5
15D3   1303           06599         bcf     STATUS, RP1                                 ; reg: 0x003, bit: 6
                      06600 
15D4                  06601 label_250:                                                  ; address: 0x15d4
                      06602 
15D4   1683           06603         bsf     STATUS, RP0                                 ; reg: 0x003, bit: 5
15D5   1303           06604         bcf     STATUS, RP1                                 ; reg: 0x003, bit: 6
15D6   3003           06605         movlw   0x03
15D7   0229           06606         subwf   0x29, W                                     ; reg: 0x0a9
15D8   1283           06607         bcf     STATUS, RP0                                 ; reg: 0x003, bit: 5
15D9   1303           06608         bcf     STATUS, RP1                                 ; reg: 0x003, bit: 6
15DA   1C03           06609         btfss   STATUS, C                                   ; reg: 0x003, bit: 0
15DB   2E00           06610         goto    label_252
15DC   1820           06611         btfsc   0x20, 0x0                                   ; reg: 0x020
15DD   1605           06612         bsf     PORTA, RA4                                  ; reg: 0x005, bit: 4
15DE   3028           06613         movlw   0x28
gpasm-1.5.0 #1285 (Jan 23 2020) unidds_v1_10.   27.01.2020  22:56:48        PAGE 126


LOC    OBJECT CODE    LINE  SOURCE TEXT
  VALUE

15DF   00BA           06614         movwf   0x3a                                        ; reg: 0x03a
                      06615 
15E0                  06616 label_251:                                                  ; address: 0x15e0
                      06617 
15E0   241C           06618         call    function_072
15E1   1683           06619         bsf     STATUS, RP0                                 ; reg: 0x003, bit: 5
15E2   1303           06620         bcf     STATUS, RP1                                 ; reg: 0x003, bit: 6
15E3   082D           06621         movf    0x2d, W                                     ; reg: 0x0ad
15E4   00AB           06622         movwf   0x2b                                        ; reg: 0x0ab
15E5   082C           06623         movf    0x2c, W                                     ; reg: 0x0ac
15E6   00AA           06624         movwf   0x2a                                        ; reg: 0x0aa
15E7   1283           06625         bcf     STATUS, RP0                                 ; reg: 0x003, bit: 5
15E8   1303           06626         bcf     STATUS, RP1                                 ; reg: 0x003, bit: 6
15E9   118A           06627         bcf     PCLATH, 0x3                                 ; reg: 0x00a
15EA   120A           06628         bcf     PCLATH, 0x4                                 ; reg: 0x00a
15EB   211F           06629         call    function_008
15EC   118A           06630         bcf     PCLATH, 0x3                                 ; reg: 0x00a
15ED   160A           06631         bsf     PCLATH, 0x4                                 ; reg: 0x00a
15EE   08BE           06632         movf    0x3e, F                                     ; reg: 0x03e
15EF   1D03           06633         btfss   STATUS, Z                                   ; reg: 0x003, bit: 2
15F0   2E25           06634         goto    label_256
15F1   1F06           06635         btfss   PORTB, RB6                                  ; reg: 0x006, bit: 6
15F2   2E25           06636         goto    label_256
15F3   1F86           06637         btfss   PORTB, RB7                                  ; reg: 0x006, bit: 7
15F4   2E25           06638         goto    label_256
15F5   1E86           06639         btfss   PORTB, RB5                                  ; reg: 0x006, bit: 5
15F6   2E25           06640         goto    label_256
15F7   0BBA           06641         decfsz  0x3a, F                                     ; reg: 0x03a
15F8   2DE0           06642         goto    label_251
15F9   1683           06643         bsf     STATUS, RP0                                 ; reg: 0x003, bit: 5
15FA   1303           06644         bcf     STATUS, RP1                                 ; reg: 0x003, bit: 6
15FB   01A9           06645         clrf    0x29                                        ; reg: 0x0a9
15FC   1283           06646         bcf     STATUS, RP0                                 ; reg: 0x003, bit: 5
15FD   1303           06647         bcf     STATUS, RP1                                 ; reg: 0x003, bit: 6
15FE   1820           06648         btfsc   0x20, 0x0                                   ; reg: 0x020
15FF   1205           06649         bcf     PORTA, RA4                                  ; reg: 0x005, bit: 4
                      06650 
1600                  06651 label_252:                                                  ; address: 0x1600
                      06652 
1600   1683           06653         bsf     STATUS, RP0                                 ; reg: 0x003, bit: 5
1601   1303           06654         bcf     STATUS, RP1                                 ; reg: 0x003, bit: 6
1602   082D           06655         movf    0x2d, W                                     ; reg: 0x0ad
1603   00AB           06656         movwf   0x2b                                        ; reg: 0x0ab
1604   082C           06657         movf    0x2c, W                                     ; reg: 0x0ac
1605   00AA           06658         movwf   0x2a                                        ; reg: 0x0aa
1606   1283           06659         bcf     STATUS, RP0                                 ; reg: 0x003, bit: 5
1607   1303           06660         bcf     STATUS, RP1                                 ; reg: 0x003, bit: 6
1608   08BE           06661         movf    0x3e, F                                     ; reg: 0x03e
1609   1D03           06662         btfss   STATUS, Z                                   ; reg: 0x003, bit: 2
160A   2E25           06663         goto    label_256
160B   1F06           06664         btfss   PORTB, RB6                                  ; reg: 0x006, bit: 6
160C   2E25           06665         goto    label_256
160D   1F86           06666         btfss   PORTB, RB7                                  ; reg: 0x006, bit: 7
gpasm-1.5.0 #1285 (Jan 23 2020) unidds_v1_10.   27.01.2020  22:56:48        PAGE 127


LOC    OBJECT CODE    LINE  SOURCE TEXT
  VALUE

160E   2E25           06667         goto    label_256
160F   1E86           06668         btfss   PORTB, RB5                                  ; reg: 0x006, bit: 5
1610   2E25           06669         goto    label_256
1611   0830           06670         movf    0x30, W                                     ; reg: 0x030
1612   022C           06671         subwf   0x2c, W                                     ; reg: 0x02c
1613   1D03           06672         btfss   STATUS, Z                                   ; reg: 0x003, bit: 2
1614   2E21           06673         goto    label_255
1615   082F           06674         movf    0x2f, W                                     ; reg: 0x02f
1616   022B           06675         subwf   0x2b, W                                     ; reg: 0x02b
1617   1D03           06676         btfss   STATUS, Z                                   ; reg: 0x003, bit: 2
1618   2E20           06677         goto    label_254
1619   082E           06678         movf    0x2e, W                                     ; reg: 0x02e
161A   022A           06679         subwf   0x2a, W                                     ; reg: 0x02a
161B   1D03           06680         btfss   STATUS, Z                                   ; reg: 0x003, bit: 2
161C   2E1F           06681         goto    label_253
161D   082D           06682         movf    0x2d, W                                     ; reg: 0x02d
161E   0229           06683         subwf   0x29, W                                     ; reg: 0x029
                      06684 
161F                  06685 label_253:                                                  ; address: 0x161f
                      06686 
161F   0000           06687         nop
                      06688 
1620                  06689 label_254:                                                  ; address: 0x1620
                      06690 
1620   0000           06691         nop
                      06692 
1621                  06693 label_255:                                                  ; address: 0x1621
                      06694 
1621   0000           06695         nop
1622   1C03           06696         btfss   STATUS, C                                   ; reg: 0x003, bit: 0
1623   2DB3           06697         goto    label_247
1624   2D91           06698         goto    label_246
                      06699 
1625                  06700 label_256:                                                  ; address: 0x1625
                      06701 
1625   1820           06702         btfsc   0x20, 0x0                                   ; reg: 0x020
1626   1605           06703         bsf     PORTA, RA4                                  ; reg: 0x005, bit: 4
1627   118A           06704         bcf     PCLATH, 0x3                                 ; reg: 0x00a
1628   120A           06705         bcf     PCLATH, 0x4                                 ; reg: 0x00a
1629   3008           06706         movlw   0x08
162A   00F4           06707         movwf   (Common_RAM + 4)                            ; reg: 0x074
162B   30A2           06708         movlw   0xa2
162C   218E           06709         call    function_019
162D   118A           06710         bcf     PCLATH, 0x3                                 ; reg: 0x00a
162E   160A           06711         bsf     PCLATH, 0x4                                 ; reg: 0x00a
                      06712 
162F                  06713 label_257:                                                  ; address: 0x162f
                      06714 
162F   1F06           06715         btfss   PORTB, RB6                                  ; reg: 0x006, bit: 6
1630   2E2F           06716         goto    label_257
1631   1F86           06717         btfss   PORTB, RB7                                  ; reg: 0x006, bit: 7
1632   2E2F           06718         goto    label_257
1633   1E86           06719         btfss   PORTB, RB5                                  ; reg: 0x006, bit: 5
gpasm-1.5.0 #1285 (Jan 23 2020) unidds_v1_10.   27.01.2020  22:56:48        PAGE 128


LOC    OBJECT CODE    LINE  SOURCE TEXT
  VALUE

1634   2E2F           06720         goto    label_257
1635   1820           06721         btfsc   0x20, 0x0                                   ; reg: 0x020
1636   1205           06722         bcf     PORTA, RA4                                  ; reg: 0x005, bit: 4
1637   01BE           06723         clrf    0x3e                                        ; reg: 0x03e
1638   0008           06724         return
                      06725 
1639                  06726 label_258:                                                  ; address: 0x1639
                      06727 
1639   01BC           06728         clrf    0x3c                                        ; reg: 0x03c
163A   01BE           06729         clrf    0x3e                                        ; reg: 0x03e
163B   118A           06730         bcf     PCLATH, 0x3                                 ; reg: 0x00a
163C   120A           06731         bcf     PCLATH, 0x4                                 ; reg: 0x00a
163D   2184           06732         call    function_017
163E   118A           06733         bcf     PCLATH, 0x3                                 ; reg: 0x00a
163F   160A           06734         bsf     PCLATH, 0x4                                 ; reg: 0x00a
                      06735 
1640                  06736 label_259:                                                  ; address: 0x1640
                      06737 
1640   118A           06738         bcf     PCLATH, 0x3                                 ; reg: 0x00a
1641   120A           06739         bcf     PCLATH, 0x4                                 ; reg: 0x00a
1642   236D           06740         call    function_025
1643   118A           06741         bcf     PCLATH, 0x3                                 ; reg: 0x00a
1644   160A           06742         bsf     PCLATH, 0x4                                 ; reg: 0x00a
1645   1803           06743         btfsc   STATUS, C                                   ; reg: 0x003, bit: 0
1646   2E40           06744         goto    label_259
1647   083C           06745         movf    0x3c, W                                     ; reg: 0x03c
1648   2000           06746         call    function_058
                      06747 
1649                  06748 label_260:                                                  ; address: 0x1649
                      06749 
1649   083E           06750         movf    0x3e, W                                     ; reg: 0x03e
164A   1903           06751         btfsc   STATUS, Z                                   ; reg: 0x003, bit: 2
164B   2E68           06752         goto    label_263
164C   118A           06753         bcf     PCLATH, 0x3                                 ; reg: 0x00a
164D   120A           06754         bcf     PCLATH, 0x4                                 ; reg: 0x00a
164E   2620           06755         call    function_051
164F   118A           06756         bcf     PCLATH, 0x3                                 ; reg: 0x00a
1650   160A           06757         bsf     PCLATH, 0x4                                 ; reg: 0x00a
1651   1BBE           06758         btfsc   0x3e, 0x7                                   ; reg: 0x03e
1652   2E59           06759         goto    label_261
1653   0ABC           06760         incf    0x3c, F                                     ; reg: 0x03c
1654   083C           06761         movf    0x3c, W                                     ; reg: 0x03c
1655   3A0C           06762         xorlw   0x0c
1656   1903           06763         btfsc   STATUS, Z                                   ; reg: 0x003, bit: 2
1657   01BC           06764         clrf    0x3c                                        ; reg: 0x03c
1658   2E60           06765         goto    label_262
                      06766 
1659                  06767 label_261:                                                  ; address: 0x1659
                      06768 
1659   03BC           06769         decf    0x3c, F                                     ; reg: 0x03c
165A   083C           06770         movf    0x3c, W                                     ; reg: 0x03c
165B   3AFF           06771         xorlw   0xff
165C   1D03           06772         btfss   STATUS, Z                                   ; reg: 0x003, bit: 2
gpasm-1.5.0 #1285 (Jan 23 2020) unidds_v1_10.   27.01.2020  22:56:48        PAGE 129


LOC    OBJECT CODE    LINE  SOURCE TEXT
  VALUE

165D   2E60           06773         goto    label_262
165E   300B           06774         movlw   0x0b
165F   00BC           06775         movwf   0x3c                                        ; reg: 0x03c
                      06776 
1660                  06777 label_262:                                                  ; address: 0x1660
                      06778 
1660   118A           06779         bcf     PCLATH, 0x3                                 ; reg: 0x00a
1661   120A           06780         bcf     PCLATH, 0x4                                 ; reg: 0x00a
1662   2184           06781         call    function_017
1663   118A           06782         bcf     PCLATH, 0x3                                 ; reg: 0x00a
1664   160A           06783         bsf     PCLATH, 0x4                                 ; reg: 0x00a
1665   083C           06784         movf    0x3c, W                                     ; reg: 0x03c
1666   2000           06785         call    function_058
1667   01BE           06786         clrf    0x3e                                        ; reg: 0x03e
                      06787 
1668                  06788 label_263:                                                  ; address: 0x1668
                      06789 
1668   118A           06790         bcf     PCLATH, 0x3                                 ; reg: 0x00a
1669   120A           06791         bcf     PCLATH, 0x4                                 ; reg: 0x00a
166A   236D           06792         call    function_025
166B   118A           06793         bcf     PCLATH, 0x3                                 ; reg: 0x00a
166C   160A           06794         bsf     PCLATH, 0x4                                 ; reg: 0x00a
166D   1C03           06795         btfss   STATUS, C                                   ; reg: 0x003, bit: 0
166E   2E49           06796         goto    label_260
                      06797 
166F                  06798 label_264:                                                  ; address: 0x166f
                      06799 
166F   118A           06800         bcf     PCLATH, 0x3                                 ; reg: 0x00a
1670   120A           06801         bcf     PCLATH, 0x4                                 ; reg: 0x00a
1671   236D           06802         call    function_025
1672   118A           06803         bcf     PCLATH, 0x3                                 ; reg: 0x00a
1673   160A           06804         bsf     PCLATH, 0x4                                 ; reg: 0x00a
1674   1803           06805         btfsc   STATUS, C                                   ; reg: 0x003, bit: 0
1675   2E6F           06806         goto    label_264
1676   083C           06807         movf    0x3c, W                                     ; reg: 0x03c
1677   2025           06808         call    function_061
1678   2E39           06809         goto    label_258
                      06810 
1679                  06811 function_076:                                               ; address: 0x1679
                      06812 
1679   0841           06813         movf    0x41, W                                     ; reg: 0x041
167A   00D0           06814         movwf   0x50                                        ; reg: 0x050
167B   0840           06815         movf    0x40, W                                     ; reg: 0x040
167C   00CF           06816         movwf   0x4f                                        ; reg: 0x04f
167D   0842           06817         movf    0x42, W                                     ; reg: 0x042
167E   00D1           06818         movwf   0x51                                        ; reg: 0x051
167F   0843           06819         movf    0x43, W                                     ; reg: 0x043
1680   00D2           06820         movwf   0x52                                        ; reg: 0x052
1681   3020           06821         movlw   0x20
1682   00B8           06822         movwf   0x38                                        ; reg: 0x038
1683   01C0           06823         clrf    0x40                                        ; reg: 0x040
1684   01C1           06824         clrf    0x41                                        ; reg: 0x041
1685   01C2           06825         clrf    0x42                                        ; reg: 0x042
gpasm-1.5.0 #1285 (Jan 23 2020) unidds_v1_10.   27.01.2020  22:56:48        PAGE 130


LOC    OBJECT CODE    LINE  SOURCE TEXT
  VALUE

1686   01C3           06826         clrf    0x43                                        ; reg: 0x043
                      06827 
1687                  06828 label_265:                                                  ; address: 0x1687
                      06829 
1687   3040           06830         movlw   0x40
1688   0084           06831         movwf   FSR                                         ; reg: 0x004
1689   3004           06832         movlw   0x04
168A   00B9           06833         movwf   0x39                                        ; reg: 0x039
                      06834 
168B                  06835 label_266:                                                  ; address: 0x168b
                      06836 
168B   0800           06837         movf    INDF, W                                     ; reg: 0x000
168C   390F           06838         andlw   0x0f
168D   00C4           06839         movwf   0x44                                        ; reg: 0x044
168E   3005           06840         movlw   0x05
168F   0244           06841         subwf   0x44, W                                     ; reg: 0x044
1690   1C03           06842         btfss   STATUS, C                                   ; reg: 0x003, bit: 0
1691   2E94           06843         goto    label_267
1692   3003           06844         movlw   0x03
1693   0780           06845         addwf   INDF, F                                     ; reg: 0x000
                      06846 
1694                  06847 label_267:                                                  ; address: 0x1694
                      06848 
1694   0800           06849         movf    INDF, W                                     ; reg: 0x000
1695   39F0           06850         andlw   0xf0
1696   00C4           06851         movwf   0x44                                        ; reg: 0x044
1697   3050           06852         movlw   0x50
1698   0244           06853         subwf   0x44, W                                     ; reg: 0x044
1699   1C03           06854         btfss   STATUS, C                                   ; reg: 0x003, bit: 0
169A   2E9D           06855         goto    label_268
169B   3030           06856         movlw   0x30
169C   0780           06857         addwf   INDF, F                                     ; reg: 0x000
                      06858 
169D                  06859 label_268:                                                  ; address: 0x169d
                      06860 
169D   0A84           06861         incf    FSR, F                                      ; reg: 0x004
169E   0BB9           06862         decfsz  0x39, F                                     ; reg: 0x039
169F   2E8B           06863         goto    label_266
16A0   1003           06864         bcf     STATUS, C                                   ; reg: 0x003, bit: 0
16A1   0DCF           06865         rlf     0x4f, F                                     ; reg: 0x04f
16A2   0DD0           06866         rlf     0x50, F                                     ; reg: 0x050
16A3   0DD1           06867         rlf     0x51, F                                     ; reg: 0x051
16A4   0DD2           06868         rlf     0x52, F                                     ; reg: 0x052
16A5   0DC0           06869         rlf     0x40, F                                     ; reg: 0x040
16A6   0DC1           06870         rlf     0x41, F                                     ; reg: 0x041
16A7   0DC2           06871         rlf     0x42, F                                     ; reg: 0x042
16A8   0DC3           06872         rlf     0x43, F                                     ; reg: 0x043
16A9   0BB8           06873         decfsz  0x38, F                                     ; reg: 0x038
16AA   2E87           06874         goto    label_265
16AB   0008           06875         return
                      06876 
16AC                  06877 function_077:                                               ; address: 0x16ac
                      06878 
gpasm-1.5.0 #1285 (Jan 23 2020) unidds_v1_10.   27.01.2020  22:56:48        PAGE 131


LOC    OBJECT CODE    LINE  SOURCE TEXT
  VALUE

16AC   0841           06879         movf    0x41, W                                     ; reg: 0x041
16AD   00D0           06880         movwf   0x50                                        ; reg: 0x050
16AE   0840           06881         movf    0x40, W                                     ; reg: 0x040
16AF   00CF           06882         movwf   0x4f                                        ; reg: 0x04f
16B0   0842           06883         movf    0x42, W                                     ; reg: 0x042
16B1   00D1           06884         movwf   0x51                                        ; reg: 0x051
16B2   0843           06885         movf    0x43, W                                     ; reg: 0x043
16B3   00D2           06886         movwf   0x52                                        ; reg: 0x052
16B4   01C0           06887         clrf    0x40                                        ; reg: 0x040
16B5   01C1           06888         clrf    0x41                                        ; reg: 0x041
16B6   01C2           06889         clrf    0x42                                        ; reg: 0x042
16B7   01C3           06890         clrf    0x43                                        ; reg: 0x043
16B8   3020           06891         movlw   0x20
16B9   00B9           06892         movwf   0x39                                        ; reg: 0x039
                      06893 
16BA                  06894 label_269:                                                  ; address: 0x16ba
                      06895 
16BA   1003           06896         bcf     STATUS, C                                   ; reg: 0x003, bit: 0
16BB   0CD2           06897         rrf     0x52, F                                     ; reg: 0x052
16BC   0CD1           06898         rrf     0x51, F                                     ; reg: 0x051
16BD   0CD0           06899         rrf     0x50, F                                     ; reg: 0x050
16BE   0CCF           06900         rrf     0x4f, F                                     ; reg: 0x04f
16BF   0CC3           06901         rrf     0x43, F                                     ; reg: 0x043
16C0   0CC2           06902         rrf     0x42, F                                     ; reg: 0x042
16C1   0CC1           06903         rrf     0x41, F                                     ; reg: 0x041
16C2   0CC0           06904         rrf     0x40, F                                     ; reg: 0x040
16C3   304F           06905         movlw   0x4f
16C4   0084           06906         movwf   FSR                                         ; reg: 0x004
16C5   3004           06907         movlw   0x04
16C6   00B8           06908         movwf   0x38                                        ; reg: 0x038
                      06909 
16C7                  06910 label_270:                                                  ; address: 0x16c7
                      06911 
16C7   1F80           06912         btfss   INDF, 0x7                                   ; reg: 0x000
16C8   2ECB           06913         goto    label_271
16C9   3030           06914         movlw   0x30
16CA   0280           06915         subwf   INDF, F                                     ; reg: 0x000
                      06916 
16CB                  06917 label_271:                                                  ; address: 0x16cb
                      06918 
16CB   1D80           06919         btfss   INDF, 0x3                                   ; reg: 0x000
16CC   2ECF           06920         goto    label_272
16CD   3003           06921         movlw   0x03
16CE   0280           06922         subwf   INDF, F                                     ; reg: 0x000
                      06923 
16CF                  06924 label_272:                                                  ; address: 0x16cf
                      06925 
16CF   0A84           06926         incf    FSR, F                                      ; reg: 0x004
16D0   0BB8           06927         decfsz  0x38, F                                     ; reg: 0x038
16D1   2EC7           06928         goto    label_270
16D2   0BB9           06929         decfsz  0x39, F                                     ; reg: 0x039
16D3   2EBA           06930         goto    label_269
16D4   0008           06931         return
gpasm-1.5.0 #1285 (Jan 23 2020) unidds_v1_10.   27.01.2020  22:56:48        PAGE 132


LOC    OBJECT CODE    LINE  SOURCE TEXT
  VALUE

                      06932 
16D5                  06933 function_078:                                               ; address: 0x16d5
                      06934 
16D5   01B8           06935         clrf    0x38                                        ; reg: 0x038
16D6   01BF           06936         clrf    0x3f                                        ; reg: 0x03f
16D7   01C0           06937         clrf    0x40                                        ; reg: 0x040
                      06938 
16D8                  06939 label_273:                                                  ; address: 0x16d8
                      06940 
16D8   0AB8           06941         incf    0x38, F                                     ; reg: 0x038
16D9   1003           06942         bcf     STATUS, C                                   ; reg: 0x003, bit: 0
16DA   1BC4           06943         btfsc   0x44, 0x7                                   ; reg: 0x044
16DB   2EEC           06944         goto    label_276
16DC   0DC3           06945         rlf     0x43, F                                     ; reg: 0x043
16DD   0DC4           06946         rlf     0x44, F                                     ; reg: 0x044
16DE   0844           06947         movf    0x44, W                                     ; reg: 0x044
16DF   0242           06948         subwf   0x42, W                                     ; reg: 0x042
16E0   1D03           06949         btfss   STATUS, Z                                   ; reg: 0x003, bit: 2
16E1   2EE4           06950         goto    label_274
16E2   0843           06951         movf    0x43, W                                     ; reg: 0x043
16E3   0241           06952         subwf   0x41, W                                     ; reg: 0x041
                      06953 
16E4                  06954 label_274:                                                  ; address: 0x16e4
                      06955 
16E4   0000           06956         nop
16E5   1803           06957         btfsc   STATUS, C                                   ; reg: 0x003, bit: 0
16E6   2ED8           06958         goto    label_273
16E7   01BF           06959         clrf    0x3f                                        ; reg: 0x03f
16E8   01C0           06960         clrf    0x40                                        ; reg: 0x040
                      06961 
16E9                  06962 label_275:                                                  ; address: 0x16e9
                      06963 
16E9   1003           06964         bcf     STATUS, C                                   ; reg: 0x003, bit: 0
16EA   0CC4           06965         rrf     0x44, F                                     ; reg: 0x044
16EB   0CC3           06966         rrf     0x43, F                                     ; reg: 0x043
                      06967 
16EC                  06968 label_276:                                                  ; address: 0x16ec
                      06969 
16EC   0844           06970         movf    0x44, W                                     ; reg: 0x044
16ED   0242           06971         subwf   0x42, W                                     ; reg: 0x042
16EE   1D03           06972         btfss   STATUS, Z                                   ; reg: 0x003, bit: 2
16EF   2EF2           06973         goto    label_277
16F0   0843           06974         movf    0x43, W                                     ; reg: 0x043
16F1   0241           06975         subwf   0x41, W                                     ; reg: 0x041
                      06976 
16F2                  06977 label_277:                                                  ; address: 0x16f2
                      06978 
16F2   0000           06979         nop
16F3   1C03           06980         btfss   STATUS, C                                   ; reg: 0x003, bit: 0
16F4   2EFB           06981         goto    label_278
16F5   0843           06982         movf    0x43, W                                     ; reg: 0x043
16F6   02C1           06983         subwf   0x41, F                                     ; reg: 0x041
16F7   0844           06984         movf    0x44, W                                     ; reg: 0x044
gpasm-1.5.0 #1285 (Jan 23 2020) unidds_v1_10.   27.01.2020  22:56:48        PAGE 133


LOC    OBJECT CODE    LINE  SOURCE TEXT
  VALUE

16F8   1C03           06985         btfss   STATUS, C                                   ; reg: 0x003, bit: 0
16F9   0F44           06986         incfsz  0x44, W                                     ; reg: 0x044
16FA   02C2           06987         subwf   0x42, F                                     ; reg: 0x042
                      06988 
16FB                  06989 label_278:                                                  ; address: 0x16fb
                      06990 
16FB   0DBF           06991         rlf     0x3f, F                                     ; reg: 0x03f
16FC   0DC0           06992         rlf     0x40, F                                     ; reg: 0x040
16FD   0BB8           06993         decfsz  0x38, F                                     ; reg: 0x038
16FE   2EE9           06994         goto    label_275
16FF   0008           06995         return
                      06996 
1700                  06997 function_079:                                               ; address: 0x1700
                      06998 
1700   01BF           06999         clrf    0x3f                                        ; reg: 0x03f
1701   01C0           07000         clrf    0x40                                        ; reg: 0x040
1702   3010           07001         movlw   0x10
1703   00B8           07002         movwf   0x38                                        ; reg: 0x038
                      07003 
1704                  07004 label_279:                                                  ; address: 0x1704
                      07005 
1704   3043           07006         movlw   0x43
1705   00B3           07007         movwf   0x33                                        ; reg: 0x033
1706   303F           07008         movlw   0x3f
1707   00B4           07009         movwf   0x34                                        ; reg: 0x034
1708   01C6           07010         clrf    0x46                                        ; reg: 0x046
1709   1003           07011         bcf     STATUS, C                                   ; reg: 0x003, bit: 0
170A   0CC2           07012         rrf     0x42, F                                     ; reg: 0x042
170B   0CC1           07013         rrf     0x41, F                                     ; reg: 0x041
170C   1C03           07014         btfss   STATUS, C                                   ; reg: 0x003, bit: 0
170D   2F27           07015         goto    label_283
170E   3002           07016         movlw   0x02
170F   00B9           07017         movwf   0x39                                        ; reg: 0x039
                      07018 
1710                  07019 label_280:                                                  ; address: 0x1710
                      07020 
1710   0833           07021         movf    0x33, W                                     ; reg: 0x033
1711   0084           07022         movwf   FSR                                         ; reg: 0x004
1712   0800           07023         movf    INDF, W                                     ; reg: 0x000
1713   00C5           07024         movwf   0x45                                        ; reg: 0x045
1714   0834           07025         movf    0x34, W                                     ; reg: 0x034
1715   0084           07026         movwf   FSR                                         ; reg: 0x004
1716   0846           07027         movf    0x46, W                                     ; reg: 0x046
1717   01C6           07028         clrf    0x46                                        ; reg: 0x046
1718   0780           07029         addwf   INDF, F                                     ; reg: 0x000
1719   1C03           07030         btfss   STATUS, C                                   ; reg: 0x003, bit: 0
171A   2F1D           07031         goto    label_281
171B   3001           07032         movlw   0x01
171C   00C6           07033         movwf   0x46                                        ; reg: 0x046
                      07034 
171D                  07035 label_281:                                                  ; address: 0x171d
                      07036 
171D   0845           07037         movf    0x45, W                                     ; reg: 0x045
gpasm-1.5.0 #1285 (Jan 23 2020) unidds_v1_10.   27.01.2020  22:56:48        PAGE 134


LOC    OBJECT CODE    LINE  SOURCE TEXT
  VALUE

171E   0780           07038         addwf   INDF, F                                     ; reg: 0x000
171F   1C03           07039         btfss   STATUS, C                                   ; reg: 0x003, bit: 0
1720   2F23           07040         goto    label_282
1721   3001           07041         movlw   0x01
1722   00C6           07042         movwf   0x46                                        ; reg: 0x046
                      07043 
1723                  07044 label_282:                                                  ; address: 0x1723
                      07045 
1723   0AB3           07046         incf    0x33, F                                     ; reg: 0x033
1724   0AB4           07047         incf    0x34, F                                     ; reg: 0x034
1725   0BB9           07048         decfsz  0x39, F                                     ; reg: 0x039
1726   2F10           07049         goto    label_280
                      07050 
1727                  07051 label_283:                                                  ; address: 0x1727
                      07052 
1727   1003           07053         bcf     STATUS, C                                   ; reg: 0x003, bit: 0
1728   0DC3           07054         rlf     0x43, F                                     ; reg: 0x043
1729   0DC4           07055         rlf     0x44, F                                     ; reg: 0x044
172A   0BB8           07056         decfsz  0x38, F                                     ; reg: 0x038
172B   2F04           07057         goto    label_279
172C   0008           07058         return
                      07059 
172D                  07060 function_080:                                               ; address: 0x172d
                      07061 
172D   118A           07062         bcf     PCLATH, 0x3                                 ; reg: 0x00a
172E   120A           07063         bcf     PCLATH, 0x4                                 ; reg: 0x00a
172F   2599           07064         call    function_045
1730   118A           07065         bcf     PCLATH, 0x3                                 ; reg: 0x00a
1731   160A           07066         bsf     PCLATH, 0x4                                 ; reg: 0x00a
1732   1683           07067         bsf     STATUS, RP0                                 ; reg: 0x003, bit: 5
1733   1303           07068         bcf     STATUS, RP1                                 ; reg: 0x003, bit: 6
1734   082D           07069         movf    0x2d, W                                     ; reg: 0x0ad
1735   00FB           07070         movwf   0x7b                                        ; reg: 0x0fb
1736   082C           07071         movf    0x2c, W                                     ; reg: 0x0ac
1737   00FA           07072         movwf   0x7a                                        ; reg: 0x0fa
1738   1283           07073         bcf     STATUS, RP0                                 ; reg: 0x003, bit: 5
1739   1303           07074         bcf     STATUS, RP1                                 ; reg: 0x003, bit: 6
173A   087B           07075         movf    (Common_RAM + 11), W                        ; reg: 0x07b
173B   00C2           07076         movwf   0x42                                        ; reg: 0x042
173C   087A           07077         movf    (Common_RAM + 10), W                        ; reg: 0x07a
173D   00C1           07078         movwf   0x41                                        ; reg: 0x041
173E   1683           07079         bsf     STATUS, RP0                                 ; reg: 0x003, bit: 5
173F   1303           07080         bcf     STATUS, RP1                                 ; reg: 0x003, bit: 6
1740   082F           07081         movf    0x2f, W                                     ; reg: 0x0af
1741   00FB           07082         movwf   0x7b                                        ; reg: 0x0fb
1742   082E           07083         movf    0x2e, W                                     ; reg: 0x0ae
1743   00FA           07084         movwf   0x7a                                        ; reg: 0x0fa
1744   1283           07085         bcf     STATUS, RP0                                 ; reg: 0x003, bit: 5
1745   1303           07086         bcf     STATUS, RP1                                 ; reg: 0x003, bit: 6
1746   087B           07087         movf    (Common_RAM + 11), W                        ; reg: 0x07b
1747   00C4           07088         movwf   0x44                                        ; reg: 0x044
1748   087A           07089         movf    (Common_RAM + 10), W                        ; reg: 0x07a
1749   00C3           07090         movwf   0x43                                        ; reg: 0x043
gpasm-1.5.0 #1285 (Jan 23 2020) unidds_v1_10.   27.01.2020  22:56:48        PAGE 135


LOC    OBJECT CODE    LINE  SOURCE TEXT
  VALUE

174A   0844           07091         movf    0x44, W                                     ; reg: 0x044
174B   0242           07092         subwf   0x42, W                                     ; reg: 0x042
174C   1D03           07093         btfss   STATUS, Z                                   ; reg: 0x003, bit: 2
174D   2F50           07094         goto    label_284
174E   0843           07095         movf    0x43, W                                     ; reg: 0x043
174F   0241           07096         subwf   0x41, W                                     ; reg: 0x041
                      07097 
1750                  07098 label_284:                                                  ; address: 0x1750
                      07099 
1750   0000           07100         nop
1751   1C03           07101         btfss   STATUS, C                                   ; reg: 0x003, bit: 0
1752   2F7E           07102         goto    label_287
1753   0843           07103         movf    0x43, W                                     ; reg: 0x043
1754   02C1           07104         subwf   0x41, F                                     ; reg: 0x041
1755   0844           07105         movf    0x44, W                                     ; reg: 0x044
1756   1C03           07106         btfss   STATUS, C                                   ; reg: 0x003, bit: 0
1757   0F44           07107         incfsz  0x44, W                                     ; reg: 0x044
1758   02C2           07108         subwf   0x42, F                                     ; reg: 0x042
1759   3000           07109         movlw   0x00
175A   00C4           07110         movwf   0x44                                        ; reg: 0x044
175B   300A           07111         movlw   0x0a
175C   00C3           07112         movwf   0x43                                        ; reg: 0x043
175D   2700           07113         call    function_079
175E   0840           07114         movf    0x40, W                                     ; reg: 0x040
175F   00C2           07115         movwf   0x42                                        ; reg: 0x042
1760   083F           07116         movf    0x3f, W                                     ; reg: 0x03f
1761   00C1           07117         movwf   0x41                                        ; reg: 0x041
1762   1683           07118         bsf     STATUS, RP0                                 ; reg: 0x003, bit: 5
1763   1303           07119         bcf     STATUS, RP1                                 ; reg: 0x003, bit: 6
1764   0831           07120         movf    0x31, W                                     ; reg: 0x0b1
1765   00FB           07121         movwf   0x7b                                        ; reg: 0x0fb
1766   0830           07122         movf    0x30, W                                     ; reg: 0x0b0
1767   00FA           07123         movwf   0x7a                                        ; reg: 0x0fa
1768   1283           07124         bcf     STATUS, RP0                                 ; reg: 0x003, bit: 5
1769   1303           07125         bcf     STATUS, RP1                                 ; reg: 0x003, bit: 6
176A   087B           07126         movf    (Common_RAM + 11), W                        ; reg: 0x07b
176B   00C4           07127         movwf   0x44                                        ; reg: 0x044
176C   087A           07128         movf    (Common_RAM + 10), W                        ; reg: 0x07a
176D   00C3           07129         movwf   0x43                                        ; reg: 0x043
176E   08C4           07130         movf    0x44, F                                     ; reg: 0x044
176F   1D03           07131         btfss   STATUS, Z                                   ; reg: 0x003, bit: 2
1770   2F74           07132         goto    label_285
1771   08C3           07133         movf    0x43, F                                     ; reg: 0x043
1772   1903           07134         btfsc   STATUS, Z                                   ; reg: 0x003, bit: 2
1773   2F7C           07135         goto    label_286
                      07136 
1774                  07137 label_285:                                                  ; address: 0x1774
                      07138 
1774   26D5           07139         call    function_078
1775   083F           07140         movf    0x3f, W                                     ; reg: 0x03f
1776   39F0           07141         andlw   0xf0
1777   1D03           07142         btfss   STATUS, Z                                   ; reg: 0x003, bit: 2
1778   2F7C           07143         goto    label_286
gpasm-1.5.0 #1285 (Jan 23 2020) unidds_v1_10.   27.01.2020  22:56:48        PAGE 136


LOC    OBJECT CODE    LINE  SOURCE TEXT
  VALUE

1779   083F           07144         movf    0x3f, W                                     ; reg: 0x03f
177A   08C0           07145         movf    0x40, F                                     ; reg: 0x040
177B   1D03           07146         btfss   STATUS, Z                                   ; reg: 0x003, bit: 2
                      07147 
177C                  07148 label_286:                                                  ; address: 0x177c
                      07149 
177C   300F           07150         movlw   0x0f
177D   0008           07151         return
                      07152 
177E                  07153 label_287:                                                  ; address: 0x177e
                      07154 
177E   0103           07155         clrw
177F   0008           07156         return
1780   3EFF           07157         addlw   0xff
1781   3EFF           07158         addlw   0xff
1782   3EFF           07159         addlw   0xff
1783   3EFF           07160         addlw   0xff
1784   3EFF           07161         addlw   0xff
1785   3EFF           07162         addlw   0xff
1786   3EFF           07163         addlw   0xff
1787   3EFF           07164         addlw   0xff
1788   3EFF           07165         addlw   0xff
1789   3EFF           07166         addlw   0xff
178A   3EFF           07167         addlw   0xff
178B   3EFF           07168         addlw   0xff
178C   3EFF           07169         addlw   0xff
178D   3EFF           07170         addlw   0xff
178E   3EFF           07171         addlw   0xff
178F   3EFF           07172         addlw   0xff
1790   3EFF           07173         addlw   0xff
1791   3EFF           07174         addlw   0xff
1792   3EFF           07175         addlw   0xff
1793   3EFF           07176         addlw   0xff
1794   3EFF           07177         addlw   0xff
1795   3EFF           07178         addlw   0xff
1796   3EFF           07179         addlw   0xff
1797   3EFF           07180         addlw   0xff
1798   3EFF           07181         addlw   0xff
1799   3EFF           07182         addlw   0xff
179A   3EFF           07183         addlw   0xff
179B   3EFF           07184         addlw   0xff
179C   3EFF           07185         addlw   0xff
179D   3EFF           07186         addlw   0xff
179E   3EFF           07187         addlw   0xff
179F   3EFF           07188         addlw   0xff
17A0   3EFF           07189         addlw   0xff
17A1   3EFF           07190         addlw   0xff
17A2   3EFF           07191         addlw   0xff
17A3   3EFF           07192         addlw   0xff
17A4   3EFF           07193         addlw   0xff
17A5   3EFF           07194         addlw   0xff
17A6   3EFF           07195         addlw   0xff
17A7   3EFF           07196         addlw   0xff
gpasm-1.5.0 #1285 (Jan 23 2020) unidds_v1_10.   27.01.2020  22:56:48        PAGE 137


LOC    OBJECT CODE    LINE  SOURCE TEXT
  VALUE

17A8   3EFF           07197         addlw   0xff
17A9   3EFF           07198         addlw   0xff
17AA   3EFF           07199         addlw   0xff
17AB   3EFF           07200         addlw   0xff
17AC   3EFF           07201         addlw   0xff
17AD   3EFF           07202         addlw   0xff
17AE   3EFF           07203         addlw   0xff
17AF   3EFF           07204         addlw   0xff
17B0   3EFF           07205         addlw   0xff
17B1   3EFF           07206         addlw   0xff
17B2   3EFF           07207         addlw   0xff
17B3   3EFF           07208         addlw   0xff
17B4   3EFF           07209         addlw   0xff
17B5   3EFF           07210         addlw   0xff
17B6   3EFF           07211         addlw   0xff
17B7   3EFF           07212         addlw   0xff
17B8   3EFF           07213         addlw   0xff
17B9   3EFF           07214         addlw   0xff
17BA   3EFF           07215         addlw   0xff
17BB   3EFF           07216         addlw   0xff
17BC   3EFF           07217         addlw   0xff
17BD   3EFF           07218         addlw   0xff
17BE   3EFF           07219         addlw   0xff
17BF   3EFF           07220         addlw   0xff
17C0   3EFF           07221         addlw   0xff
17C1   3EFF           07222         addlw   0xff
17C2   3EFF           07223         addlw   0xff
17C3   3EFF           07224         addlw   0xff
17C4   3EFF           07225         addlw   0xff
17C5   3EFF           07226         addlw   0xff
17C6   3EFF           07227         addlw   0xff
17C7   3EFF           07228         addlw   0xff
17C8   3EFF           07229         addlw   0xff
17C9   3EFF           07230         addlw   0xff
17CA   3EFF           07231         addlw   0xff
17CB   3EFF           07232         addlw   0xff
17CC   3EFF           07233         addlw   0xff
17CD   3EFF           07234         addlw   0xff
17CE   3EFF           07235         addlw   0xff
17CF   3EFF           07236         addlw   0xff
17D0   3EFF           07237         addlw   0xff
17D1   3EFF           07238         addlw   0xff
17D2   3EFF           07239         addlw   0xff
17D3   3EFF           07240         addlw   0xff
17D4   3EFF           07241         addlw   0xff
17D5   3EFF           07242         addlw   0xff
17D6   3EFF           07243         addlw   0xff
17D7   3EFF           07244         addlw   0xff
17D8   3EFF           07245         addlw   0xff
17D9   3EFF           07246         addlw   0xff
17DA   3EFF           07247         addlw   0xff
17DB   3EFF           07248         addlw   0xff
17DC   3EFF           07249         addlw   0xff
gpasm-1.5.0 #1285 (Jan 23 2020) unidds_v1_10.   27.01.2020  22:56:48        PAGE 138


LOC    OBJECT CODE    LINE  SOURCE TEXT
  VALUE

17DD   3EFF           07250         addlw   0xff
17DE   3EFF           07251         addlw   0xff
17DF   3EFF           07252         addlw   0xff
17E0   3EFF           07253         addlw   0xff
17E1   3EFF           07254         addlw   0xff
17E2   3EFF           07255         addlw   0xff
17E3   3EFF           07256         addlw   0xff
17E4   3EFF           07257         addlw   0xff
17E5   3EFF           07258         addlw   0xff
17E6   3EFF           07259         addlw   0xff
17E7   3EFF           07260         addlw   0xff
17E8   3EFF           07261         addlw   0xff
17E9   3EFF           07262         addlw   0xff
17EA   3EFF           07263         addlw   0xff
17EB   3EFF           07264         addlw   0xff
17EC   3EFF           07265         addlw   0xff
17ED   3EFF           07266         addlw   0xff
17EE   3EFF           07267         addlw   0xff
17EF   3EFF           07268         addlw   0xff
17F0   3EFF           07269         addlw   0xff
17F1   3EFF           07270         addlw   0xff
17F2   3EFF           07271         addlw   0xff
17F3   3EFF           07272         addlw   0xff
17F4   3EFF           07273         addlw   0xff
17F5   3EFF           07274         addlw   0xff
17F6   3EFF           07275         addlw   0xff
17F7   3EFF           07276         addlw   0xff
17F8   3EFF           07277         addlw   0xff
17F9   3EFF           07278         addlw   0xff
17FA   3EFF           07279         addlw   0xff
17FB   3EFF           07280         addlw   0xff
17FC   3EFF           07281         addlw   0xff
17FD   3EFF           07282         addlw   0xff
17FE   3EFF           07283         addlw   0xff
17FF   3EFF           07284         addlw   0xff
1800   0782           07285         addwf   PCL, F                                      ; reg: 0x002
1801   3418           07286         retlw   0x18
1802   3418           07287         retlw   0x18
1803   3418           07288         retlw   0x18
1804   3418           07289         retlw   0x18
1805   3418           07290         retlw   0x18
1806   3418           07291         retlw   0x18
1807   3418           07292         retlw   0x18
1808   3418           07293         retlw   0x18
1809   0782           07294         addwf   PCL, F                                      ; reg: 0x002
180A   3426           07295         retlw   0x26
180B   3436           07296         retlw   0x36
180C   3446           07297         retlw   0x46
180D   3456           07298         retlw   0x56
180E   3466           07299         retlw   0x66
180F   3476           07300         retlw   0x76
1810   3486           07301         retlw   0x86
1811   3496           07302         retlw   0x96
gpasm-1.5.0 #1285 (Jan 23 2020) unidds_v1_10.   27.01.2020  22:56:48        PAGE 139


LOC    OBJECT CODE    LINE  SOURCE TEXT
  VALUE

1812   0782           07303         addwf   PCL, F                                      ; reg: 0x002
1813   34AE           07304         retlw   0xae
1814   34B2           07305         retlw   0xb2
1815   34B6           07306         retlw   0xb6
1816   34B6           07307         retlw   0xb6
1817   0782           07308         addwf   PCL, F                                      ; reg: 0x002
1818   3418           07309         retlw   0x18
1819   3418           07310         retlw   0x18
181A   3418           07311         retlw   0x18
181B   3418           07312         retlw   0x18
181C   0782           07313         addwf   PCL, F                                      ; reg: 0x002
181D   3418           07314         retlw   0x18
181E   3418           07315         retlw   0x18
181F   0782           07316         addwf   PCL, F                                      ; reg: 0x002
1820   34A6           07317         retlw   0xa6
1821   34AA           07318         retlw   0xaa
1822   0003           07319         dw      0x0003
1823   0000           07320         nop
1824   0050           07321         dw      0x0050                                      ; 'P'
1825   0000           07322         nop
1826   0000           07323         nop
1827   0000           07324         nop
1828   0081           07325         movwf   TMR0                                        ; reg: 0x001
1829   0001           07326         dw      0x0001
182A   0000           07327         nop
182B   0000           07328         nop
182C   0081           07329         movwf   TMR0                                        ; reg: 0x001
182D   0001           07330         dw      0x0001
182E   0000           07331         nop
182F   0000           07332         nop
1830   0081           07333         movwf   TMR0                                        ; reg: 0x001
1831   0001           07334         dw      0x0001
1832   0000           07335         nop
1833   0050           07336         dw      0x0050                                      ; 'P'
1834   0084           07337         movwf   FSR                                         ; reg: 0x004
1835   0001           07338         dw      0x0001
1836   0000           07339         nop
1837   0000           07340         nop
1838   0056           07341         dw      0x0056                                      ; 'V'
1839   0003           07342         dw      0x0003
183A   0000           07343         nop
183B   0000           07344         nop
183C   0056           07345         dw      0x0056                                      ; 'V'
183D   0003           07346         dw      0x0003
183E   0000           07347         nop
183F   0000           07348         nop
1840   0050           07349         dw      0x0050                                      ; 'P'
1841   0003           07350         dw      0x0003
1842   0000           07351         nop
1843   0000           07352         nop
1844   0057           07353         dw      0x0057                                      ; 'W'
1845   0003           07354         dw      0x0003
1846   0000           07355         nop
gpasm-1.5.0 #1285 (Jan 23 2020) unidds_v1_10.   27.01.2020  22:56:48        PAGE 140


LOC    OBJECT CODE    LINE  SOURCE TEXT
  VALUE

1847   0000           07356         nop
1848   0003           07357         dw      0x0003
1849   0007           07358         dw      0x0007
184A   0000           07359         nop
184B   0000           07360         nop
184C   0003           07361         dw      0x0003
184D   0007           07362         dw      0x0007
184E   0000           07363         nop
184F   0000           07364         nop
1850   0000           07365         nop
1851   0007           07366         dw      0x0007
1852   0000           07367         nop
1853   0050           07368         dw      0x0050                                      ; 'P'
1854   0003           07369         dw      0x0003
1855   0007           07370         dw      0x0007
1856   0000           07371         nop
1857   0000           07372         nop
1858   0011           07373         dw      0x0011
1859   0010           07374         dw      0x0010
185A   0000           07375         nop
185B   0000           07376         nop
185C   0011           07377         dw      0x0011
185D   0010           07378         dw      0x0010
185E   0000           07379         nop
185F   0000           07380         nop
1860   0010           07381         dw      0x0010
1861   0010           07382         dw      0x0010
1862   0000           07383         nop
1863   0050           07384         dw      0x0050                                      ; 'P'
1864   0012           07385         dw      0x0012
1865   0011           07386         dw      0x0011
1866   0000           07387         nop
1867   0000           07388         nop
1868   0006           07389         dw      0x0006
1869   0014           07390         dw      0x0014
186A   0000           07391         nop
186B   0000           07392         nop
186C   0006           07393         dw      0x0006
186D   0014           07394         dw      0x0014
186E   0000           07395         nop
186F   0000           07396         nop
1870   0000           07397         nop
1871   0014           07398         dw      0x0014
1872   0000           07399         nop
1873   0050           07400         dw      0x0050                                      ; 'P'
1874   0006           07401         dw      0x0006
1875   0014           07402         dw      0x0014
1876   0000           07403         nop
1877   0000           07404         nop
1878   0009           07405         retfie
1879   0018           07406         dw      0x0018
187A   0000           07407         nop
187B   0000           07408         nop
gpasm-1.5.0 #1285 (Jan 23 2020) unidds_v1_10.   27.01.2020  22:56:48        PAGE 141


LOC    OBJECT CODE    LINE  SOURCE TEXT
  VALUE

187C   0009           07409         retfie
187D   0018           07410         dw      0x0018
187E   0000           07411         nop
187F   0080           07412         movwf   INDF                                        ; reg: 0x000
1880   0006           07413         dw      0x0006
1881   0018           07414         dw      0x0018
1882   0000           07415         nop
1883   0000           07416         nop
1884   0013           07417         dw      0x0013
1885   0018           07418         dw      0x0018
1886   0000           07419         nop
1887   0000           07420         nop
1888   0006           07421         dw      0x0006
1889   0021           07422         dw      0x0021                                      ; '!'
188A   0000           07423         nop
188B   0000           07424         nop
188C   0006           07425         dw      0x0006
188D   0021           07426         dw      0x0021                                      ; '!'
188E   0000           07427         nop
188F   0000           07428         nop
1890   0000           07429         nop
1891   0021           07430         dw      0x0021                                      ; '!'
1892   0000           07431         nop
1893   0050           07432         dw      0x0050                                      ; 'P'
1894   0006           07433         dw      0x0006
1895   0021           07434         dw      0x0021                                      ; '!'
1896   0000           07435         nop
1897   0000           07436         nop
1898   0006           07437         dw      0x0006
1899   0028           07438         dw      0x0028                                      ; '('
189A   0000           07439         nop
189B   0000           07440         nop
189C   0006           07441         dw      0x0006
189D   0028           07442         dw      0x0028                                      ; '('
189E   0000           07443         nop
189F   0000           07444         nop
18A0   0000           07445         nop
18A1   0028           07446         dw      0x0028                                      ; '('
18A2   0000           07447         nop
18A3   0050           07448         dw      0x0050                                      ; 'P'
18A4   0006           07449         dw      0x0006
18A5   0028           07450         dw      0x0028                                      ; '('
18A6   0018           07451         dw      0x0018
18A7   0005           07452         dw      0x0005
18A8   003D           07453         dw      0x003d                                      ; '='
18A9   0000           07454         nop
18AA   0044           07455         dw      0x0044                                      ; 'D'
18AB   00FD           07456         movwf   (Common_RAM + 13)                           ; reg: 0x07d
18AC   004A           07457         dw      0x004a                                      ; 'J'
18AD   0000           07458         nop
18AE   00B8           07459         movwf   0x38                                        ; reg: 0x038
18AF   0063           07460         sleep
18B0   005E           07461         dw      0x005e                                      ; '^'
gpasm-1.5.0 #1285 (Jan 23 2020) unidds_v1_10.   27.01.2020  22:56:48        PAGE 142


LOC    OBJECT CODE    LINE  SOURCE TEXT
  VALUE

18B1   0005           07462         dw      0x0005
18B2   00C0           07463         movwf   0x40                                        ; reg: 0x040
18B3   004F           07464         dw      0x004f                                      ; 'O'
18B4   002F           07465         dw      0x002f                                      ; '/'
18B5   000B           07466         dw      0x000b
18B6   0071           07467         dw      0x0071                                      ; 'q'
18B7   00C7           07468         movwf   0x47                                        ; reg: 0x047
18B8   00BC           07469         movwf   0x3c                                        ; reg: 0x03c
18B9   000A           07470         dw      0x000a
                      07471 
18BA                  07472 function_081:                                               ; address: 0x18ba
                      07473 
18BA   0841           07474         movf    0x41, W                                     ; reg: 0x041
18BB   00C8           07475         movwf   0x48                                        ; reg: 0x048
18BC   0840           07476         movf    0x40, W                                     ; reg: 0x040
18BD   00C7           07477         movwf   0x47                                        ; reg: 0x047
18BE   0841           07478         movf    0x41, W                                     ; reg: 0x041
18BF   00C6           07479         movwf   0x46                                        ; reg: 0x046
18C0   0840           07480         movf    0x40, W                                     ; reg: 0x040
18C1   00C5           07481         movwf   0x45                                        ; reg: 0x045
18C2   0845           07482         movf    0x45, W                                     ; reg: 0x045
18C3   3907           07483         andlw   0x07
18C4   00C5           07484         movwf   0x45                                        ; reg: 0x045
18C5   2009           07485         call    function_059
18C6   00C0           07486         movwf   0x40                                        ; reg: 0x040
18C7   0845           07487         movf    0x45, W                                     ; reg: 0x045
18C8   2000           07488         call    0x0000
18C9   00C1           07489         movwf   0x41                                        ; reg: 0x041
18CA   3010           07490         movlw   0x10
18CB   00BF           07491         movwf   0x3f                                        ; reg: 0x03f
18CC   3009           07492         movlw   0x09
18CD   00C2           07493         movwf   0x42                                        ; reg: 0x042
18CE   210D           07494         call    0x010d
18CF   0847           07495         movf    0x47, W                                     ; reg: 0x047
18D0   00C5           07496         movwf   0x45                                        ; reg: 0x045
18D1   0CC5           07497         rrf     0x45, F                                     ; reg: 0x045
18D2   0CC5           07498         rrf     0x45, F                                     ; reg: 0x045
18D3   0CC5           07499         rrf     0x45, F                                     ; reg: 0x045
18D4   0CC5           07500         rrf     0x45, F                                     ; reg: 0x045
18D5   0C45           07501         rrf     0x45, W                                     ; reg: 0x045
18D6   3903           07502         andlw   0x03
18D7   00C5           07503         movwf   0x45                                        ; reg: 0x045
18D8   2012           07504         call    0x0012
18D9   00C0           07505         movwf   0x40                                        ; reg: 0x040
18DA   0845           07506         movf    0x45, W                                     ; reg: 0x045
18DB   2017           07507         call    0x0017
18DC   00C1           07508         movwf   0x41                                        ; reg: 0x041
18DD   3004           07509         movlw   0x04
18DE   00BF           07510         movwf   0x3f                                        ; reg: 0x03f
18DF   3001           07511         movlw   0x01
18E0   00C2           07512         movwf   0x42                                        ; reg: 0x042
18E1   210D           07513         call    0x010d
18E2   0847           07514         movf    0x47, W                                     ; reg: 0x047
gpasm-1.5.0 #1285 (Jan 23 2020) unidds_v1_10.   27.01.2020  22:56:48        PAGE 143


LOC    OBJECT CODE    LINE  SOURCE TEXT
  VALUE

18E3   00C5           07515         movwf   0x45                                        ; reg: 0x045
18E4   0DC5           07516         rlf     0x45, F                                     ; reg: 0x045
18E5   0D45           07517         rlf     0x45, W                                     ; reg: 0x045
18E6   3901           07518         andlw   0x01
18E7   00C5           07519         movwf   0x45                                        ; reg: 0x045
18E8   201F           07520         call    0x001f
18E9   00C0           07521         movwf   0x40                                        ; reg: 0x040
18EA   0845           07522         movf    0x45, W                                     ; reg: 0x045
18EB   201C           07523         call    0x001c
18EC   00C1           07524         movwf   0x41                                        ; reg: 0x041
18ED   3004           07525         movlw   0x04
18EE   00BF           07526         movwf   0x3f                                        ; reg: 0x03f
18EF   3005           07527         movlw   0x05
18F0   00C2           07528         movwf   0x42                                        ; reg: 0x042
18F1   210D           07529         call    0x010d
18F2   3003           07530         movlw   0x03
18F3   00BF           07531         movwf   0x3f                                        ; reg: 0x03f
18F4   19C7           07532         btfsc   0x47, 0x3                                   ; reg: 0x047
18F5   163F           07533         bsf     0x3f, 0x4                                   ; reg: 0x03f
18F6   1A47           07534         btfsc   0x47, 0x4                                   ; reg: 0x047
18F7   16BF           07535         bsf     0x3f, 0x5                                   ; reg: 0x03f
18F8   00F9           07536         movwf   (Common_RAM + 9)                            ; reg: 0x079
18F9   01F8           07537         clrf    (Common_RAM + 8)                            ; reg: 0x078
18FA   118A           07538         bcf     PCLATH, 0x3                                 ; reg: 0x00a
18FB   120A           07539         bcf     PCLATH, 0x4                                 ; reg: 0x00a
18FC   2623           07540         call    function_052
18FD   3019           07541         movlw   0x19
18FE   00F8           07542         movwf   (Common_RAM + 8)                            ; reg: 0x078
18FF   3003           07543         movlw   0x03
1900   00F9           07544         movwf   (Common_RAM + 9)                            ; reg: 0x079
1901   2623           07545         call    0x0623
1902   0AF8           07546         incf    (Common_RAM + 8), F                         ; reg: 0x078
1903   01F9           07547         clrf    (Common_RAM + 9)                            ; reg: 0x079
1904   2623           07548         call    0x0623
1905   0AF8           07549         incf    (Common_RAM + 8), F                         ; reg: 0x078
1906   3050           07550         movlw   0x50
1907   00F9           07551         movwf   (Common_RAM + 9)                            ; reg: 0x079
1908   2623           07552         call    0x0623
1909   0AF8           07553         incf    (Common_RAM + 8), F                         ; reg: 0x078
190A   01F9           07554         clrf    (Common_RAM + 9)                            ; reg: 0x079
190B   2623           07555         call    0x0623
190C   2800           07556         goto    0x0000
190D   0842           07557         movf    0x42, W                                     ; reg: 0x042
190E   00F8           07558         movwf   (Common_RAM + 8)                            ; reg: 0x078
190F   0840           07559         movf    0x40, W                                     ; reg: 0x040
1910   1283           07560         bcf     STATUS, RP0                                 ; reg: 0x003, bit: 5
1911   1703           07561         bsf     STATUS, RP1                                 ; reg: 0x003, bit: 6
1912   008D           07562         movwf   EEADR                                       ; reg: 0x10d
1913   1283           07563         bcf     STATUS, RP0                                 ; reg: 0x003, bit: 5
1914   1303           07564         bcf     STATUS, RP1                                 ; reg: 0x003, bit: 6
1915   0841           07565         movf    0x41, W                                     ; reg: 0x041
1916   1283           07566         bcf     STATUS, RP0                                 ; reg: 0x003, bit: 5
1917   1703           07567         bsf     STATUS, RP1                                 ; reg: 0x003, bit: 6
gpasm-1.5.0 #1285 (Jan 23 2020) unidds_v1_10.   27.01.2020  22:56:48        PAGE 144


LOC    OBJECT CODE    LINE  SOURCE TEXT
  VALUE

1918   008F           07568         movwf   EEADRH                                      ; reg: 0x10f
                      07569 
1919                  07570 label_288:                                                  ; address: 0x1919
                      07571 
1919   1683           07572         bsf     STATUS, RP0                                 ; reg: 0x003, bit: 5
191A   1703           07573         bsf     STATUS, RP1                                 ; reg: 0x003, bit: 6
191B   178C           07574         bsf     EECON1, EEPGD                               ; reg: 0x18c, bit: 7
191C   138B           07575         bcf     INTCON, GIE                                 ; reg: 0x00b, bit: 7
191D   1B8B           07576         btfsc   INTCON, GIE                                 ; reg: 0x00b, bit: 7
191E   2919           07577         goto    0x0119
191F   140C           07578         bsf     EECON1, RD                                  ; reg: 0x18c, bit: 0
1920   0000           07579         nop
1921   0000           07580         nop
1922   178B           07581         bsf     INTCON, GIE                                 ; reg: 0x00b, bit: 7
1923   1283           07582         bcf     STATUS, RP0                                 ; reg: 0x003, bit: 5
1924   1703           07583         bsf     STATUS, RP1                                 ; reg: 0x003, bit: 6
1925   080C           07584         movf    EEDATA, W                                   ; reg: 0x10c
1926   1283           07585         bcf     STATUS, RP0                                 ; reg: 0x003, bit: 5
1927   1303           07586         bcf     STATUS, RP1                                 ; reg: 0x003, bit: 6
1928   00F9           07587         movwf   (Common_RAM + 9)                            ; reg: 0x079
1929   1283           07588         bcf     STATUS, RP0                                 ; reg: 0x003, bit: 5
192A   1303           07589         bcf     STATUS, RP1                                 ; reg: 0x003, bit: 6
192B   118A           07590         bcf     PCLATH, 0x3                                 ; reg: 0x00a
192C   120A           07591         bcf     PCLATH, 0x4                                 ; reg: 0x00a
192D   2623           07592         call    function_052
192E   158A           07593         bsf     PCLATH, 0x3                                 ; reg: 0x00a
192F   160A           07594         bsf     PCLATH, 0x4                                 ; reg: 0x00a
1930   1283           07595         bcf     STATUS, RP0                                 ; reg: 0x003, bit: 5
1931   1303           07596         bcf     STATUS, RP1                                 ; reg: 0x003, bit: 6
1932   0AF8           07597         incf    (Common_RAM + 8), F                         ; reg: 0x078
1933   1283           07598         bcf     STATUS, RP0                                 ; reg: 0x003, bit: 5
1934   1303           07599         bcf     STATUS, RP1                                 ; reg: 0x003, bit: 6
1935   0FC0           07600         incfsz  0x40, F                                     ; reg: 0x040
1936   293C           07601         goto    label_289
1937   1283           07602         bcf     STATUS, RP0                                 ; reg: 0x003, bit: 5
1938   1703           07603         bsf     STATUS, RP1                                 ; reg: 0x003, bit: 6
1939   0A8F           07604         incf    EEADRH, F                                   ; reg: 0x10f
193A   1283           07605         bcf     STATUS, RP0                                 ; reg: 0x003, bit: 5
193B   1303           07606         bcf     STATUS, RP1                                 ; reg: 0x003, bit: 6
                      07607 
193C                  07608 label_289:                                                  ; address: 0x193c
                      07609 
193C   0840           07610         movf    0x40, W                                     ; reg: 0x040
193D   1283           07611         bcf     STATUS, RP0                                 ; reg: 0x003, bit: 5
193E   1703           07612         bsf     STATUS, RP1                                 ; reg: 0x003, bit: 6
193F   008D           07613         movwf   EEADR                                       ; reg: 0x10d
1940   1283           07614         bcf     STATUS, RP0                                 ; reg: 0x003, bit: 5
1941   1303           07615         bcf     STATUS, RP1                                 ; reg: 0x003, bit: 6
1942   0BBF           07616         decfsz  0x3f, F                                     ; reg: 0x03f
1943   2919           07617         goto    label_288
1944   0008           07618         return
                      07619 
1945                  07620 label_290:                                                  ; address: 0x1945
gpasm-1.5.0 #1285 (Jan 23 2020) unidds_v1_10.   27.01.2020  22:56:48        PAGE 145


LOC    OBJECT CODE    LINE  SOURCE TEXT
  VALUE

                      07621 
1945   118A           07622         bcf     PCLATH, 0x3                                 ; reg: 0x00a
1946   120A           07623         bcf     PCLATH, 0x4                                 ; reg: 0x00a
1947   3008           07624         movlw   0x08
1948   00F4           07625         movwf   (Common_RAM + 4)                            ; reg: 0x074
1949   30BE           07626         movlw   0xbe
194A   218E           07627         call    function_019
194B   158A           07628         bsf     PCLATH, 0x3                                 ; reg: 0x00a
194C   160A           07629         bsf     PCLATH, 0x4                                 ; reg: 0x00a
                      07630 
194D                  07631 label_291:                                                  ; address: 0x194d
                      07632 
194D   118A           07633         bcf     PCLATH, 0x3                                 ; reg: 0x00a
194E   120A           07634         bcf     PCLATH, 0x4                                 ; reg: 0x00a
194F   236D           07635         call    function_025
1950   158A           07636         bsf     PCLATH, 0x3                                 ; reg: 0x00a
1951   160A           07637         bsf     PCLATH, 0x4                                 ; reg: 0x00a
1952   1803           07638         btfsc   STATUS, C                                   ; reg: 0x003, bit: 0
1953   294D           07639         goto    label_291
                      07640 
1954                  07641 label_292:                                                  ; address: 0x1954
                      07642 
1954   118A           07643         bcf     PCLATH, 0x3                                 ; reg: 0x00a
1955   120A           07644         bcf     PCLATH, 0x4                                 ; reg: 0x00a
1956   2599           07645         call    function_045
1957   158A           07646         bsf     PCLATH, 0x3                                 ; reg: 0x00a
1958   160A           07647         bsf     PCLATH, 0x4                                 ; reg: 0x00a
1959   1683           07648         bsf     STATUS, RP0                                 ; reg: 0x003, bit: 5
195A   1303           07649         bcf     STATUS, RP1                                 ; reg: 0x003, bit: 6
195B   082D           07650         movf    0x2d, W                                     ; reg: 0x0ad
195C   00FB           07651         movwf   0x7b                                        ; reg: 0x0fb
195D   082C           07652         movf    0x2c, W                                     ; reg: 0x0ac
195E   00FA           07653         movwf   0x7a                                        ; reg: 0x0fa
195F   1283           07654         bcf     STATUS, RP0                                 ; reg: 0x003, bit: 5
1960   1303           07655         bcf     STATUS, RP1                                 ; reg: 0x003, bit: 6
1961   087B           07656         movf    (Common_RAM + 11), W                        ; reg: 0x07b
1962   00C0           07657         movwf   0x40                                        ; reg: 0x040
                      07658 
1963                  07659 label_293:                                                  ; address: 0x1963
                      07660 
1963   087A           07661         movf    (Common_RAM + 10), W                        ; reg: 0x07a
1964   00BF           07662         movwf   0x3f                                        ; reg: 0x03f
1965   3040           07663         movlw   0x40
1966   118A           07664         bcf     PCLATH, 0x3                                 ; reg: 0x00a
1967   120A           07665         bcf     PCLATH, 0x4                                 ; reg: 0x00a
1968   218C           07666         call    function_018
1969   158A           07667         bsf     PCLATH, 0x3                                 ; reg: 0x00a
196A   160A           07668         bsf     PCLATH, 0x4                                 ; reg: 0x00a
196B   0840           07669         movf    0x40, W                                     ; reg: 0x040
196C   118A           07670         bcf     PCLATH, 0x3                                 ; reg: 0x00a
196D   120A           07671         bcf     PCLATH, 0x4                                 ; reg: 0x00a
196E   21C3           07672         call    function_021
196F   158A           07673         bsf     PCLATH, 0x3                                 ; reg: 0x00a
gpasm-1.5.0 #1285 (Jan 23 2020) unidds_v1_10.   27.01.2020  22:56:48        PAGE 146


LOC    OBJECT CODE    LINE  SOURCE TEXT
  VALUE

1970   160A           07674         bsf     PCLATH, 0x4                                 ; reg: 0x00a
1971   083F           07675         movf    0x3f, W                                     ; reg: 0x03f
1972   118A           07676         bcf     PCLATH, 0x3                                 ; reg: 0x00a
1973   120A           07677         bcf     PCLATH, 0x4                                 ; reg: 0x00a
1974   21C3           07678         call    function_021
1975   158A           07679         bsf     PCLATH, 0x3                                 ; reg: 0x00a
1976   160A           07680         bsf     PCLATH, 0x4                                 ; reg: 0x00a
1977   118A           07681         bcf     PCLATH, 0x3                                 ; reg: 0x00a
1978   120A           07682         bcf     PCLATH, 0x4                                 ; reg: 0x00a
1979   236D           07683         call    function_025
197A   158A           07684         bsf     PCLATH, 0x3                                 ; reg: 0x00a
197B   160A           07685         bsf     PCLATH, 0x4                                 ; reg: 0x00a
197C   1C03           07686         btfss   STATUS, C                                   ; reg: 0x003, bit: 0
197D   2954           07687         goto    label_292
197E   1683           07688         bsf     STATUS, RP0                                 ; reg: 0x003, bit: 5
197F   1303           07689         bcf     STATUS, RP1                                 ; reg: 0x003, bit: 6
1980   082D           07690         movf    0x2d, W                                     ; reg: 0x0ad
1981   00FB           07691         movwf   0x7b                                        ; reg: 0x0fb
1982   082C           07692         movf    0x2c, W                                     ; reg: 0x0ac
1983   00FA           07693         movwf   0x7a                                        ; reg: 0x0fa
1984   082D           07694         movf    0x2d, W                                     ; reg: 0x0ad
1985   00AF           07695         movwf   0x2f                                        ; reg: 0x0af
1986   082C           07696         movf    0x2c, W                                     ; reg: 0x0ac
1987   00AE           07697         movwf   0x2e                                        ; reg: 0x0ae
1988   1283           07698         bcf     STATUS, RP0                                 ; reg: 0x003, bit: 5
1989   1303           07699         bcf     STATUS, RP1                                 ; reg: 0x003, bit: 6
198A   3002           07700         movlw   0x02
198B   00B8           07701         movwf   0x38                                        ; reg: 0x038
198C   307A           07702         movlw   0x7a
198D   0084           07703         movwf   FSR                                         ; reg: 0x004
198E   3019           07704         movlw   0x19
198F   00F8           07705         movwf   (Common_RAM + 8)                            ; reg: 0x078
1990   118A           07706         bcf     PCLATH, 0x3                                 ; reg: 0x00a
1991   120A           07707         bcf     PCLATH, 0x4                                 ; reg: 0x00a
1992   2675           07708         call    function_056
1993   158A           07709         bsf     PCLATH, 0x3                                 ; reg: 0x00a
1994   160A           07710         bsf     PCLATH, 0x4                                 ; reg: 0x00a
1995   118A           07711         bcf     PCLATH, 0x3                                 ; reg: 0x00a
1996   120A           07712         bcf     PCLATH, 0x4                                 ; reg: 0x00a
1997   3008           07713         movlw   0x08
1998   00F4           07714         movwf   (Common_RAM + 4)                            ; reg: 0x074
1999   30D0           07715         movlw   0xd0
199A   218E           07716         call    function_019
199B   158A           07717         bsf     PCLATH, 0x3                                 ; reg: 0x00a
199C   160A           07718         bsf     PCLATH, 0x4                                 ; reg: 0x00a
                      07719 
199D                  07720 label_294:                                                  ; address: 0x199d
                      07721 
199D   118A           07722         bcf     PCLATH, 0x3                                 ; reg: 0x00a
199E   120A           07723         bcf     PCLATH, 0x4                                 ; reg: 0x00a
199F   236D           07724         call    function_025
19A0   158A           07725         bsf     PCLATH, 0x3                                 ; reg: 0x00a
19A1   160A           07726         bsf     PCLATH, 0x4                                 ; reg: 0x00a
gpasm-1.5.0 #1285 (Jan 23 2020) unidds_v1_10.   27.01.2020  22:56:48        PAGE 147


LOC    OBJECT CODE    LINE  SOURCE TEXT
  VALUE

19A2   1803           07727         btfsc   STATUS, C                                   ; reg: 0x003, bit: 0
19A3   299D           07728         goto    label_294
                      07729 
19A4                  07730 label_295:                                                  ; address: 0x19a4
                      07731 
19A4   118A           07732         bcf     PCLATH, 0x3                                 ; reg: 0x00a
19A5   120A           07733         bcf     PCLATH, 0x4                                 ; reg: 0x00a
19A6   2599           07734         call    function_045
19A7   1683           07735         bsf     STATUS, RP0                                 ; reg: 0x003, bit: 5
19A8   1303           07736         bcf     STATUS, RP1                                 ; reg: 0x003, bit: 6
19A9   082D           07737         movf    0x2d, W                                     ; reg: 0x0ad
19AA   00FB           07738         movwf   0x7b                                        ; reg: 0x0fb
19AB   082C           07739         movf    0x2c, W                                     ; reg: 0x0ac
19AC   00FA           07740         movwf   0x7a                                        ; reg: 0x0fa
19AD   1283           07741         bcf     STATUS, RP0                                 ; reg: 0x003, bit: 5
19AE   1303           07742         bcf     STATUS, RP1                                 ; reg: 0x003, bit: 6
19AF   087B           07743         movf    (Common_RAM + 11), W                        ; reg: 0x07b
19B0   00C0           07744         movwf   0x40                                        ; reg: 0x040
19B1   087A           07745         movf    (Common_RAM + 10), W                        ; reg: 0x07a
19B2   00BF           07746         movwf   0x3f                                        ; reg: 0x03f
19B3   3040           07747         movlw   0x40
19B4   218C           07748         call    0x018c
19B5   0840           07749         movf    0x40, W                                     ; reg: 0x040
19B6   21C3           07750         call    0x01c3
19B7   083F           07751         movf    0x3f, W                                     ; reg: 0x03f
19B8   21C3           07752         call    0x01c3
19B9   236D           07753         call    0x036d
19BA   158A           07754         bsf     PCLATH, 0x3                                 ; reg: 0x00a
19BB   160A           07755         bsf     PCLATH, 0x4                                 ; reg: 0x00a
19BC   1C03           07756         btfss   STATUS, C                                   ; reg: 0x003, bit: 0
19BD   29A4           07757         goto    label_295
19BE   3040           07758         movlw   0x40
19BF   118A           07759         bcf     PCLATH, 0x3                                 ; reg: 0x00a
19C0   120A           07760         bcf     PCLATH, 0x4                                 ; reg: 0x00a
19C1   218C           07761         call    function_018
19C2   1683           07762         bsf     STATUS, RP0                                 ; reg: 0x003, bit: 5
19C3   1303           07763         bcf     STATUS, RP1                                 ; reg: 0x003, bit: 6
19C4   082D           07764         movf    0x2d, W                                     ; reg: 0x0ad
19C5   00FB           07765         movwf   0x7b                                        ; reg: 0x0fb
19C6   082C           07766         movf    0x2c, W                                     ; reg: 0x0ac
19C7   00FA           07767         movwf   0x7a                                        ; reg: 0x0fa
19C8   082F           07768         movf    0x2f, W                                     ; reg: 0x0af
19C9   00FD           07769         movwf   0x7d                                        ; reg: 0x0fd
19CA   082E           07770         movf    0x2e, W                                     ; reg: 0x0ae
19CB   00FC           07771         movwf   0x7c                                        ; reg: 0x0fc
19CC   1283           07772         bcf     STATUS, RP0                                 ; reg: 0x003, bit: 5
19CD   1303           07773         bcf     STATUS, RP1                                 ; reg: 0x003, bit: 6
19CE   087B           07774         movf    (Common_RAM + 11), W                        ; reg: 0x07b
19CF   00C2           07775         movwf   0x42                                        ; reg: 0x042
19D0   087A           07776         movf    (Common_RAM + 10), W                        ; reg: 0x07a
19D1   00C1           07777         movwf   0x41                                        ; reg: 0x041
19D2   087D           07778         movf    (Common_RAM + 13), W                        ; reg: 0x07d
19D3   00C4           07779         movwf   0x44                                        ; reg: 0x044
gpasm-1.5.0 #1285 (Jan 23 2020) unidds_v1_10.   27.01.2020  22:56:48        PAGE 148


LOC    OBJECT CODE    LINE  SOURCE TEXT
  VALUE

19D4   087C           07780         movf    (Common_RAM + 12), W                        ; reg: 0x07c
19D5   00C3           07781         movwf   0x43                                        ; reg: 0x043
19D6   0843           07782         movf    0x43, W                                     ; reg: 0x043
19D7   02C1           07783         subwf   0x41, F                                     ; reg: 0x041
19D8   0844           07784         movf    0x44, W                                     ; reg: 0x044
19D9   1C03           07785         btfss   STATUS, C                                   ; reg: 0x003, bit: 0
19DA   0F44           07786         incfsz  0x44, W                                     ; reg: 0x044
19DB   02C2           07787         subwf   0x42, F                                     ; reg: 0x042
19DC   0842           07788         movf    0x42, W                                     ; reg: 0x042
19DD   21C3           07789         call    0x01c3
19DE   0841           07790         movf    0x41, W                                     ; reg: 0x041
19DF   21C3           07791         call    0x01c3
19E0   3000           07792         movlw   0x00
19E1   00C4           07793         movwf   0x44                                        ; reg: 0x044
19E2   300A           07794         movlw   0x0a
19E3   00C3           07795         movwf   0x43                                        ; reg: 0x043
19E4   118A           07796         bcf     PCLATH, 0x3                                 ; reg: 0x00a
19E5   160A           07797         bsf     PCLATH, 0x4                                 ; reg: 0x00a
19E6   2700           07798         call    function_079
19E7   158A           07799         bsf     PCLATH, 0x3                                 ; reg: 0x00a
19E8   160A           07800         bsf     PCLATH, 0x4                                 ; reg: 0x00a
19E9   0840           07801         movf    0x40, W                                     ; reg: 0x040
19EA   118A           07802         bcf     PCLATH, 0x3                                 ; reg: 0x00a
19EB   120A           07803         bcf     PCLATH, 0x4                                 ; reg: 0x00a
19EC   21C3           07804         call    function_021
19ED   083F           07805         movf    0x3f, W                                     ; reg: 0x03f
19EE   21C3           07806         call    0x01c3
19EF   158A           07807         bsf     PCLATH, 0x3                                 ; reg: 0x00a
19F0   160A           07808         bsf     PCLATH, 0x4                                 ; reg: 0x00a
19F1   0840           07809         movf    0x40, W                                     ; reg: 0x040
19F2   00C2           07810         movwf   0x42                                        ; reg: 0x042
19F3   083F           07811         movf    0x3f, W                                     ; reg: 0x03f
19F4   00C1           07812         movwf   0x41                                        ; reg: 0x041
19F5   3000           07813         movlw   0x00
19F6   00C4           07814         movwf   0x44                                        ; reg: 0x044
19F7   3009           07815         movlw   0x09
19F8   00C3           07816         movwf   0x43                                        ; reg: 0x043
19F9   118A           07817         bcf     PCLATH, 0x3                                 ; reg: 0x00a
19FA   160A           07818         bsf     PCLATH, 0x4                                 ; reg: 0x00a
19FB   26D5           07819         call    function_078
19FC   158A           07820         bsf     PCLATH, 0x3                                 ; reg: 0x00a
19FD   160A           07821         bsf     PCLATH, 0x4                                 ; reg: 0x00a
19FE   0840           07822         movf    0x40, W                                     ; reg: 0x040
19FF   118A           07823         bcf     PCLATH, 0x3                                 ; reg: 0x00a
1A00   120A           07824         bcf     PCLATH, 0x4                                 ; reg: 0x00a
1A01   21C3           07825         call    function_021
1A02   083F           07826         movf    0x3f, W                                     ; reg: 0x03f
1A03   21C3           07827         call    0x01c3
1A04   3002           07828         movlw   0x02
1A05   00B8           07829         movwf   0x38                                        ; reg: 0x038
1A06   303F           07830         movlw   0x3f
1A07   0084           07831         movwf   FSR                                         ; reg: 0x004
1A08   301B           07832         movlw   0x1b
gpasm-1.5.0 #1285 (Jan 23 2020) unidds_v1_10.   27.01.2020  22:56:48        PAGE 149


LOC    OBJECT CODE    LINE  SOURCE TEXT
  VALUE

1A09   00F8           07833         movwf   (Common_RAM + 8)                            ; reg: 0x078
1A0A   2675           07834         call    0x0675
1A0B   118A           07835         bcf     PCLATH, 0x3                                 ; reg: 0x00a
1A0C   160A           07836         bsf     PCLATH, 0x4                                 ; reg: 0x00a
1A0D   285F           07837         goto    label_160
1A0E   0000           07838         nop
1A0F   0000           07839         nop
1A10   3EFF           07840         addlw   0xff
1A11   3EFF           07841         addlw   0xff
1A12   3EFF           07842         addlw   0xff
1A13   3EFF           07843         addlw   0xff
1A14   3EFF           07844         addlw   0xff
1A15   3EFF           07845         addlw   0xff
1A16   3EFF           07846         addlw   0xff
1A17   3EFF           07847         addlw   0xff
1A18   3EFF           07848         addlw   0xff
1A19   3EFF           07849         addlw   0xff
1A1A   3EFF           07850         addlw   0xff
1A1B   3EFF           07851         addlw   0xff
1A1C   3EFF           07852         addlw   0xff
1A1D   3EFF           07853         addlw   0xff
1A1E   3EFF           07854         addlw   0xff
1A1F   3EFF           07855         addlw   0xff
1A20   3EFF           07856         addlw   0xff
1A21   3EFF           07857         addlw   0xff
1A22   3EFF           07858         addlw   0xff
1A23   3EFF           07859         addlw   0xff
1A24   3EFF           07860         addlw   0xff
1A25   3EFF           07861         addlw   0xff
1A26   3EFF           07862         addlw   0xff
1A27   3EFF           07863         addlw   0xff
1A28   3EFF           07864         addlw   0xff
1A29   3EFF           07865         addlw   0xff
1A2A   3EFF           07866         addlw   0xff
1A2B   3EFF           07867         addlw   0xff
1A2C   3EFF           07868         addlw   0xff
1A2D   3EFF           07869         addlw   0xff
1A2E   3EFF           07870         addlw   0xff
1A2F   3EFF           07871         addlw   0xff
1A30   3EFF           07872         addlw   0xff
1A31   3EFF           07873         addlw   0xff
1A32   3EFF           07874         addlw   0xff
1A33   3EFF           07875         addlw   0xff
1A34   3EFF           07876         addlw   0xff
1A35   3EFF           07877         addlw   0xff
1A36   3EFF           07878         addlw   0xff
1A37   3EFF           07879         addlw   0xff
1A38   3EFF           07880         addlw   0xff
1A39   3EFF           07881         addlw   0xff
1A3A   3EFF           07882         addlw   0xff
1A3B   3EFF           07883         addlw   0xff
1A3C   3EFF           07884         addlw   0xff
1A3D   3EFF           07885         addlw   0xff
gpasm-1.5.0 #1285 (Jan 23 2020) unidds_v1_10.   27.01.2020  22:56:48        PAGE 150


LOC    OBJECT CODE    LINE  SOURCE TEXT
  VALUE

1A3E   3EFF           07886         addlw   0xff
1A3F   3EFF           07887         addlw   0xff
1A40   3EFF           07888         addlw   0xff
1A41   3EFF           07889         addlw   0xff
1A42   3EFF           07890         addlw   0xff
1A43   3EFF           07891         addlw   0xff
1A44   3EFF           07892         addlw   0xff
1A45   3EFF           07893         addlw   0xff
1A46   3EFF           07894         addlw   0xff
1A47   3EFF           07895         addlw   0xff
1A48   3EFF           07896         addlw   0xff
1A49   3EFF           07897         addlw   0xff
1A4A   3EFF           07898         addlw   0xff
1A4B   3EFF           07899         addlw   0xff
1A4C   3EFF           07900         addlw   0xff
1A4D   3EFF           07901         addlw   0xff
1A4E   3EFF           07902         addlw   0xff
1A4F   3EFF           07903         addlw   0xff
1A50   3EFF           07904         addlw   0xff
1A51   3EFF           07905         addlw   0xff
1A52   3EFF           07906         addlw   0xff
1A53   3EFF           07907         addlw   0xff
1A54   3EFF           07908         addlw   0xff
1A55   3EFF           07909         addlw   0xff
1A56   3EFF           07910         addlw   0xff
1A57   3EFF           07911         addlw   0xff
1A58   3EFF           07912         addlw   0xff
1A59   3EFF           07913         addlw   0xff
1A5A   3EFF           07914         addlw   0xff
1A5B   3EFF           07915         addlw   0xff
1A5C   3EFF           07916         addlw   0xff
1A5D   3EFF           07917         addlw   0xff
1A5E   3EFF           07918         addlw   0xff
1A5F   3EFF           07919         addlw   0xff
1A60   3EFF           07920         addlw   0xff
1A61   3EFF           07921         addlw   0xff
1A62   3EFF           07922         addlw   0xff
1A63   3EFF           07923         addlw   0xff
1A64   3EFF           07924         addlw   0xff
1A65   3EFF           07925         addlw   0xff
1A66   3EFF           07926         addlw   0xff
1A67   3EFF           07927         addlw   0xff
1A68   3EFF           07928         addlw   0xff
1A69   3EFF           07929         addlw   0xff
1A6A   3EFF           07930         addlw   0xff
1A6B   3EFF           07931         addlw   0xff
1A6C   3EFF           07932         addlw   0xff
1A6D   3EFF           07933         addlw   0xff
1A6E   3EFF           07934         addlw   0xff
1A6F   3EFF           07935         addlw   0xff
1A70   3EFF           07936         addlw   0xff
1A71   3EFF           07937         addlw   0xff
1A72   3EFF           07938         addlw   0xff
gpasm-1.5.0 #1285 (Jan 23 2020) unidds_v1_10.   27.01.2020  22:56:48        PAGE 151


LOC    OBJECT CODE    LINE  SOURCE TEXT
  VALUE

1A73   3EFF           07939         addlw   0xff
1A74   3EFF           07940         addlw   0xff
1A75   3EFF           07941         addlw   0xff
1A76   3EFF           07942         addlw   0xff
1A77   3EFF           07943         addlw   0xff
1A78   3EFF           07944         addlw   0xff
1A79   3EFF           07945         addlw   0xff
1A7A   3EFF           07946         addlw   0xff
1A7B   3EFF           07947         addlw   0xff
1A7C   3EFF           07948         addlw   0xff
1A7D   3EFF           07949         addlw   0xff
1A7E   3EFF           07950         addlw   0xff
1A7F   3EFF           07951         addlw   0xff
1A80   3EFF           07952         addlw   0xff
1A81   3EFF           07953         addlw   0xff
1A82   3EFF           07954         addlw   0xff
1A83   3EFF           07955         addlw   0xff
1A84   3EFF           07956         addlw   0xff
1A85   3EFF           07957         addlw   0xff
1A86   3EFF           07958         addlw   0xff
1A87   3EFF           07959         addlw   0xff
1A88   3EFF           07960         addlw   0xff
1A89   3EFF           07961         addlw   0xff
1A8A   3EFF           07962         addlw   0xff
1A8B   3EFF           07963         addlw   0xff
1A8C   3EFF           07964         addlw   0xff
1A8D   3EFF           07965         addlw   0xff
1A8E   3EFF           07966         addlw   0xff
1A8F   3EFF           07967         addlw   0xff
1A90   3EFF           07968         addlw   0xff
1A91   3EFF           07969         addlw   0xff
1A92   3EFF           07970         addlw   0xff
1A93   3EFF           07971         addlw   0xff
1A94   3EFF           07972         addlw   0xff
1A95   3EFF           07973         addlw   0xff
1A96   3EFF           07974         addlw   0xff
1A97   3EFF           07975         addlw   0xff
1A98   3EFF           07976         addlw   0xff
1A99   3EFF           07977         addlw   0xff
1A9A   3EFF           07978         addlw   0xff
1A9B   3EFF           07979         addlw   0xff
1A9C   3EFF           07980         addlw   0xff
1A9D   3EFF           07981         addlw   0xff
1A9E   3EFF           07982         addlw   0xff
1A9F   3EFF           07983         addlw   0xff
1AA0   3EFF           07984         addlw   0xff
1AA1   3EFF           07985         addlw   0xff
1AA2   3EFF           07986         addlw   0xff
1AA3   3EFF           07987         addlw   0xff
1AA4   3EFF           07988         addlw   0xff
1AA5   3EFF           07989         addlw   0xff
1AA6   3EFF           07990         addlw   0xff
1AA7   3EFF           07991         addlw   0xff
gpasm-1.5.0 #1285 (Jan 23 2020) unidds_v1_10.   27.01.2020  22:56:48        PAGE 152


LOC    OBJECT CODE    LINE  SOURCE TEXT
  VALUE

1AA8   3EFF           07992         addlw   0xff
1AA9   3EFF           07993         addlw   0xff
1AAA   3EFF           07994         addlw   0xff
1AAB   3EFF           07995         addlw   0xff
1AAC   3EFF           07996         addlw   0xff
1AAD   3EFF           07997         addlw   0xff
1AAE   3EFF           07998         addlw   0xff
1AAF   3EFF           07999         addlw   0xff
1AB0   3EFF           08000         addlw   0xff
1AB1   3EFF           08001         addlw   0xff
1AB2   3EFF           08002         addlw   0xff
1AB3   3EFF           08003         addlw   0xff
1AB4   3EFF           08004         addlw   0xff
1AB5   3EFF           08005         addlw   0xff
1AB6   3EFF           08006         addlw   0xff
1AB7   3EFF           08007         addlw   0xff
1AB8   3EFF           08008         addlw   0xff
1AB9   3EFF           08009         addlw   0xff
1ABA   3EFF           08010         addlw   0xff
1ABB   3EFF           08011         addlw   0xff
1ABC   3EFF           08012         addlw   0xff
1ABD   3EFF           08013         addlw   0xff
1ABE   3EFF           08014         addlw   0xff
1ABF   3EFF           08015         addlw   0xff
1AC0   3EFF           08016         addlw   0xff
1AC1   3EFF           08017         addlw   0xff
1AC2   3EFF           08018         addlw   0xff
1AC3   3EFF           08019         addlw   0xff
1AC4   3EFF           08020         addlw   0xff
1AC5   3EFF           08021         addlw   0xff
1AC6   3EFF           08022         addlw   0xff
1AC7   3EFF           08023         addlw   0xff
1AC8   3EFF           08024         addlw   0xff
1AC9   3EFF           08025         addlw   0xff
1ACA   3EFF           08026         addlw   0xff
1ACB   3EFF           08027         addlw   0xff
1ACC   3EFF           08028         addlw   0xff
1ACD   3EFF           08029         addlw   0xff
1ACE   3EFF           08030         addlw   0xff
1ACF   3EFF           08031         addlw   0xff
1AD0   3EFF           08032         addlw   0xff
1AD1   3EFF           08033         addlw   0xff
1AD2   3EFF           08034         addlw   0xff
1AD3   3EFF           08035         addlw   0xff
1AD4   3EFF           08036         addlw   0xff
1AD5   3EFF           08037         addlw   0xff
1AD6   3EFF           08038         addlw   0xff
1AD7   3EFF           08039         addlw   0xff
1AD8   3EFF           08040         addlw   0xff
1AD9   3EFF           08041         addlw   0xff
1ADA   3EFF           08042         addlw   0xff
1ADB   3EFF           08043         addlw   0xff
1ADC   3EFF           08044         addlw   0xff
gpasm-1.5.0 #1285 (Jan 23 2020) unidds_v1_10.   27.01.2020  22:56:48        PAGE 153


LOC    OBJECT CODE    LINE  SOURCE TEXT
  VALUE

1ADD   3EFF           08045         addlw   0xff
1ADE   3EFF           08046         addlw   0xff
1ADF   3EFF           08047         addlw   0xff
1AE0   3EFF           08048         addlw   0xff
1AE1   3EFF           08049         addlw   0xff
1AE2   3EFF           08050         addlw   0xff
1AE3   3EFF           08051         addlw   0xff
1AE4   3EFF           08052         addlw   0xff
1AE5   3EFF           08053         addlw   0xff
1AE6   3EFF           08054         addlw   0xff
1AE7   3EFF           08055         addlw   0xff
1AE8   3EFF           08056         addlw   0xff
1AE9   3EFF           08057         addlw   0xff
1AEA   3EFF           08058         addlw   0xff
1AEB   3EFF           08059         addlw   0xff
1AEC   3EFF           08060         addlw   0xff
1AED   3EFF           08061         addlw   0xff
1AEE   3EFF           08062         addlw   0xff
1AEF   3EFF           08063         addlw   0xff
1AF0   3EFF           08064         addlw   0xff
1AF1   3EFF           08065         addlw   0xff
1AF2   3EFF           08066         addlw   0xff
1AF3   3EFF           08067         addlw   0xff
1AF4   3EFF           08068         addlw   0xff
1AF5   3EFF           08069         addlw   0xff
1AF6   3EFF           08070         addlw   0xff
1AF7   3EFF           08071         addlw   0xff
1AF8   3EFF           08072         addlw   0xff
1AF9   3EFF           08073         addlw   0xff
1AFA   3EFF           08074         addlw   0xff
1AFB   3EFF           08075         addlw   0xff
1AFC   3EFF           08076         addlw   0xff
1AFD   3EFF           08077         addlw   0xff
1AFE   3EFF           08078         addlw   0xff
1AFF   3EFF           08079         addlw   0xff
1B00   3EFF           08080         addlw   0xff
1B01   3EFF           08081         addlw   0xff
1B02   3EFF           08082         addlw   0xff
1B03   3EFF           08083         addlw   0xff
1B04   3EFF           08084         addlw   0xff
1B05   3EFF           08085         addlw   0xff
1B06   3EFF           08086         addlw   0xff
1B07   3EFF           08087         addlw   0xff
1B08   3EFF           08088         addlw   0xff
1B09   3EFF           08089         addlw   0xff
1B0A   3EFF           08090         addlw   0xff
1B0B   3EFF           08091         addlw   0xff
1B0C   3EFF           08092         addlw   0xff
1B0D   3EFF           08093         addlw   0xff
1B0E   3EFF           08094         addlw   0xff
1B0F   3EFF           08095         addlw   0xff
1B10   3EFF           08096         addlw   0xff
1B11   3EFF           08097         addlw   0xff
gpasm-1.5.0 #1285 (Jan 23 2020) unidds_v1_10.   27.01.2020  22:56:48        PAGE 154


LOC    OBJECT CODE    LINE  SOURCE TEXT
  VALUE

1B12   3EFF           08098         addlw   0xff
1B13   3EFF           08099         addlw   0xff
1B14   3EFF           08100         addlw   0xff
1B15   3EFF           08101         addlw   0xff
1B16   3EFF           08102         addlw   0xff
1B17   3EFF           08103         addlw   0xff
1B18   3EFF           08104         addlw   0xff
1B19   3EFF           08105         addlw   0xff
1B1A   3EFF           08106         addlw   0xff
1B1B   3EFF           08107         addlw   0xff
1B1C   3EFF           08108         addlw   0xff
1B1D   3EFF           08109         addlw   0xff
1B1E   3EFF           08110         addlw   0xff
1B1F   3EFF           08111         addlw   0xff
1B20   3EFF           08112         addlw   0xff
1B21   3EFF           08113         addlw   0xff
1B22   3EFF           08114         addlw   0xff
1B23   3EFF           08115         addlw   0xff
1B24   3EFF           08116         addlw   0xff
1B25   3EFF           08117         addlw   0xff
1B26   3EFF           08118         addlw   0xff
1B27   3EFF           08119         addlw   0xff
1B28   3EFF           08120         addlw   0xff
1B29   3EFF           08121         addlw   0xff
1B2A   3EFF           08122         addlw   0xff
1B2B   3EFF           08123         addlw   0xff
1B2C   3EFF           08124         addlw   0xff
1B2D   3EFF           08125         addlw   0xff
1B2E   3EFF           08126         addlw   0xff
1B2F   3EFF           08127         addlw   0xff
1B30   3EFF           08128         addlw   0xff
1B31   3EFF           08129         addlw   0xff
1B32   3EFF           08130         addlw   0xff
1B33   3EFF           08131         addlw   0xff
1B34   3EFF           08132         addlw   0xff
1B35   3EFF           08133         addlw   0xff
1B36   3EFF           08134         addlw   0xff
1B37   3EFF           08135         addlw   0xff
1B38   3EFF           08136         addlw   0xff
1B39   3EFF           08137         addlw   0xff
1B3A   3EFF           08138         addlw   0xff
1B3B   3EFF           08139         addlw   0xff
1B3C   3EFF           08140         addlw   0xff
1B3D   3EFF           08141         addlw   0xff
1B3E   3EFF           08142         addlw   0xff
1B3F   3EFF           08143         addlw   0xff
1B40   3EFF           08144         addlw   0xff
1B41   3EFF           08145         addlw   0xff
1B42   3EFF           08146         addlw   0xff
1B43   3EFF           08147         addlw   0xff
1B44   3EFF           08148         addlw   0xff
1B45   3EFF           08149         addlw   0xff
1B46   3EFF           08150         addlw   0xff
gpasm-1.5.0 #1285 (Jan 23 2020) unidds_v1_10.   27.01.2020  22:56:48        PAGE 155


LOC    OBJECT CODE    LINE  SOURCE TEXT
  VALUE

1B47   3EFF           08151         addlw   0xff
1B48   3EFF           08152         addlw   0xff
1B49   3EFF           08153         addlw   0xff
1B4A   3EFF           08154         addlw   0xff
1B4B   3EFF           08155         addlw   0xff
1B4C   3EFF           08156         addlw   0xff
1B4D   3EFF           08157         addlw   0xff
1B4E   3EFF           08158         addlw   0xff
1B4F   3EFF           08159         addlw   0xff
1B50   3EFF           08160         addlw   0xff
1B51   3EFF           08161         addlw   0xff
1B52   3EFF           08162         addlw   0xff
1B53   3EFF           08163         addlw   0xff
1B54   3EFF           08164         addlw   0xff
1B55   3EFF           08165         addlw   0xff
1B56   3EFF           08166         addlw   0xff
1B57   3EFF           08167         addlw   0xff
1B58   3EFF           08168         addlw   0xff
1B59   3EFF           08169         addlw   0xff
1B5A   3EFF           08170         addlw   0xff
1B5B   3EFF           08171         addlw   0xff
1B5C   3EFF           08172         addlw   0xff
1B5D   3EFF           08173         addlw   0xff
1B5E   3EFF           08174         addlw   0xff
1B5F   3EFF           08175         addlw   0xff
1B60   3EFF           08176         addlw   0xff
1B61   3EFF           08177         addlw   0xff
1B62   3EFF           08178         addlw   0xff
1B63   3EFF           08179         addlw   0xff
1B64   3EFF           08180         addlw   0xff
1B65   3EFF           08181         addlw   0xff
1B66   3EFF           08182         addlw   0xff
1B67   3EFF           08183         addlw   0xff
1B68   3EFF           08184         addlw   0xff
1B69   3EFF           08185         addlw   0xff
1B6A   3EFF           08186         addlw   0xff
1B6B   3EFF           08187         addlw   0xff
1B6C   3EFF           08188         addlw   0xff
1B6D   3EFF           08189         addlw   0xff
1B6E   3EFF           08190         addlw   0xff
1B6F   3EFF           08191         addlw   0xff
1B70   3EFF           08192         addlw   0xff
1B71   3EFF           08193         addlw   0xff
1B72   3EFF           08194         addlw   0xff
1B73   3EFF           08195         addlw   0xff
1B74   3EFF           08196         addlw   0xff
1B75   3EFF           08197         addlw   0xff
1B76   3EFF           08198         addlw   0xff
1B77   3EFF           08199         addlw   0xff
1B78   3EFF           08200         addlw   0xff
1B79   3EFF           08201         addlw   0xff
1B7A   3EFF           08202         addlw   0xff
1B7B   3EFF           08203         addlw   0xff
gpasm-1.5.0 #1285 (Jan 23 2020) unidds_v1_10.   27.01.2020  22:56:48        PAGE 156


LOC    OBJECT CODE    LINE  SOURCE TEXT
  VALUE

1B7C   3EFF           08204         addlw   0xff
1B7D   3EFF           08205         addlw   0xff
1B7E   3EFF           08206         addlw   0xff
1B7F   3EFF           08207         addlw   0xff
1B80   3EFF           08208         addlw   0xff
1B81   3EFF           08209         addlw   0xff
1B82   3EFF           08210         addlw   0xff
1B83   3EFF           08211         addlw   0xff
1B84   3EFF           08212         addlw   0xff
1B85   3EFF           08213         addlw   0xff
1B86   3EFF           08214         addlw   0xff
1B87   3EFF           08215         addlw   0xff
1B88   3EFF           08216         addlw   0xff
1B89   3EFF           08217         addlw   0xff
1B8A   3EFF           08218         addlw   0xff
1B8B   3EFF           08219         addlw   0xff
1B8C   3EFF           08220         addlw   0xff
1B8D   3EFF           08221         addlw   0xff
1B8E   3EFF           08222         addlw   0xff
1B8F   3EFF           08223         addlw   0xff
1B90   3EFF           08224         addlw   0xff
1B91   3EFF           08225         addlw   0xff
1B92   3EFF           08226         addlw   0xff
1B93   3EFF           08227         addlw   0xff
1B94   3EFF           08228         addlw   0xff
1B95   3EFF           08229         addlw   0xff
1B96   3EFF           08230         addlw   0xff
1B97   3EFF           08231         addlw   0xff
1B98   3EFF           08232         addlw   0xff
1B99   3EFF           08233         addlw   0xff
1B9A   3EFF           08234         addlw   0xff
1B9B   3EFF           08235         addlw   0xff
1B9C   3EFF           08236         addlw   0xff
1B9D   3EFF           08237         addlw   0xff
1B9E   3EFF           08238         addlw   0xff
1B9F   3EFF           08239         addlw   0xff
1BA0   3EFF           08240         addlw   0xff
1BA1   3EFF           08241         addlw   0xff
1BA2   3EFF           08242         addlw   0xff
1BA3   3EFF           08243         addlw   0xff
1BA4   3EFF           08244         addlw   0xff
1BA5   3EFF           08245         addlw   0xff
1BA6   3EFF           08246         addlw   0xff
1BA7   3EFF           08247         addlw   0xff
1BA8   3EFF           08248         addlw   0xff
1BA9   3EFF           08249         addlw   0xff
1BAA   3EFF           08250         addlw   0xff
1BAB   3EFF           08251         addlw   0xff
1BAC   3EFF           08252         addlw   0xff
1BAD   3EFF           08253         addlw   0xff
1BAE   3EFF           08254         addlw   0xff
1BAF   3EFF           08255         addlw   0xff
1BB0   3EFF           08256         addlw   0xff
gpasm-1.5.0 #1285 (Jan 23 2020) unidds_v1_10.   27.01.2020  22:56:48        PAGE 157


LOC    OBJECT CODE    LINE  SOURCE TEXT
  VALUE

1BB1   3EFF           08257         addlw   0xff
1BB2   3EFF           08258         addlw   0xff
1BB3   3EFF           08259         addlw   0xff
1BB4   3EFF           08260         addlw   0xff
1BB5   3EFF           08261         addlw   0xff
1BB6   3EFF           08262         addlw   0xff
1BB7   3EFF           08263         addlw   0xff
1BB8   3EFF           08264         addlw   0xff
1BB9   3EFF           08265         addlw   0xff
1BBA   3EFF           08266         addlw   0xff
1BBB   3EFF           08267         addlw   0xff
1BBC   3EFF           08268         addlw   0xff
1BBD   3EFF           08269         addlw   0xff
1BBE   3EFF           08270         addlw   0xff
1BBF   3EFF           08271         addlw   0xff
1BC0   3EFF           08272         addlw   0xff
1BC1   3EFF           08273         addlw   0xff
1BC2   3EFF           08274         addlw   0xff
1BC3   3EFF           08275         addlw   0xff
1BC4   3EFF           08276         addlw   0xff
1BC5   3EFF           08277         addlw   0xff
1BC6   3EFF           08278         addlw   0xff
1BC7   3EFF           08279         addlw   0xff
1BC8   3EFF           08280         addlw   0xff
1BC9   3EFF           08281         addlw   0xff
1BCA   3EFF           08282         addlw   0xff
1BCB   3EFF           08283         addlw   0xff
1BCC   3EFF           08284         addlw   0xff
1BCD   3EFF           08285         addlw   0xff
1BCE   3EFF           08286         addlw   0xff
1BCF   3EFF           08287         addlw   0xff
1BD0   3EFF           08288         addlw   0xff
1BD1   3EFF           08289         addlw   0xff
1BD2   3EFF           08290         addlw   0xff
1BD3   3EFF           08291         addlw   0xff
1BD4   3EFF           08292         addlw   0xff
1BD5   3EFF           08293         addlw   0xff
1BD6   3EFF           08294         addlw   0xff
1BD7   3EFF           08295         addlw   0xff
1BD8   3EFF           08296         addlw   0xff
1BD9   3EFF           08297         addlw   0xff
1BDA   3EFF           08298         addlw   0xff
1BDB   3EFF           08299         addlw   0xff
1BDC   3EFF           08300         addlw   0xff
1BDD   3EFF           08301         addlw   0xff
1BDE   3EFF           08302         addlw   0xff
1BDF   3EFF           08303         addlw   0xff
1BE0   3EFF           08304         addlw   0xff
1BE1   3EFF           08305         addlw   0xff
1BE2   3EFF           08306         addlw   0xff
1BE3   3EFF           08307         addlw   0xff
1BE4   3EFF           08308         addlw   0xff
1BE5   3EFF           08309         addlw   0xff
gpasm-1.5.0 #1285 (Jan 23 2020) unidds_v1_10.   27.01.2020  22:56:48        PAGE 158


LOC    OBJECT CODE    LINE  SOURCE TEXT
  VALUE

1BE6   3EFF           08310         addlw   0xff
1BE7   3EFF           08311         addlw   0xff
1BE8   3EFF           08312         addlw   0xff
1BE9   3EFF           08313         addlw   0xff
1BEA   3EFF           08314         addlw   0xff
1BEB   3EFF           08315         addlw   0xff
1BEC   3EFF           08316         addlw   0xff
1BED   3EFF           08317         addlw   0xff
1BEE   3EFF           08318         addlw   0xff
1BEF   3EFF           08319         addlw   0xff
1BF0   3EFF           08320         addlw   0xff
1BF1   3EFF           08321         addlw   0xff
1BF2   3EFF           08322         addlw   0xff
1BF3   3EFF           08323         addlw   0xff
1BF4   3EFF           08324         addlw   0xff
1BF5   3EFF           08325         addlw   0xff
1BF6   3EFF           08326         addlw   0xff
1BF7   3EFF           08327         addlw   0xff
1BF8   3EFF           08328         addlw   0xff
1BF9   3EFF           08329         addlw   0xff
1BFA   3EFF           08330         addlw   0xff
1BFB   3EFF           08331         addlw   0xff
1BFC   3EFF           08332         addlw   0xff
1BFD   3EFF           08333         addlw   0xff
1BFE   3EFF           08334         addlw   0xff
1BFF   3EFF           08335         addlw   0xff
1C00   3EFF           08336         addlw   0xff
1C01   3EFF           08337         addlw   0xff
1C02   3EFF           08338         addlw   0xff
1C03   3EFF           08339         addlw   0xff
1C04   3EFF           08340         addlw   0xff
1C05   3EFF           08341         addlw   0xff
1C06   3EFF           08342         addlw   0xff
1C07   3EFF           08343         addlw   0xff
1C08   3EFF           08344         addlw   0xff
1C09   3EFF           08345         addlw   0xff
1C0A   3EFF           08346         addlw   0xff
1C0B   3EFF           08347         addlw   0xff
1C0C   3EFF           08348         addlw   0xff
1C0D   3EFF           08349         addlw   0xff
1C0E   3EFF           08350         addlw   0xff
1C0F   3EFF           08351         addlw   0xff
1C10   3EFF           08352         addlw   0xff
1C11   3EFF           08353         addlw   0xff
1C12   3EFF           08354         addlw   0xff
1C13   3EFF           08355         addlw   0xff
1C14   3EFF           08356         addlw   0xff
1C15   3EFF           08357         addlw   0xff
1C16   3EFF           08358         addlw   0xff
1C17   3EFF           08359         addlw   0xff
1C18   3EFF           08360         addlw   0xff
1C19   3EFF           08361         addlw   0xff
1C1A   3EFF           08362         addlw   0xff
gpasm-1.5.0 #1285 (Jan 23 2020) unidds_v1_10.   27.01.2020  22:56:48        PAGE 159


LOC    OBJECT CODE    LINE  SOURCE TEXT
  VALUE

1C1B   3EFF           08363         addlw   0xff
1C1C   3EFF           08364         addlw   0xff
1C1D   3EFF           08365         addlw   0xff
1C1E   3EFF           08366         addlw   0xff
1C1F   3EFF           08367         addlw   0xff
1C20   3EFF           08368         addlw   0xff
1C21   3EFF           08369         addlw   0xff
1C22   3EFF           08370         addlw   0xff
1C23   3EFF           08371         addlw   0xff
1C24   3EFF           08372         addlw   0xff
1C25   3EFF           08373         addlw   0xff
1C26   3EFF           08374         addlw   0xff
1C27   3EFF           08375         addlw   0xff
1C28   3EFF           08376         addlw   0xff
1C29   3EFF           08377         addlw   0xff
1C2A   3EFF           08378         addlw   0xff
1C2B   3EFF           08379         addlw   0xff
1C2C   3EFF           08380         addlw   0xff
1C2D   3EFF           08381         addlw   0xff
1C2E   3EFF           08382         addlw   0xff
1C2F   3EFF           08383         addlw   0xff
1C30   3EFF           08384         addlw   0xff
1C31   3EFF           08385         addlw   0xff
1C32   3EFF           08386         addlw   0xff
1C33   3EFF           08387         addlw   0xff
1C34   3EFF           08388         addlw   0xff
1C35   3EFF           08389         addlw   0xff
1C36   3EFF           08390         addlw   0xff
1C37   3EFF           08391         addlw   0xff
1C38   3EFF           08392         addlw   0xff
1C39   3EFF           08393         addlw   0xff
1C3A   3EFF           08394         addlw   0xff
1C3B   3EFF           08395         addlw   0xff
1C3C   3EFF           08396         addlw   0xff
1C3D   3EFF           08397         addlw   0xff
1C3E   3EFF           08398         addlw   0xff
1C3F   3EFF           08399         addlw   0xff
1C40   3EFF           08400         addlw   0xff
1C41   3EFF           08401         addlw   0xff
1C42   3EFF           08402         addlw   0xff
1C43   3EFF           08403         addlw   0xff
1C44   3EFF           08404         addlw   0xff
1C45   3EFF           08405         addlw   0xff
1C46   3EFF           08406         addlw   0xff
1C47   3EFF           08407         addlw   0xff
1C48   3EFF           08408         addlw   0xff
1C49   3EFF           08409         addlw   0xff
1C4A   3EFF           08410         addlw   0xff
1C4B   3EFF           08411         addlw   0xff
1C4C   3EFF           08412         addlw   0xff
1C4D   3EFF           08413         addlw   0xff
1C4E   3EFF           08414         addlw   0xff
1C4F   3EFF           08415         addlw   0xff
gpasm-1.5.0 #1285 (Jan 23 2020) unidds_v1_10.   27.01.2020  22:56:48        PAGE 160


LOC    OBJECT CODE    LINE  SOURCE TEXT
  VALUE

1C50   3EFF           08416         addlw   0xff
1C51   3EFF           08417         addlw   0xff
1C52   3EFF           08418         addlw   0xff
1C53   3EFF           08419         addlw   0xff
1C54   3EFF           08420         addlw   0xff
1C55   3EFF           08421         addlw   0xff
1C56   3EFF           08422         addlw   0xff
1C57   3EFF           08423         addlw   0xff
1C58   3EFF           08424         addlw   0xff
1C59   3EFF           08425         addlw   0xff
1C5A   3EFF           08426         addlw   0xff
1C5B   3EFF           08427         addlw   0xff
1C5C   3EFF           08428         addlw   0xff
1C5D   3EFF           08429         addlw   0xff
1C5E   3EFF           08430         addlw   0xff
1C5F   3EFF           08431         addlw   0xff
1C60   3EFF           08432         addlw   0xff
1C61   3EFF           08433         addlw   0xff
1C62   3EFF           08434         addlw   0xff
1C63   3EFF           08435         addlw   0xff
1C64   3EFF           08436         addlw   0xff
1C65   3EFF           08437         addlw   0xff
1C66   3EFF           08438         addlw   0xff
1C67   3EFF           08439         addlw   0xff
1C68   3EFF           08440         addlw   0xff
1C69   3EFF           08441         addlw   0xff
1C6A   3EFF           08442         addlw   0xff
1C6B   3EFF           08443         addlw   0xff
1C6C   3EFF           08444         addlw   0xff
1C6D   3EFF           08445         addlw   0xff
1C6E   3EFF           08446         addlw   0xff
1C6F   3EFF           08447         addlw   0xff
1C70   3EFF           08448         addlw   0xff
1C71   3EFF           08449         addlw   0xff
1C72   3EFF           08450         addlw   0xff
1C73   3EFF           08451         addlw   0xff
1C74   3EFF           08452         addlw   0xff
1C75   3EFF           08453         addlw   0xff
1C76   3EFF           08454         addlw   0xff
1C77   3EFF           08455         addlw   0xff
1C78   3EFF           08456         addlw   0xff
1C79   3EFF           08457         addlw   0xff
1C7A   3EFF           08458         addlw   0xff
1C7B   3EFF           08459         addlw   0xff
1C7C   3EFF           08460         addlw   0xff
1C7D   3EFF           08461         addlw   0xff
1C7E   3EFF           08462         addlw   0xff
1C7F   3EFF           08463         addlw   0xff
1C80   3EFF           08464         addlw   0xff
1C81   3EFF           08465         addlw   0xff
1C82   3EFF           08466         addlw   0xff
1C83   3EFF           08467         addlw   0xff
1C84   3EFF           08468         addlw   0xff
gpasm-1.5.0 #1285 (Jan 23 2020) unidds_v1_10.   27.01.2020  22:56:48        PAGE 161


LOC    OBJECT CODE    LINE  SOURCE TEXT
  VALUE

1C85   3EFF           08469         addlw   0xff
1C86   3EFF           08470         addlw   0xff
1C87   3EFF           08471         addlw   0xff
1C88   3EFF           08472         addlw   0xff
1C89   3EFF           08473         addlw   0xff
1C8A   3EFF           08474         addlw   0xff
1C8B   3EFF           08475         addlw   0xff
1C8C   3EFF           08476         addlw   0xff
1C8D   3EFF           08477         addlw   0xff
1C8E   3EFF           08478         addlw   0xff
1C8F   3EFF           08479         addlw   0xff
1C90   3EFF           08480         addlw   0xff
1C91   3EFF           08481         addlw   0xff
1C92   3EFF           08482         addlw   0xff
1C93   3EFF           08483         addlw   0xff
1C94   3EFF           08484         addlw   0xff
1C95   3EFF           08485         addlw   0xff
1C96   3EFF           08486         addlw   0xff
1C97   3EFF           08487         addlw   0xff
1C98   3EFF           08488         addlw   0xff
1C99   3EFF           08489         addlw   0xff
1C9A   3EFF           08490         addlw   0xff
1C9B   3EFF           08491         addlw   0xff
1C9C   3EFF           08492         addlw   0xff
1C9D   3EFF           08493         addlw   0xff
1C9E   3EFF           08494         addlw   0xff
1C9F   3EFF           08495         addlw   0xff
1CA0   3EFF           08496         addlw   0xff
1CA1   3EFF           08497         addlw   0xff
1CA2   3EFF           08498         addlw   0xff
1CA3   3EFF           08499         addlw   0xff
1CA4   3EFF           08500         addlw   0xff
1CA5   3EFF           08501         addlw   0xff
1CA6   3EFF           08502         addlw   0xff
1CA7   3EFF           08503         addlw   0xff
1CA8   3EFF           08504         addlw   0xff
1CA9   3EFF           08505         addlw   0xff
1CAA   3EFF           08506         addlw   0xff
1CAB   3EFF           08507         addlw   0xff
1CAC   3EFF           08508         addlw   0xff
1CAD   3EFF           08509         addlw   0xff
1CAE   3EFF           08510         addlw   0xff
1CAF   3EFF           08511         addlw   0xff
1CB0   3EFF           08512         addlw   0xff
1CB1   3EFF           08513         addlw   0xff
1CB2   3EFF           08514         addlw   0xff
1CB3   3EFF           08515         addlw   0xff
1CB4   3EFF           08516         addlw   0xff
1CB5   3EFF           08517         addlw   0xff
1CB6   3EFF           08518         addlw   0xff
1CB7   3EFF           08519         addlw   0xff
1CB8   3EFF           08520         addlw   0xff
1CB9   3EFF           08521         addlw   0xff
gpasm-1.5.0 #1285 (Jan 23 2020) unidds_v1_10.   27.01.2020  22:56:48        PAGE 162


LOC    OBJECT CODE    LINE  SOURCE TEXT
  VALUE

1CBA   3EFF           08522         addlw   0xff
1CBB   3EFF           08523         addlw   0xff
1CBC   3EFF           08524         addlw   0xff
1CBD   3EFF           08525         addlw   0xff
1CBE   3EFF           08526         addlw   0xff
1CBF   3EFF           08527         addlw   0xff
1CC0   3EFF           08528         addlw   0xff
1CC1   3EFF           08529         addlw   0xff
1CC2   3EFF           08530         addlw   0xff
1CC3   3EFF           08531         addlw   0xff
1CC4   3EFF           08532         addlw   0xff
1CC5   3EFF           08533         addlw   0xff
1CC6   3EFF           08534         addlw   0xff
1CC7   3EFF           08535         addlw   0xff
1CC8   3EFF           08536         addlw   0xff
1CC9   3EFF           08537         addlw   0xff
1CCA   3EFF           08538         addlw   0xff
1CCB   3EFF           08539         addlw   0xff
1CCC   3EFF           08540         addlw   0xff
1CCD   3EFF           08541         addlw   0xff
1CCE   3EFF           08542         addlw   0xff
1CCF   3EFF           08543         addlw   0xff
1CD0   3EFF           08544         addlw   0xff
1CD1   3EFF           08545         addlw   0xff
1CD2   3EFF           08546         addlw   0xff
1CD3   3EFF           08547         addlw   0xff
1CD4   3EFF           08548         addlw   0xff
1CD5   3EFF           08549         addlw   0xff
1CD6   3EFF           08550         addlw   0xff
1CD7   3EFF           08551         addlw   0xff
1CD8   3EFF           08552         addlw   0xff
1CD9   3EFF           08553         addlw   0xff
1CDA   3EFF           08554         addlw   0xff
1CDB   3EFF           08555         addlw   0xff
1CDC   3EFF           08556         addlw   0xff
1CDD   3EFF           08557         addlw   0xff
1CDE   3EFF           08558         addlw   0xff
1CDF   3EFF           08559         addlw   0xff
1CE0   3EFF           08560         addlw   0xff
1CE1   3EFF           08561         addlw   0xff
1CE2   3EFF           08562         addlw   0xff
1CE3   3EFF           08563         addlw   0xff
1CE4   3EFF           08564         addlw   0xff
1CE5   3EFF           08565         addlw   0xff
1CE6   3EFF           08566         addlw   0xff
1CE7   3EFF           08567         addlw   0xff
1CE8   3EFF           08568         addlw   0xff
1CE9   3EFF           08569         addlw   0xff
1CEA   3EFF           08570         addlw   0xff
1CEB   3EFF           08571         addlw   0xff
1CEC   3EFF           08572         addlw   0xff
1CED   3EFF           08573         addlw   0xff
1CEE   3EFF           08574         addlw   0xff
gpasm-1.5.0 #1285 (Jan 23 2020) unidds_v1_10.   27.01.2020  22:56:48        PAGE 163


LOC    OBJECT CODE    LINE  SOURCE TEXT
  VALUE

1CEF   3EFF           08575         addlw   0xff
1CF0   3EFF           08576         addlw   0xff
1CF1   3EFF           08577         addlw   0xff
1CF2   3EFF           08578         addlw   0xff
1CF3   3EFF           08579         addlw   0xff
1CF4   3EFF           08580         addlw   0xff
1CF5   3EFF           08581         addlw   0xff
1CF6   3EFF           08582         addlw   0xff
1CF7   3EFF           08583         addlw   0xff
1CF8   3EFF           08584         addlw   0xff
1CF9   3EFF           08585         addlw   0xff
1CFA   3EFF           08586         addlw   0xff
1CFB   3EFF           08587         addlw   0xff
1CFC   3EFF           08588         addlw   0xff
1CFD   3EFF           08589         addlw   0xff
1CFE   3EFF           08590         addlw   0xff
1CFF   3EFF           08591         addlw   0xff
1D00   3EFF           08592         addlw   0xff
1D01   3EFF           08593         addlw   0xff
1D02   3EFF           08594         addlw   0xff
1D03   3EFF           08595         addlw   0xff
1D04   3EFF           08596         addlw   0xff
1D05   3EFF           08597         addlw   0xff
1D06   3EFF           08598         addlw   0xff
1D07   3EFF           08599         addlw   0xff
1D08   3EFF           08600         addlw   0xff
1D09   3EFF           08601         addlw   0xff
1D0A   3EFF           08602         addlw   0xff
1D0B   3EFF           08603         addlw   0xff
1D0C   3EFF           08604         addlw   0xff
1D0D   3EFF           08605         addlw   0xff
1D0E   3EFF           08606         addlw   0xff
1D0F   3EFF           08607         addlw   0xff
1D10   3EFF           08608         addlw   0xff
1D11   3EFF           08609         addlw   0xff
1D12   3EFF           08610         addlw   0xff
1D13   3EFF           08611         addlw   0xff
1D14   3EFF           08612         addlw   0xff
1D15   3EFF           08613         addlw   0xff
1D16   3EFF           08614         addlw   0xff
1D17   3EFF           08615         addlw   0xff
1D18   3EFF           08616         addlw   0xff
1D19   3EFF           08617         addlw   0xff
1D1A   3EFF           08618         addlw   0xff
1D1B   3EFF           08619         addlw   0xff
1D1C   3EFF           08620         addlw   0xff
1D1D   3EFF           08621         addlw   0xff
1D1E   3EFF           08622         addlw   0xff
1D1F   3EFF           08623         addlw   0xff
1D20   3EFF           08624         addlw   0xff
1D21   3EFF           08625         addlw   0xff
1D22   3EFF           08626         addlw   0xff
1D23   3EFF           08627         addlw   0xff
gpasm-1.5.0 #1285 (Jan 23 2020) unidds_v1_10.   27.01.2020  22:56:48        PAGE 164


LOC    OBJECT CODE    LINE  SOURCE TEXT
  VALUE

1D24   3EFF           08628         addlw   0xff
1D25   3EFF           08629         addlw   0xff
1D26   3EFF           08630         addlw   0xff
1D27   3EFF           08631         addlw   0xff
1D28   3EFF           08632         addlw   0xff
1D29   3EFF           08633         addlw   0xff
1D2A   3EFF           08634         addlw   0xff
1D2B   3EFF           08635         addlw   0xff
1D2C   3EFF           08636         addlw   0xff
1D2D   3EFF           08637         addlw   0xff
1D2E   3EFF           08638         addlw   0xff
1D2F   3EFF           08639         addlw   0xff
1D30   3EFF           08640         addlw   0xff
1D31   3EFF           08641         addlw   0xff
1D32   3EFF           08642         addlw   0xff
1D33   3EFF           08643         addlw   0xff
1D34   3EFF           08644         addlw   0xff
1D35   3EFF           08645         addlw   0xff
1D36   3EFF           08646         addlw   0xff
1D37   3EFF           08647         addlw   0xff
1D38   3EFF           08648         addlw   0xff
1D39   3EFF           08649         addlw   0xff
1D3A   3EFF           08650         addlw   0xff
1D3B   3EFF           08651         addlw   0xff
1D3C   3EFF           08652         addlw   0xff
1D3D   3EFF           08653         addlw   0xff
1D3E   3EFF           08654         addlw   0xff
1D3F   3EFF           08655         addlw   0xff
1D40   3EFF           08656         addlw   0xff
1D41   3EFF           08657         addlw   0xff
1D42   3EFF           08658         addlw   0xff
1D43   3EFF           08659         addlw   0xff
1D44   3EFF           08660         addlw   0xff
1D45   3EFF           08661         addlw   0xff
1D46   3EFF           08662         addlw   0xff
1D47   3EFF           08663         addlw   0xff
1D48   3EFF           08664         addlw   0xff
1D49   3EFF           08665         addlw   0xff
1D4A   3EFF           08666         addlw   0xff
1D4B   3EFF           08667         addlw   0xff
1D4C   3EFF           08668         addlw   0xff
1D4D   3EFF           08669         addlw   0xff
1D4E   3EFF           08670         addlw   0xff
1D4F   3EFF           08671         addlw   0xff
1D50   3EFF           08672         addlw   0xff
1D51   3EFF           08673         addlw   0xff
1D52   3EFF           08674         addlw   0xff
1D53   3EFF           08675         addlw   0xff
1D54   3EFF           08676         addlw   0xff
1D55   3EFF           08677         addlw   0xff
1D56   3EFF           08678         addlw   0xff
1D57   3EFF           08679         addlw   0xff
1D58   3EFF           08680         addlw   0xff
gpasm-1.5.0 #1285 (Jan 23 2020) unidds_v1_10.   27.01.2020  22:56:48        PAGE 165


LOC    OBJECT CODE    LINE  SOURCE TEXT
  VALUE

1D59   3EFF           08681         addlw   0xff
1D5A   3EFF           08682         addlw   0xff
1D5B   3EFF           08683         addlw   0xff
1D5C   3EFF           08684         addlw   0xff
1D5D   3EFF           08685         addlw   0xff
1D5E   3EFF           08686         addlw   0xff
1D5F   3EFF           08687         addlw   0xff
1D60   3EFF           08688         addlw   0xff
1D61   3EFF           08689         addlw   0xff
1D62   3EFF           08690         addlw   0xff
1D63   3EFF           08691         addlw   0xff
1D64   3EFF           08692         addlw   0xff
1D65   3EFF           08693         addlw   0xff
1D66   3EFF           08694         addlw   0xff
1D67   3EFF           08695         addlw   0xff
1D68   3EFF           08696         addlw   0xff
1D69   3EFF           08697         addlw   0xff
1D6A   3EFF           08698         addlw   0xff
1D6B   3EFF           08699         addlw   0xff
1D6C   3EFF           08700         addlw   0xff
1D6D   3EFF           08701         addlw   0xff
1D6E   3EFF           08702         addlw   0xff
1D6F   3EFF           08703         addlw   0xff
1D70   3EFF           08704         addlw   0xff
1D71   3EFF           08705         addlw   0xff
1D72   3EFF           08706         addlw   0xff
1D73   3EFF           08707         addlw   0xff
1D74   3EFF           08708         addlw   0xff
1D75   3EFF           08709         addlw   0xff
1D76   3EFF           08710         addlw   0xff
1D77   3EFF           08711         addlw   0xff
1D78   3EFF           08712         addlw   0xff
1D79   3EFF           08713         addlw   0xff
1D7A   3EFF           08714         addlw   0xff
1D7B   3EFF           08715         addlw   0xff
1D7C   3EFF           08716         addlw   0xff
1D7D   3EFF           08717         addlw   0xff
1D7E   3EFF           08718         addlw   0xff
1D7F   3EFF           08719         addlw   0xff
1D80   3EFF           08720         addlw   0xff
1D81   3EFF           08721         addlw   0xff
1D82   3EFF           08722         addlw   0xff
1D83   3EFF           08723         addlw   0xff
1D84   3EFF           08724         addlw   0xff
1D85   3EFF           08725         addlw   0xff
1D86   3EFF           08726         addlw   0xff
1D87   3EFF           08727         addlw   0xff
1D88   3EFF           08728         addlw   0xff
1D89   3EFF           08729         addlw   0xff
1D8A   3EFF           08730         addlw   0xff
1D8B   3EFF           08731         addlw   0xff
1D8C   3EFF           08732         addlw   0xff
1D8D   3EFF           08733         addlw   0xff
gpasm-1.5.0 #1285 (Jan 23 2020) unidds_v1_10.   27.01.2020  22:56:48        PAGE 166


LOC    OBJECT CODE    LINE  SOURCE TEXT
  VALUE

1D8E   3EFF           08734         addlw   0xff
1D8F   3EFF           08735         addlw   0xff
1D90   3EFF           08736         addlw   0xff
1D91   3EFF           08737         addlw   0xff
1D92   3EFF           08738         addlw   0xff
1D93   3EFF           08739         addlw   0xff
1D94   3EFF           08740         addlw   0xff
1D95   3EFF           08741         addlw   0xff
1D96   3EFF           08742         addlw   0xff
1D97   3EFF           08743         addlw   0xff
1D98   3EFF           08744         addlw   0xff
1D99   3EFF           08745         addlw   0xff
1D9A   3EFF           08746         addlw   0xff
1D9B   3EFF           08747         addlw   0xff
1D9C   3EFF           08748         addlw   0xff
1D9D   3EFF           08749         addlw   0xff
1D9E   3EFF           08750         addlw   0xff
1D9F   3EFF           08751         addlw   0xff
1DA0   3EFF           08752         addlw   0xff
1DA1   3EFF           08753         addlw   0xff
1DA2   3EFF           08754         addlw   0xff
1DA3   3EFF           08755         addlw   0xff
1DA4   3EFF           08756         addlw   0xff
1DA5   3EFF           08757         addlw   0xff
1DA6   3EFF           08758         addlw   0xff
1DA7   3EFF           08759         addlw   0xff
1DA8   3EFF           08760         addlw   0xff
1DA9   3EFF           08761         addlw   0xff
1DAA   3EFF           08762         addlw   0xff
1DAB   3EFF           08763         addlw   0xff
1DAC   3EFF           08764         addlw   0xff
1DAD   3EFF           08765         addlw   0xff
1DAE   3EFF           08766         addlw   0xff
1DAF   3EFF           08767         addlw   0xff
1DB0   3EFF           08768         addlw   0xff
1DB1   3EFF           08769         addlw   0xff
1DB2   3EFF           08770         addlw   0xff
1DB3   3EFF           08771         addlw   0xff
1DB4   3EFF           08772         addlw   0xff
1DB5   3EFF           08773         addlw   0xff
1DB6   3EFF           08774         addlw   0xff
1DB7   3EFF           08775         addlw   0xff
1DB8   3EFF           08776         addlw   0xff
1DB9   3EFF           08777         addlw   0xff
1DBA   3EFF           08778         addlw   0xff
1DBB   3EFF           08779         addlw   0xff
1DBC   3EFF           08780         addlw   0xff
1DBD   3EFF           08781         addlw   0xff
1DBE   3EFF           08782         addlw   0xff
1DBF   3EFF           08783         addlw   0xff
1DC0   3EFF           08784         addlw   0xff
1DC1   3EFF           08785         addlw   0xff
1DC2   3EFF           08786         addlw   0xff
gpasm-1.5.0 #1285 (Jan 23 2020) unidds_v1_10.   27.01.2020  22:56:48        PAGE 167


LOC    OBJECT CODE    LINE  SOURCE TEXT
  VALUE

1DC3   3EFF           08787         addlw   0xff
1DC4   3EFF           08788         addlw   0xff
1DC5   3EFF           08789         addlw   0xff
1DC6   3EFF           08790         addlw   0xff
1DC7   3EFF           08791         addlw   0xff
1DC8   3EFF           08792         addlw   0xff
1DC9   3EFF           08793         addlw   0xff
1DCA   3EFF           08794         addlw   0xff
1DCB   3EFF           08795         addlw   0xff
1DCC   3EFF           08796         addlw   0xff
1DCD   3EFF           08797         addlw   0xff
1DCE   3EFF           08798         addlw   0xff
1DCF   3EFF           08799         addlw   0xff
1DD0   3EFF           08800         addlw   0xff
1DD1   3EFF           08801         addlw   0xff
1DD2   3EFF           08802         addlw   0xff
1DD3   3EFF           08803         addlw   0xff
1DD4   3EFF           08804         addlw   0xff
1DD5   3EFF           08805         addlw   0xff
1DD6   3EFF           08806         addlw   0xff
1DD7   3EFF           08807         addlw   0xff
1DD8   3EFF           08808         addlw   0xff
1DD9   3EFF           08809         addlw   0xff
1DDA   3EFF           08810         addlw   0xff
1DDB   3EFF           08811         addlw   0xff
1DDC   3EFF           08812         addlw   0xff
1DDD   3EFF           08813         addlw   0xff
1DDE   3EFF           08814         addlw   0xff
1DDF   3EFF           08815         addlw   0xff
1DE0   3EFF           08816         addlw   0xff
1DE1   3EFF           08817         addlw   0xff
1DE2   3EFF           08818         addlw   0xff
1DE3   3EFF           08819         addlw   0xff
1DE4   3EFF           08820         addlw   0xff
1DE5   3EFF           08821         addlw   0xff
1DE6   3EFF           08822         addlw   0xff
1DE7   3EFF           08823         addlw   0xff
1DE8   3EFF           08824         addlw   0xff
1DE9   3EFF           08825         addlw   0xff
1DEA   3EFF           08826         addlw   0xff
1DEB   3EFF           08827         addlw   0xff
1DEC   3EFF           08828         addlw   0xff
1DED   3EFF           08829         addlw   0xff
1DEE   3EFF           08830         addlw   0xff
1DEF   3EFF           08831         addlw   0xff
1DF0   3EFF           08832         addlw   0xff
1DF1   3EFF           08833         addlw   0xff
1DF2   3EFF           08834         addlw   0xff
1DF3   3EFF           08835         addlw   0xff
1DF4   3EFF           08836         addlw   0xff
1DF5   3EFF           08837         addlw   0xff
1DF6   3EFF           08838         addlw   0xff
1DF7   3EFF           08839         addlw   0xff
gpasm-1.5.0 #1285 (Jan 23 2020) unidds_v1_10.   27.01.2020  22:56:48        PAGE 168


LOC    OBJECT CODE    LINE  SOURCE TEXT
  VALUE

1DF8   3EFF           08840         addlw   0xff
1DF9   3EFF           08841         addlw   0xff
1DFA   3EFF           08842         addlw   0xff
1DFB   3EFF           08843         addlw   0xff
1DFC   3EFF           08844         addlw   0xff
1DFD   3EFF           08845         addlw   0xff
1DFE   3EFF           08846         addlw   0xff
1DFF   3EFF           08847         addlw   0xff
1E00   3EFF           08848         addlw   0xff
1E01   3EFF           08849         addlw   0xff
1E02   3EFF           08850         addlw   0xff
1E03   3EFF           08851         addlw   0xff
1E04   3EFF           08852         addlw   0xff
1E05   3EFF           08853         addlw   0xff
1E06   3EFF           08854         addlw   0xff
1E07   3EFF           08855         addlw   0xff
1E08   3EFF           08856         addlw   0xff
1E09   3EFF           08857         addlw   0xff
1E0A   3EFF           08858         addlw   0xff
1E0B   3EFF           08859         addlw   0xff
1E0C   3EFF           08860         addlw   0xff
1E0D   3EFF           08861         addlw   0xff
1E0E   3EFF           08862         addlw   0xff
1E0F   3EFF           08863         addlw   0xff
1E10   3EFF           08864         addlw   0xff
1E11   3EFF           08865         addlw   0xff
1E12   3EFF           08866         addlw   0xff
1E13   3EFF           08867         addlw   0xff
1E14   3EFF           08868         addlw   0xff
1E15   3EFF           08869         addlw   0xff
1E16   3EFF           08870         addlw   0xff
1E17   3EFF           08871         addlw   0xff
1E18   3EFF           08872         addlw   0xff
1E19   3EFF           08873         addlw   0xff
1E1A   3EFF           08874         addlw   0xff
1E1B   3EFF           08875         addlw   0xff
1E1C   3EFF           08876         addlw   0xff
1E1D   3EFF           08877         addlw   0xff
1E1E   3EFF           08878         addlw   0xff
1E1F   3EFF           08879         addlw   0xff
1E20   3EFF           08880         addlw   0xff
1E21   3EFF           08881         addlw   0xff
1E22   3EFF           08882         addlw   0xff
1E23   3EFF           08883         addlw   0xff
1E24   3EFF           08884         addlw   0xff
1E25   3EFF           08885         addlw   0xff
1E26   3EFF           08886         addlw   0xff
1E27   3EFF           08887         addlw   0xff
1E28   3EFF           08888         addlw   0xff
1E29   3EFF           08889         addlw   0xff
1E2A   3EFF           08890         addlw   0xff
1E2B   3EFF           08891         addlw   0xff
1E2C   3EFF           08892         addlw   0xff
gpasm-1.5.0 #1285 (Jan 23 2020) unidds_v1_10.   27.01.2020  22:56:48        PAGE 169


LOC    OBJECT CODE    LINE  SOURCE TEXT
  VALUE

1E2D   3EFF           08893         addlw   0xff
1E2E   3EFF           08894         addlw   0xff
1E2F   3EFF           08895         addlw   0xff
1E30   3EFF           08896         addlw   0xff
1E31   3EFF           08897         addlw   0xff
1E32   3EFF           08898         addlw   0xff
1E33   3EFF           08899         addlw   0xff
1E34   3EFF           08900         addlw   0xff
1E35   3EFF           08901         addlw   0xff
1E36   3EFF           08902         addlw   0xff
1E37   3EFF           08903         addlw   0xff
1E38   3EFF           08904         addlw   0xff
1E39   3EFF           08905         addlw   0xff
1E3A   3EFF           08906         addlw   0xff
1E3B   3EFF           08907         addlw   0xff
1E3C   3EFF           08908         addlw   0xff
1E3D   3EFF           08909         addlw   0xff
1E3E   3EFF           08910         addlw   0xff
1E3F   3EFF           08911         addlw   0xff
1E40   3EFF           08912         addlw   0xff
1E41   3EFF           08913         addlw   0xff
1E42   3EFF           08914         addlw   0xff
1E43   3EFF           08915         addlw   0xff
1E44   3EFF           08916         addlw   0xff
1E45   3EFF           08917         addlw   0xff
1E46   3EFF           08918         addlw   0xff
1E47   3EFF           08919         addlw   0xff
1E48   3EFF           08920         addlw   0xff
1E49   3EFF           08921         addlw   0xff
1E4A   3EFF           08922         addlw   0xff
1E4B   3EFF           08923         addlw   0xff
1E4C   3EFF           08924         addlw   0xff
1E4D   3EFF           08925         addlw   0xff
1E4E   3EFF           08926         addlw   0xff
1E4F   3EFF           08927         addlw   0xff
1E50   3EFF           08928         addlw   0xff
1E51   3EFF           08929         addlw   0xff
1E52   3EFF           08930         addlw   0xff
1E53   3EFF           08931         addlw   0xff
1E54   3EFF           08932         addlw   0xff
1E55   3EFF           08933         addlw   0xff
1E56   3EFF           08934         addlw   0xff
1E57   3EFF           08935         addlw   0xff
1E58   3EFF           08936         addlw   0xff
1E59   3EFF           08937         addlw   0xff
1E5A   3EFF           08938         addlw   0xff
1E5B   3EFF           08939         addlw   0xff
1E5C   3EFF           08940         addlw   0xff
1E5D   3EFF           08941         addlw   0xff
1E5E   3EFF           08942         addlw   0xff
1E5F   3EFF           08943         addlw   0xff
1E60   3EFF           08944         addlw   0xff
1E61   3EFF           08945         addlw   0xff
gpasm-1.5.0 #1285 (Jan 23 2020) unidds_v1_10.   27.01.2020  22:56:48        PAGE 170


LOC    OBJECT CODE    LINE  SOURCE TEXT
  VALUE

1E62   3EFF           08946         addlw   0xff
1E63   3EFF           08947         addlw   0xff
1E64   3EFF           08948         addlw   0xff
1E65   3EFF           08949         addlw   0xff
1E66   3EFF           08950         addlw   0xff
1E67   3EFF           08951         addlw   0xff
1E68   3EFF           08952         addlw   0xff
1E69   3EFF           08953         addlw   0xff
1E6A   3EFF           08954         addlw   0xff
1E6B   3EFF           08955         addlw   0xff
1E6C   3EFF           08956         addlw   0xff
1E6D   3EFF           08957         addlw   0xff
1E6E   3EFF           08958         addlw   0xff
1E6F   3EFF           08959         addlw   0xff
1E70   3EFF           08960         addlw   0xff
1E71   3EFF           08961         addlw   0xff
1E72   3EFF           08962         addlw   0xff
1E73   3EFF           08963         addlw   0xff
1E74   3EFF           08964         addlw   0xff
1E75   3EFF           08965         addlw   0xff
1E76   3EFF           08966         addlw   0xff
1E77   3EFF           08967         addlw   0xff
1E78   3EFF           08968         addlw   0xff
1E79   3EFF           08969         addlw   0xff
1E7A   3EFF           08970         addlw   0xff
1E7B   3EFF           08971         addlw   0xff
1E7C   3EFF           08972         addlw   0xff
1E7D   3EFF           08973         addlw   0xff
1E7E   3EFF           08974         addlw   0xff
1E7F   3EFF           08975         addlw   0xff
1E80   3EFF           08976         addlw   0xff
1E81   3EFF           08977         addlw   0xff
1E82   3EFF           08978         addlw   0xff
1E83   3EFF           08979         addlw   0xff
1E84   3EFF           08980         addlw   0xff
1E85   3EFF           08981         addlw   0xff
1E86   3EFF           08982         addlw   0xff
1E87   3EFF           08983         addlw   0xff
1E88   3EFF           08984         addlw   0xff
1E89   3EFF           08985         addlw   0xff
1E8A   3EFF           08986         addlw   0xff
1E8B   3EFF           08987         addlw   0xff
1E8C   3EFF           08988         addlw   0xff
1E8D   3EFF           08989         addlw   0xff
1E8E   3EFF           08990         addlw   0xff
1E8F   3EFF           08991         addlw   0xff
1E90   3EFF           08992         addlw   0xff
1E91   3EFF           08993         addlw   0xff
1E92   3EFF           08994         addlw   0xff
1E93   3EFF           08995         addlw   0xff
1E94   3EFF           08996         addlw   0xff
1E95   3EFF           08997         addlw   0xff
1E96   3EFF           08998         addlw   0xff
gpasm-1.5.0 #1285 (Jan 23 2020) unidds_v1_10.   27.01.2020  22:56:48        PAGE 171


LOC    OBJECT CODE    LINE  SOURCE TEXT
  VALUE

1E97   3EFF           08999         addlw   0xff
1E98   3EFF           09000         addlw   0xff
1E99   3EFF           09001         addlw   0xff
1E9A   3EFF           09002         addlw   0xff
1E9B   3EFF           09003         addlw   0xff
1E9C   3EFF           09004         addlw   0xff
1E9D   3EFF           09005         addlw   0xff
1E9E   3EFF           09006         addlw   0xff
1E9F   3EFF           09007         addlw   0xff
1EA0   3EFF           09008         addlw   0xff
1EA1   3EFF           09009         addlw   0xff
1EA2   3EFF           09010         addlw   0xff
1EA3   3EFF           09011         addlw   0xff
1EA4   3EFF           09012         addlw   0xff
1EA5   3EFF           09013         addlw   0xff
1EA6   3EFF           09014         addlw   0xff
1EA7   3EFF           09015         addlw   0xff
1EA8   3EFF           09016         addlw   0xff
1EA9   3EFF           09017         addlw   0xff
1EAA   3EFF           09018         addlw   0xff
1EAB   3EFF           09019         addlw   0xff
1EAC   3EFF           09020         addlw   0xff
1EAD   3EFF           09021         addlw   0xff
1EAE   3EFF           09022         addlw   0xff
1EAF   3EFF           09023         addlw   0xff
1EB0   3EFF           09024         addlw   0xff
1EB1   3EFF           09025         addlw   0xff
1EB2   3EFF           09026         addlw   0xff
1EB3   3EFF           09027         addlw   0xff
1EB4   3EFF           09028         addlw   0xff
1EB5   3EFF           09029         addlw   0xff
1EB6   3EFF           09030         addlw   0xff
1EB7   3EFF           09031         addlw   0xff
1EB8   3EFF           09032         addlw   0xff
1EB9   3EFF           09033         addlw   0xff
1EBA   3EFF           09034         addlw   0xff
1EBB   3EFF           09035         addlw   0xff
1EBC   3EFF           09036         addlw   0xff
1EBD   3EFF           09037         addlw   0xff
1EBE   3EFF           09038         addlw   0xff
1EBF   3EFF           09039         addlw   0xff
1EC0   3EFF           09040         addlw   0xff
1EC1   3EFF           09041         addlw   0xff
1EC2   3EFF           09042         addlw   0xff
1EC3   3EFF           09043         addlw   0xff
1EC4   3EFF           09044         addlw   0xff
1EC5   3EFF           09045         addlw   0xff
1EC6   3EFF           09046         addlw   0xff
1EC7   3EFF           09047         addlw   0xff
1EC8   3EFF           09048         addlw   0xff
1EC9   3EFF           09049         addlw   0xff
1ECA   3EFF           09050         addlw   0xff
1ECB   3EFF           09051         addlw   0xff
gpasm-1.5.0 #1285 (Jan 23 2020) unidds_v1_10.   27.01.2020  22:56:48        PAGE 172


LOC    OBJECT CODE    LINE  SOURCE TEXT
  VALUE

1ECC   3EFF           09052         addlw   0xff
1ECD   3EFF           09053         addlw   0xff
1ECE   3EFF           09054         addlw   0xff
1ECF   3EFF           09055         addlw   0xff
1ED0   3EFF           09056         addlw   0xff
1ED1   3EFF           09057         addlw   0xff
1ED2   3EFF           09058         addlw   0xff
1ED3   3EFF           09059         addlw   0xff
1ED4   3EFF           09060         addlw   0xff
1ED5   3EFF           09061         addlw   0xff
1ED6   3EFF           09062         addlw   0xff
1ED7   3EFF           09063         addlw   0xff
1ED8   3EFF           09064         addlw   0xff
1ED9   3EFF           09065         addlw   0xff
1EDA   3EFF           09066         addlw   0xff
1EDB   3EFF           09067         addlw   0xff
1EDC   3EFF           09068         addlw   0xff
1EDD   3EFF           09069         addlw   0xff
1EDE   3EFF           09070         addlw   0xff
1EDF   3EFF           09071         addlw   0xff
1EE0   3EFF           09072         addlw   0xff
1EE1   3EFF           09073         addlw   0xff
1EE2   3EFF           09074         addlw   0xff
1EE3   3EFF           09075         addlw   0xff
1EE4   3EFF           09076         addlw   0xff
1EE5   3EFF           09077         addlw   0xff
1EE6   3EFF           09078         addlw   0xff
1EE7   3EFF           09079         addlw   0xff
1EE8   3EFF           09080         addlw   0xff
1EE9   3EFF           09081         addlw   0xff
1EEA   3EFF           09082         addlw   0xff
1EEB   3EFF           09083         addlw   0xff
1EEC   3EFF           09084         addlw   0xff
1EED   3EFF           09085         addlw   0xff
1EEE   3EFF           09086         addlw   0xff
1EEF   3EFF           09087         addlw   0xff
1EF0   3EFF           09088         addlw   0xff
1EF1   3EFF           09089         addlw   0xff
1EF2   3EFF           09090         addlw   0xff
1EF3   3EFF           09091         addlw   0xff
1EF4   3EFF           09092         addlw   0xff
1EF5   3EFF           09093         addlw   0xff
1EF6   3EFF           09094         addlw   0xff
1EF7   3EFF           09095         addlw   0xff
1EF8   3EFF           09096         addlw   0xff
1EF9   3EFF           09097         addlw   0xff
1EFA   3EFF           09098         addlw   0xff
1EFB   3EFF           09099         addlw   0xff
1EFC   3EFF           09100         addlw   0xff
1EFD   3EFF           09101         addlw   0xff
1EFE   3EFF           09102         addlw   0xff
1EFF   3EFF           09103         addlw   0xff
1F00   3EFF           09104         addlw   0xff
gpasm-1.5.0 #1285 (Jan 23 2020) unidds_v1_10.   27.01.2020  22:56:48        PAGE 173


LOC    OBJECT CODE    LINE  SOURCE TEXT
  VALUE

1F01   3EFF           09105         addlw   0xff
1F02   3EFF           09106         addlw   0xff
1F03   3EFF           09107         addlw   0xff
1F04   3EFF           09108         addlw   0xff
1F05   3EFF           09109         addlw   0xff
1F06   3EFF           09110         addlw   0xff
1F07   3EFF           09111         addlw   0xff
1F08   3EFF           09112         addlw   0xff
1F09   3EFF           09113         addlw   0xff
1F0A   3EFF           09114         addlw   0xff
1F0B   3EFF           09115         addlw   0xff
1F0C   3EFF           09116         addlw   0xff
1F0D   3EFF           09117         addlw   0xff
1F0E   3EFF           09118         addlw   0xff
1F0F   3EFF           09119         addlw   0xff
1F10   3EFF           09120         addlw   0xff
1F11   3EFF           09121         addlw   0xff
1F12   3EFF           09122         addlw   0xff
1F13   3EFF           09123         addlw   0xff
1F14   3EFF           09124         addlw   0xff
1F15   3EFF           09125         addlw   0xff
1F16   3EFF           09126         addlw   0xff
1F17   3EFF           09127         addlw   0xff
1F18   3EFF           09128         addlw   0xff
1F19   3EFF           09129         addlw   0xff
1F1A   3EFF           09130         addlw   0xff
1F1B   3EFF           09131         addlw   0xff
1F1C   3EFF           09132         addlw   0xff
1F1D   3EFF           09133         addlw   0xff
1F1E   3EFF           09134         addlw   0xff
1F1F   3EFF           09135         addlw   0xff
1F20   3EFF           09136         addlw   0xff
1F21   3EFF           09137         addlw   0xff
1F22   3EFF           09138         addlw   0xff
1F23   3EFF           09139         addlw   0xff
1F24   3EFF           09140         addlw   0xff
1F25   3EFF           09141         addlw   0xff
1F26   3EFF           09142         addlw   0xff
1F27   3EFF           09143         addlw   0xff
1F28   3EFF           09144         addlw   0xff
1F29   3EFF           09145         addlw   0xff
1F2A   3EFF           09146         addlw   0xff
1F2B   3EFF           09147         addlw   0xff
1F2C   3EFF           09148         addlw   0xff
1F2D   3EFF           09149         addlw   0xff
1F2E   3EFF           09150         addlw   0xff
1F2F   3EFF           09151         addlw   0xff
1F30   3EFF           09152         addlw   0xff
1F31   3EFF           09153         addlw   0xff
1F32   3EFF           09154         addlw   0xff
1F33   3EFF           09155         addlw   0xff
1F34   3EFF           09156         addlw   0xff
1F35   3EFF           09157         addlw   0xff
gpasm-1.5.0 #1285 (Jan 23 2020) unidds_v1_10.   27.01.2020  22:56:48        PAGE 174


LOC    OBJECT CODE    LINE  SOURCE TEXT
  VALUE

1F36   3EFF           09158         addlw   0xff
1F37   3EFF           09159         addlw   0xff
1F38   3EFF           09160         addlw   0xff
1F39   3EFF           09161         addlw   0xff
1F3A   3EFF           09162         addlw   0xff
1F3B   3EFF           09163         addlw   0xff
1F3C   3EFF           09164         addlw   0xff
1F3D   3EFF           09165         addlw   0xff
1F3E   3EFF           09166         addlw   0xff
1F3F   3EFF           09167         addlw   0xff
1F40   3EFF           09168         addlw   0xff
1F41   3EFF           09169         addlw   0xff
1F42   3EFF           09170         addlw   0xff
1F43   3EFF           09171         addlw   0xff
1F44   3EFF           09172         addlw   0xff
1F45   3EFF           09173         addlw   0xff
1F46   3EFF           09174         addlw   0xff
1F47   3EFF           09175         addlw   0xff
1F48   3EFF           09176         addlw   0xff
1F49   3EFF           09177         addlw   0xff
1F4A   3EFF           09178         addlw   0xff
1F4B   3EFF           09179         addlw   0xff
1F4C   3EFF           09180         addlw   0xff
1F4D   3EFF           09181         addlw   0xff
1F4E   3EFF           09182         addlw   0xff
1F4F   3EFF           09183         addlw   0xff
1F50   3EFF           09184         addlw   0xff
1F51   3EFF           09185         addlw   0xff
1F52   3EFF           09186         addlw   0xff
1F53   3EFF           09187         addlw   0xff
1F54   3EFF           09188         addlw   0xff
1F55   3EFF           09189         addlw   0xff
1F56   3EFF           09190         addlw   0xff
1F57   3EFF           09191         addlw   0xff
1F58   3EFF           09192         addlw   0xff
1F59   3EFF           09193         addlw   0xff
1F5A   3EFF           09194         addlw   0xff
1F5B   3EFF           09195         addlw   0xff
1F5C   3EFF           09196         addlw   0xff
1F5D   3EFF           09197         addlw   0xff
1F5E   3EFF           09198         addlw   0xff
1F5F   3EFF           09199         addlw   0xff
1F60   3EFF           09200         addlw   0xff
1F61   3EFF           09201         addlw   0xff
1F62   3EFF           09202         addlw   0xff
1F63   3EFF           09203         addlw   0xff
1F64   3EFF           09204         addlw   0xff
1F65   3EFF           09205         addlw   0xff
1F66   3EFF           09206         addlw   0xff
1F67   3EFF           09207         addlw   0xff
1F68   3EFF           09208         addlw   0xff
1F69   3EFF           09209         addlw   0xff
1F6A   3EFF           09210         addlw   0xff
gpasm-1.5.0 #1285 (Jan 23 2020) unidds_v1_10.   27.01.2020  22:56:48        PAGE 175


LOC    OBJECT CODE    LINE  SOURCE TEXT
  VALUE

1F6B   3EFF           09211         addlw   0xff
1F6C   3EFF           09212         addlw   0xff
1F6D   3EFF           09213         addlw   0xff
1F6E   3EFF           09214         addlw   0xff
1F6F   3EFF           09215         addlw   0xff
1F70   3EFF           09216         addlw   0xff
1F71   3EFF           09217         addlw   0xff
1F72   3EFF           09218         addlw   0xff
1F73   3EFF           09219         addlw   0xff
1F74   3EFF           09220         addlw   0xff
1F75   3EFF           09221         addlw   0xff
1F76   3EFF           09222         addlw   0xff
1F77   3EFF           09223         addlw   0xff
1F78   3EFF           09224         addlw   0xff
1F79   3EFF           09225         addlw   0xff
1F7A   3EFF           09226         addlw   0xff
1F7B   3EFF           09227         addlw   0xff
1F7C   3EFF           09228         addlw   0xff
1F7D   3EFF           09229         addlw   0xff
1F7E   3EFF           09230         addlw   0xff
1F7F   3EFF           09231         addlw   0xff
1F80   3EFF           09232         addlw   0xff
1F81   3EFF           09233         addlw   0xff
1F82   3EFF           09234         addlw   0xff
1F83   3EFF           09235         addlw   0xff
1F84   3EFF           09236         addlw   0xff
1F85   3EFF           09237         addlw   0xff
1F86   3EFF           09238         addlw   0xff
1F87   3EFF           09239         addlw   0xff
1F88   3EFF           09240         addlw   0xff
1F89   3EFF           09241         addlw   0xff
1F8A   3EFF           09242         addlw   0xff
1F8B   3EFF           09243         addlw   0xff
1F8C   3EFF           09244         addlw   0xff
1F8D   3EFF           09245         addlw   0xff
1F8E   3EFF           09246         addlw   0xff
1F8F   3EFF           09247         addlw   0xff
1F90   3EFF           09248         addlw   0xff
1F91   3EFF           09249         addlw   0xff
1F92   3EFF           09250         addlw   0xff
1F93   3EFF           09251         addlw   0xff
1F94   3EFF           09252         addlw   0xff
1F95   3EFF           09253         addlw   0xff
1F96   3EFF           09254         addlw   0xff
1F97   3EFF           09255         addlw   0xff
1F98   3EFF           09256         addlw   0xff
1F99   3EFF           09257         addlw   0xff
1F9A   3EFF           09258         addlw   0xff
1F9B   3EFF           09259         addlw   0xff
1F9C   3EFF           09260         addlw   0xff
1F9D   3EFF           09261         addlw   0xff
1F9E   3EFF           09262         addlw   0xff
1F9F   3EFF           09263         addlw   0xff
gpasm-1.5.0 #1285 (Jan 23 2020) unidds_v1_10.   27.01.2020  22:56:48        PAGE 176


LOC    OBJECT CODE    LINE  SOURCE TEXT
  VALUE

1FA0   3EFF           09264         addlw   0xff
1FA1   3EFF           09265         addlw   0xff
1FA2   3EFF           09266         addlw   0xff
1FA3   3EFF           09267         addlw   0xff
1FA4   3EFF           09268         addlw   0xff
1FA5   3EFF           09269         addlw   0xff
1FA6   3EFF           09270         addlw   0xff
1FA7   3EFF           09271         addlw   0xff
1FA8   3EFF           09272         addlw   0xff
1FA9   3EFF           09273         addlw   0xff
1FAA   3EFF           09274         addlw   0xff
1FAB   3EFF           09275         addlw   0xff
1FAC   3EFF           09276         addlw   0xff
1FAD   3EFF           09277         addlw   0xff
1FAE   3EFF           09278         addlw   0xff
1FAF   3EFF           09279         addlw   0xff
1FB0   3EFF           09280         addlw   0xff
1FB1   3EFF           09281         addlw   0xff
1FB2   3EFF           09282         addlw   0xff
1FB3   3EFF           09283         addlw   0xff
1FB4   3EFF           09284         addlw   0xff
1FB5   3EFF           09285         addlw   0xff
1FB6   3EFF           09286         addlw   0xff
1FB7   3EFF           09287         addlw   0xff
1FB8   3EFF           09288         addlw   0xff
1FB9   3EFF           09289         addlw   0xff
1FBA   3EFF           09290         addlw   0xff
1FBB   3EFF           09291         addlw   0xff
1FBC   3EFF           09292         addlw   0xff
1FBD   3EFF           09293         addlw   0xff
1FBE   3EFF           09294         addlw   0xff
1FBF   3EFF           09295         addlw   0xff
1FC0   3EFF           09296         addlw   0xff
1FC1   3EFF           09297         addlw   0xff
1FC2   3EFF           09298         addlw   0xff
1FC3   3EFF           09299         addlw   0xff
1FC4   3EFF           09300         addlw   0xff
1FC5   3EFF           09301         addlw   0xff
1FC6   3EFF           09302         addlw   0xff
1FC7   3EFF           09303         addlw   0xff
1FC8   3EFF           09304         addlw   0xff
1FC9   3EFF           09305         addlw   0xff
1FCA   3EFF           09306         addlw   0xff
1FCB   3EFF           09307         addlw   0xff
1FCC   3EFF           09308         addlw   0xff
1FCD   3EFF           09309         addlw   0xff
1FCE   3EFF           09310         addlw   0xff
1FCF   3EFF           09311         addlw   0xff
1FD0   3EFF           09312         addlw   0xff
1FD1   3EFF           09313         addlw   0xff
1FD2   3EFF           09314         addlw   0xff
1FD3   3EFF           09315         addlw   0xff
1FD4   3EFF           09316         addlw   0xff
gpasm-1.5.0 #1285 (Jan 23 2020) unidds_v1_10.   27.01.2020  22:56:48        PAGE 177


LOC    OBJECT CODE    LINE  SOURCE TEXT
  VALUE

1FD5   3EFF           09317         addlw   0xff
1FD6   3EFF           09318         addlw   0xff
1FD7   3EFF           09319         addlw   0xff
1FD8   3EFF           09320         addlw   0xff
1FD9   3EFF           09321         addlw   0xff
1FDA   3EFF           09322         addlw   0xff
1FDB   3EFF           09323         addlw   0xff
1FDC   3EFF           09324         addlw   0xff
1FDD   3EFF           09325         addlw   0xff
1FDE   3EFF           09326         addlw   0xff
1FDF   3EFF           09327         addlw   0xff
1FE0   3EFF           09328         addlw   0xff
1FE1   3EFF           09329         addlw   0xff
1FE2   3EFF           09330         addlw   0xff
1FE3   3EFF           09331         addlw   0xff
1FE4   3EFF           09332         addlw   0xff
1FE5   3EFF           09333         addlw   0xff
1FE6   3EFF           09334         addlw   0xff
1FE7   3EFF           09335         addlw   0xff
1FE8   3EFF           09336         addlw   0xff
1FE9   3EFF           09337         addlw   0xff
1FEA   3EFF           09338         addlw   0xff
1FEB   3EFF           09339         addlw   0xff
1FEC   3EFF           09340         addlw   0xff
1FED   3EFF           09341         addlw   0xff
1FEE   3EFF           09342         addlw   0xff
1FEF   3EFF           09343         addlw   0xff
1FF0   3EFF           09344         addlw   0xff
1FF1   3EFF           09345         addlw   0xff
1FF2   3EFF           09346         addlw   0xff
1FF3   3EFF           09347         addlw   0xff
1FF4   3EFF           09348         addlw   0xff
1FF5   3EFF           09349         addlw   0xff
1FF6   3EFF           09350         addlw   0xff
1FF7   3EFF           09351         addlw   0xff
1FF8   3EFF           09352         addlw   0xff
1FF9   3EFF           09353         addlw   0xff
1FFA   3EFF           09354         addlw   0xff
1FFB   3EFF           09355         addlw   0xff
1FFC   3EFF           09356         addlw   0xff
1FFD   3EFF           09357         addlw   0xff
1FFE   3EFF           09358         addlw   0xff
1FFF   3EFF           09359         addlw   0xff
                      09360 
                      09361 ;===============================================================================
                      09362 ; EEDATA area
                      09363 
                      09364         ; eeprom
                      09365 
2100                  09366         org     __EEPROM_START                              ; address: 0x2100
                      09367 
2100   FF             09368         db      0xff
2100   00             09369         db      0x00
gpasm-1.5.0 #1285 (Jan 23 2020) unidds_v1_10.   27.01.2020  22:56:48        PAGE 178


LOC    OBJECT CODE    LINE  SOURCE TEXT
  VALUE

2101   FF             09370         db      0xff
2101   00             09371         db      0x00
2102   FF             09372         db      0xff
2102   00             09373         db      0x00
2103   FF             09374         db      0xff
2103   00             09375         db      0x00
2104   FF             09376         db      0xff
2104   00             09377         db      0x00
2105   FF             09378         db      0xff
2105   00             09379         db      0x00
2106   FF             09380         db      0xff
2106   00             09381         db      0x00
2107   FF             09382         db      0xff
2107   00             09383         db      0x00
2108   FF             09384         db      0xff
2108   00             09385         db      0x00
2109   FF             09386         db      0xff
2109   00             09387         db      0x00
210A   FF             09388         db      0xff
210A   00             09389         db      0x00
210B   FF             09390         db      0xff
210B   00             09391         db      0x00
210C   FF             09392         db      0xff
210C   00             09393         db      0x00
210D   FF             09394         db      0xff
210D   00             09395         db      0x00
210E   FF             09396         db      0xff
210E   00             09397         db      0x00
210F   FF             09398         db      0xff
210F   00             09399         db      0x00
2110   FF             09400         db      0xff
2110   00             09401         db      0x00
2111   FF             09402         db      0xff
2111   00             09403         db      0x00
2112   FF             09404         db      0xff
2112   00             09405         db      0x00
2113   FF             09406         db      0xff
2113   00             09407         db      0x00
2114   FF             09408         db      0xff
2114   00             09409         db      0x00
2115   FF             09410         db      0xff
2115   00             09411         db      0x00
2116   FF             09412         db      0xff
2116   00             09413         db      0x00
2117   FF             09414         db      0xff
2117   00             09415         db      0x00
2118   FF             09416         db      0xff
2118   00             09417         db      0x00
2119   FF             09418         db      0xff
2119   00             09419         db      0x00
211A   FF             09420         db      0xff
211A   00             09421         db      0x00
211B   FF             09422         db      0xff
gpasm-1.5.0 #1285 (Jan 23 2020) unidds_v1_10.   27.01.2020  22:56:48        PAGE 179


LOC    OBJECT CODE    LINE  SOURCE TEXT
  VALUE

211B   00             09423         db      0x00
211C   FF             09424         db      0xff
211C   00             09425         db      0x00
211D   FF             09426         db      0xff
211D   00             09427         db      0x00
211E   FF             09428         db      0xff
211E   00             09429         db      0x00
211F   FF             09430         db      0xff
211F   00             09431         db      0x00
2120   FF             09432         db      0xff
2120   00             09433         db      0x00
2121   FF             09434         db      0xff
2121   00             09435         db      0x00
2122   FF             09436         db      0xff
2122   00             09437         db      0x00
2123   FF             09438         db      0xff
2123   00             09439         db      0x00
2124   FF             09440         db      0xff
2124   00             09441         db      0x00
2125   FF             09442         db      0xff
2125   00             09443         db      0x00
2126   FF             09444         db      0xff
2126   00             09445         db      0x00
2127   FF             09446         db      0xff
2127   00             09447         db      0x00
2128   FF             09448         db      0xff
2128   00             09449         db      0x00
2129   FF             09450         db      0xff
2129   00             09451         db      0x00
212A   FF             09452         db      0xff
212A   00             09453         db      0x00
212B   FF             09454         db      0xff
212B   00             09455         db      0x00
212C   FF             09456         db      0xff
212C   00             09457         db      0x00
212D   FF             09458         db      0xff
212D   00             09459         db      0x00
212E   FF             09460         db      0xff
212E   00             09461         db      0x00
212F   FF             09462         db      0xff
212F   00             09463         db      0x00
2130   FF             09464         db      0xff
2130   00             09465         db      0x00
2131   FF             09466         db      0xff
2131   00             09467         db      0x00
2132   FF             09468         db      0xff
2132   00             09469         db      0x00
2133   FF             09470         db      0xff
2133   00             09471         db      0x00
2134   FF             09472         db      0xff
2134   00             09473         db      0x00
2135   FF             09474         db      0xff
2135   00             09475         db      0x00
gpasm-1.5.0 #1285 (Jan 23 2020) unidds_v1_10.   27.01.2020  22:56:48        PAGE 180


LOC    OBJECT CODE    LINE  SOURCE TEXT
  VALUE

2136   FF             09476         db      0xff
2136   00             09477         db      0x00
2137   FF             09478         db      0xff
2137   00             09479         db      0x00
2138   FF             09480         db      0xff
2138   00             09481         db      0x00
2139   FF             09482         db      0xff
2139   00             09483         db      0x00
213A   FF             09484         db      0xff
213A   00             09485         db      0x00
213B   FF             09486         db      0xff
213B   00             09487         db      0x00
213C   FF             09488         db      0xff
213C   00             09489         db      0x00
213D   FF             09490         db      0xff
213D   00             09491         db      0x00
213E   FF             09492         db      0xff
213E   00             09493         db      0x00
213F   FF             09494         db      0xff
213F   00             09495         db      0x00
2140   FF             09496         db      0xff
2140   00             09497         db      0x00
2141   FF             09498         db      0xff
2141   00             09499         db      0x00
2142   FF             09500         db      0xff
2142   00             09501         db      0x00
2143   FF             09502         db      0xff
2143   00             09503         db      0x00
2144   FF             09504         db      0xff
2144   00             09505         db      0x00
2145   FF             09506         db      0xff
2145   00             09507         db      0x00
2146   FF             09508         db      0xff
2146   00             09509         db      0x00
2147   FF             09510         db      0xff
2147   00             09511         db      0x00
2148   FF             09512         db      0xff
2148   00             09513         db      0x00
2149   FF             09514         db      0xff
2149   00             09515         db      0x00
214A   FF             09516         db      0xff
214A   00             09517         db      0x00
214B   FF             09518         db      0xff
214B   00             09519         db      0x00
214C   FF             09520         db      0xff
214C   00             09521         db      0x00
214D   FF             09522         db      0xff
214D   00             09523         db      0x00
214E   FF             09524         db      0xff
214E   00             09525         db      0x00
214F   FF             09526         db      0xff
214F   00             09527         db      0x00
2150   FF             09528         db      0xff
gpasm-1.5.0 #1285 (Jan 23 2020) unidds_v1_10.   27.01.2020  22:56:48        PAGE 181


LOC    OBJECT CODE    LINE  SOURCE TEXT
  VALUE

2150   00             09529         db      0x00
2151   FF             09530         db      0xff
2151   00             09531         db      0x00
2152   FF             09532         db      0xff
2152   00             09533         db      0x00
2153   FF             09534         db      0xff
2153   00             09535         db      0x00
2154   FF             09536         db      0xff
2154   00             09537         db      0x00
2155   FF             09538         db      0xff
2155   00             09539         db      0x00
2156   FF             09540         db      0xff
2156   00             09541         db      0x00
2157   FF             09542         db      0xff
2157   00             09543         db      0x00
2158   FF             09544         db      0xff
2158   00             09545         db      0x00
2159   FF             09546         db      0xff
2159   00             09547         db      0x00
215A   FF             09548         db      0xff
215A   00             09549         db      0x00
215B   FF             09550         db      0xff
215B   00             09551         db      0x00
215C   FF             09552         db      0xff
215C   00             09553         db      0x00
215D   FF             09554         db      0xff
215D   00             09555         db      0x00
215E   FF             09556         db      0xff
215E   00             09557         db      0x00
215F   FF             09558         db      0xff
215F   00             09559         db      0x00
2160   FF             09560         db      0xff
2160   00             09561         db      0x00
2161   FF             09562         db      0xff
2161   00             09563         db      0x00
2162   FF             09564         db      0xff
2162   00             09565         db      0x00
2163   FF             09566         db      0xff
2163   00             09567         db      0x00
2164   FF             09568         db      0xff
2164   00             09569         db      0x00
2165   FF             09570         db      0xff
2165   00             09571         db      0x00
2166   FF             09572         db      0xff
2166   00             09573         db      0x00
2167   FF             09574         db      0xff
2167   00             09575         db      0x00
2168   FF             09576         db      0xff
2168   00             09577         db      0x00
2169   FF             09578         db      0xff
2169   00             09579         db      0x00
216A   FF             09580         db      0xff
216A   00             09581         db      0x00
gpasm-1.5.0 #1285 (Jan 23 2020) unidds_v1_10.   27.01.2020  22:56:48        PAGE 182


LOC    OBJECT CODE    LINE  SOURCE TEXT
  VALUE

216B   FF             09582         db      0xff
216B   00             09583         db      0x00
216C   FF             09584         db      0xff
216C   00             09585         db      0x00
216D   FF             09586         db      0xff
216D   00             09587         db      0x00
216E   FF             09588         db      0xff
216E   00             09589         db      0x00
216F   FF             09590         db      0xff
216F   00             09591         db      0x00
2170   FF             09592         db      0xff
2170   00             09593         db      0x00
2171   FF             09594         db      0xff
2171   00             09595         db      0x00
2172   FF             09596         db      0xff
2172   00             09597         db      0x00
2173   FF             09598         db      0xff
2173   00             09599         db      0x00
2174   FF             09600         db      0xff
2174   00             09601         db      0x00
2175   FF             09602         db      0xff
2175   00             09603         db      0x00
2176   FF             09604         db      0xff
2176   00             09605         db      0x00
2177   FF             09606         db      0xff
2177   00             09607         db      0x00
2178   FF             09608         db      0xff
2178   00             09609         db      0x00
2179   FF             09610         db      0xff
2179   00             09611         db      0x00
217A   FF             09612         db      0xff
217A   00             09613         db      0x00
217B   FF             09614         db      0xff
217B   00             09615         db      0x00
217C   FF             09616         db      0xff
217C   00             09617         db      0x00
217D   FF             09618         db      0xff
217D   00             09619         db      0x00
217E   FF             09620         db      0xff
217E   00             09621         db      0x00
217F   FF             09622         db      0xff
217F   00             09623         db      0x00
2180   FF             09624         db      0xff
2180   00             09625         db      0x00
2181   FF             09626         db      0xff
2181   00             09627         db      0x00
2182   FF             09628         db      0xff
2182   00             09629         db      0x00
2183   FF             09630         db      0xff
2183   00             09631         db      0x00
2184   FF             09632         db      0xff
2184   00             09633         db      0x00
2185   FF             09634         db      0xff
gpasm-1.5.0 #1285 (Jan 23 2020) unidds_v1_10.   27.01.2020  22:56:48        PAGE 183


LOC    OBJECT CODE    LINE  SOURCE TEXT
  VALUE

2185   00             09635         db      0x00
2186   FF             09636         db      0xff
2186   00             09637         db      0x00
2187   FF             09638         db      0xff
2187   00             09639         db      0x00
2188   FF             09640         db      0xff
2188   00             09641         db      0x00
2189   FF             09642         db      0xff
2189   00             09643         db      0x00
218A   FF             09644         db      0xff
218A   00             09645         db      0x00
218B   FF             09646         db      0xff
218B   00             09647         db      0x00
218C   FF             09648         db      0xff
218C   00             09649         db      0x00
218D   FF             09650         db      0xff
218D   00             09651         db      0x00
218E   FF             09652         db      0xff
218E   00             09653         db      0x00
218F   FF             09654         db      0xff
218F   00             09655         db      0x00
2190   FF             09656         db      0xff
2190   00             09657         db      0x00
2191   FF             09658         db      0xff
2191   00             09659         db      0x00
2192   FF             09660         db      0xff
2192   00             09661         db      0x00
2193   FF             09662         db      0xff
2193   00             09663         db      0x00
2194   FF             09664         db      0xff
2194   00             09665         db      0x00
2195   FF             09666         db      0xff
2195   00             09667         db      0x00
2196   FF             09668         db      0xff
2196   00             09669         db      0x00
2197   FF             09670         db      0xff
2197   00             09671         db      0x00
2198   FF             09672         db      0xff
2198   00             09673         db      0x00
2199   FF             09674         db      0xff
2199   00             09675         db      0x00
219A   FF             09676         db      0xff
219A   00             09677         db      0x00
219B   FF             09678         db      0xff
219B   00             09679         db      0x00
219C   FF             09680         db      0xff
219C   00             09681         db      0x00
219D   FF             09682         db      0xff
219D   00             09683         db      0x00
219E   FF             09684         db      0xff
219E   00             09685         db      0x00
219F   FF             09686         db      0xff
219F   00             09687         db      0x00
gpasm-1.5.0 #1285 (Jan 23 2020) unidds_v1_10.   27.01.2020  22:56:48        PAGE 184


LOC    OBJECT CODE    LINE  SOURCE TEXT
  VALUE

21A0   FF             09688         db      0xff
21A0   00             09689         db      0x00
21A1   FF             09690         db      0xff
21A1   00             09691         db      0x00
21A2   FF             09692         db      0xff
21A2   00             09693         db      0x00
21A3   FF             09694         db      0xff
21A3   00             09695         db      0x00
21A4   FF             09696         db      0xff
21A4   00             09697         db      0x00
21A5   FF             09698         db      0xff
21A5   00             09699         db      0x00
21A6   FF             09700         db      0xff
21A6   00             09701         db      0x00
21A7   FF             09702         db      0xff
21A7   00             09703         db      0x00
21A8   FF             09704         db      0xff
21A8   00             09705         db      0x00
21A9   FF             09706         db      0xff
21A9   00             09707         db      0x00
21AA   FF             09708         db      0xff
21AA   00             09709         db      0x00
21AB   FF             09710         db      0xff
21AB   00             09711         db      0x00
21AC   FF             09712         db      0xff
21AC   00             09713         db      0x00
21AD   FF             09714         db      0xff
21AD   00             09715         db      0x00
21AE   FF             09716         db      0xff
21AE   00             09717         db      0x00
21AF   FF             09718         db      0xff
21AF   00             09719         db      0x00
21B0   FF             09720         db      0xff
21B0   00             09721         db      0x00
21B1   FF             09722         db      0xff
21B1   00             09723         db      0x00
21B2   FF             09724         db      0xff
21B2   00             09725         db      0x00
21B3   FF             09726         db      0xff
21B3   00             09727         db      0x00
21B4   FF             09728         db      0xff
21B4   00             09729         db      0x00
21B5   FF             09730         db      0xff
21B5   00             09731         db      0x00
21B6   FF             09732         db      0xff
21B6   00             09733         db      0x00
21B7   FF             09734         db      0xff
21B7   00             09735         db      0x00
21B8   FF             09736         db      0xff
21B8   00             09737         db      0x00
21B9   FF             09738         db      0xff
21B9   00             09739         db      0x00
21BA   FF             09740         db      0xff
gpasm-1.5.0 #1285 (Jan 23 2020) unidds_v1_10.   27.01.2020  22:56:48        PAGE 185


LOC    OBJECT CODE    LINE  SOURCE TEXT
  VALUE

21BA   00             09741         db      0x00
21BB   FF             09742         db      0xff
21BB   00             09743         db      0x00
21BC   FF             09744         db      0xff
21BC   00             09745         db      0x00
21BD   FF             09746         db      0xff
21BD   00             09747         db      0x00
21BE   FF             09748         db      0xff
21BE   00             09749         db      0x00
21BF   FF             09750         db      0xff
21BF   00             09751         db      0x00
21C0   FF             09752         db      0xff
21C0   00             09753         db      0x00
21C1   FF             09754         db      0xff
21C1   00             09755         db      0x00
21C2   FF             09756         db      0xff
21C2   00             09757         db      0x00
21C3   FF             09758         db      0xff
21C3   00             09759         db      0x00
21C4   FF             09760         db      0xff
21C4   00             09761         db      0x00
21C5   FF             09762         db      0xff
21C5   00             09763         db      0x00
21C6   FF             09764         db      0xff
21C6   00             09765         db      0x00
21C7   FF             09766         db      0xff
21C7   00             09767         db      0x00
21C8   FF             09768         db      0xff
21C8   00             09769         db      0x00
21C9   FF             09770         db      0xff
21C9   00             09771         db      0x00
21CA   FF             09772         db      0xff
21CA   00             09773         db      0x00
21CB   FF             09774         db      0xff
21CB   00             09775         db      0x00
21CC   FF             09776         db      0xff
21CC   00             09777         db      0x00
21CD   FF             09778         db      0xff
21CD   00             09779         db      0x00
21CE   FF             09780         db      0xff
21CE   00             09781         db      0x00
21CF   FF             09782         db      0xff
21CF   00             09783         db      0x00
21D0   FF             09784         db      0xff
21D0   00             09785         db      0x00
21D1   FF             09786         db      0xff
21D1   00             09787         db      0x00
21D2   FF             09788         db      0xff
21D2   00             09789         db      0x00
21D3   FF             09790         db      0xff
21D3   00             09791         db      0x00
21D4   FF             09792         db      0xff
21D4   00             09793         db      0x00
gpasm-1.5.0 #1285 (Jan 23 2020) unidds_v1_10.   27.01.2020  22:56:48        PAGE 186


LOC    OBJECT CODE    LINE  SOURCE TEXT
  VALUE

21D5   FF             09794         db      0xff
21D5   00             09795         db      0x00
21D6   FF             09796         db      0xff
21D6   00             09797         db      0x00
21D7   FF             09798         db      0xff
21D7   00             09799         db      0x00
21D8   FF             09800         db      0xff
21D8   00             09801         db      0x00
21D9   FF             09802         db      0xff
21D9   00             09803         db      0x00
21DA   FF             09804         db      0xff
21DA   00             09805         db      0x00
21DB   FF             09806         db      0xff
21DB   00             09807         db      0x00
21DC   FF             09808         db      0xff
21DC   00             09809         db      0x00
21DD   FF             09810         db      0xff
21DD   00             09811         db      0x00
21DE   FF             09812         db      0xff
21DE   00             09813         db      0x00
21DF   FF             09814         db      0xff
21DF   00             09815         db      0x00
21E0   FF             09816         db      0xff
21E0   00             09817         db      0x00
21E1   FF             09818         db      0xff
21E1   00             09819         db      0x00
21E2   FF             09820         db      0xff
21E2   00             09821         db      0x00
21E3   FF             09822         db      0xff
21E3   00             09823         db      0x00
21E4   FF             09824         db      0xff
21E4   00             09825         db      0x00
21E5   FF             09826         db      0xff
21E5   00             09827         db      0x00
21E6   FF             09828         db      0xff
21E6   00             09829         db      0x00
21E7   FF             09830         db      0xff
21E7   00             09831         db      0x00
21E8   FF             09832         db      0xff
21E8   00             09833         db      0x00
21E9   FF             09834         db      0xff
21E9   00             09835         db      0x00
21EA   FF             09836         db      0xff
21EA   00             09837         db      0x00
21EB   FF             09838         db      0xff
21EB   00             09839         db      0x00
21EC   FF             09840         db      0xff
21EC   00             09841         db      0x00
21ED   FF             09842         db      0xff
21ED   00             09843         db      0x00
21EE   FF             09844         db      0xff
21EE   00             09845         db      0x00
21EF   FF             09846         db      0xff
gpasm-1.5.0 #1285 (Jan 23 2020) unidds_v1_10.   27.01.2020  22:56:48        PAGE 187


LOC    OBJECT CODE    LINE  SOURCE TEXT
  VALUE

21EF   00             09847         db      0x00
21F0   FF             09848         db      0xff
21F0   00             09849         db      0x00
21F1   FF             09850         db      0xff
21F1   00             09851         db      0x00
21F2   FF             09852         db      0xff
21F2   00             09853         db      0x00
21F3   FF             09854         db      0xff
21F3   00             09855         db      0x00
21F4   FF             09856         db      0xff
21F4   00             09857         db      0x00
21F5   FF             09858         db      0xff
21F5   00             09859         db      0x00
21F6   FF             09860         db      0xff
21F6   00             09861         db      0x00
21F7   FF             09862         db      0xff
21F7   00             09863         db      0x00
21F8   FF             09864         db      0xff
21F8   00             09865         db      0x00
21F9   FF             09866         db      0xff
21F9   00             09867         db      0x00
21FA   FF             09868         db      0xff
21FA   00             09869         db      0x00
21FB   FF             09870         db      0xff
21FB   00             09871         db      0x00
21FC   FF             09872         db      0xff
21FC   00             09873         db      0x00
21FD   FF             09874         db      0xff
21FD   00             09875         db      0x00
21FE   FF             09876         db      0xff
21FE   00             09877         db      0x00
21FF   FF             09878         db      0xff
Warning[220]: Address exceeds maximum range for this processor. Address{0x2200} > MAXROM{0x21FF}
21FF   00 0000        09879         db      0x00
                      09880 
                      09881         end
gpasm-1.5.0 #1285 (Jan 23 2020) unidds_v1_10.   27.01.2020  22:56:48        PAGE 188


SYMBOL TABLE
  LABEL                              TYPE        VALUE         VALUE          VALUE
                                                 (hex)         (dec)          (text)

ACKDT                             CONSTANT      00000005              5
ACKEN                             CONSTANT      00000004              4
ACKSTAT                           CONSTANT      00000006              6
ADCON0                            CONSTANT      0000001F             31
ADCON1                            CONSTANT      0000009F            159
ADCS0                             CONSTANT      00000006              6
ADCS1                             CONSTANT      00000007              7
ADDEN                             CONSTANT      00000003              3
ADFM                              CONSTANT      00000007              7
ADIE                              CONSTANT      00000006              6
ADIF                              CONSTANT      00000006              6
ADON                              CONSTANT      00000000              0
ADRESH                            CONSTANT      0000001E             30
ADRESL                            CONSTANT      0000009E            158
BCLIE                             CONSTANT      00000003              3
BCLIF                             CONSTANT      00000003              3
BF                                CONSTANT      00000000              0
BRGH                              CONSTANT      00000002              2
C                                 CONSTANT      00000000              0
CCP1CON                           CONSTANT      00000017             23
CCP1IE                            CONSTANT      00000002              2
CCP1IF                            CONSTANT      00000002              2
CCP1M0                            CONSTANT      00000000              0
CCP1M1                            CONSTANT      00000001              1
CCP1M2                            CONSTANT      00000002              2
CCP1M3                            CONSTANT      00000003              3
CCP1X                             CONSTANT      00000005              5
CCP1Y                             CONSTANT      00000004              4
CCP2CON                           CONSTANT      0000001D             29
CCP2IE                            CONSTANT      00000000              0
CCP2IF                            CONSTANT      00000000              0
CCP2M0                            CONSTANT      00000000              0
CCP2M1                            CONSTANT      00000001              1
CCP2M2                            CONSTANT      00000002              2
CCP2M3                            CONSTANT      00000003              3
CCP2X                             CONSTANT      00000005              5
CCP2Y                             CONSTANT      00000004              4
CCPR1                             CONSTANT      00000015             21
CCPR1H                            CONSTANT      00000016             22
CCPR1L                            CONSTANT      00000015             21
CCPR2                             CONSTANT      0000001B             27
CCPR2H                            CONSTANT      0000001C             28
CCPR2L                            CONSTANT      0000001B             27
CHS0                              CONSTANT      00000003              3
CHS1                              CONSTANT      00000004              4
CHS2                              CONSTANT      00000005              5
CKE                               CONSTANT      00000006              6
CKP                               CONSTANT      00000004              4
CREN                              CONSTANT      00000004              4
CSRC                              CONSTANT      00000007              7
Common_RAM                        CONSTANT      00000070            112
D                                 CONSTANT      00000005              5
gpasm-1.5.0 #1285 (Jan 23 2020) unidds_v1_10.   27.01.2020  22:56:48        PAGE 189


SYMBOL TABLE
  LABEL                              TYPE        VALUE         VALUE          VALUE
                                                 (hex)         (dec)          (text)

DATA_ADDRESS                      CONSTANT      00000005              5
DC                                CONSTANT      00000001              1
D_A                               CONSTANT      00000005              5
D_NOT_A                           CONSTANT      00000005              5
EEADR                             CONSTANT      0000010D            269
EEADRH                            CONSTANT      0000010F            271
EECON1                            CONSTANT      0000018C            396
EECON2                            CONSTANT      0000018D            397
EEDATA                            CONSTANT      0000010C            268
EEDATH                            CONSTANT      0000010E            270
EEIE                              CONSTANT      00000004              4
EEIF                              CONSTANT      00000004              4
EEPGD                             CONSTANT      00000007              7
F                                 CONSTANT      00000001              1
FERR                              CONSTANT      00000002              2
FSR                               CONSTANT      00000004              4
GCEN                              CONSTANT      00000007              7
GIE                               CONSTANT      00000007              7
GO                                CONSTANT      00000002              2
GO_DONE                           CONSTANT      00000002              2
GO_NOT_DONE                       CONSTANT      00000002              2
I2C_DATA                          CONSTANT      00000005              5
I2C_READ                          CONSTANT      00000002              2
I2C_START                         CONSTANT      00000003              3
I2C_STOP                          CONSTANT      00000004              4
INDF                              CONSTANT      00000000              0
INTCON                            CONSTANT      0000000B             11
INTE                              CONSTANT      00000004              4
INTEDG                            CONSTANT      00000006              6
INTF                              CONSTANT      00000001              1
IRP                               CONSTANT      00000007              7
NOT_A                             CONSTANT      00000005              5
NOT_ADDRESS                       CONSTANT      00000005              5
NOT_BO                            CONSTANT      00000000              0
NOT_BOR                           CONSTANT      00000000              0
NOT_DONE                          CONSTANT      00000002              2
NOT_PD                            CONSTANT      00000003              3
NOT_POR                           CONSTANT      00000001              1
NOT_RBPU                          CONSTANT      00000007              7
NOT_RC8                           CONSTANT      00000006              6
NOT_T1SYNC                        CONSTANT      00000002              2
NOT_TO                            CONSTANT      00000004              4
NOT_TX8                           CONSTANT      00000006              6
NOT_W                             CONSTANT      00000002              2
NOT_WRITE                         CONSTANT      00000002              2
OERR                              CONSTANT      00000001              1
OPTION_REG                        CONSTANT      00000081            129
P                                 CONSTANT      00000004              4
PCFG0                             CONSTANT      00000000              0
PCFG1                             CONSTANT      00000001              1
PCFG2                             CONSTANT      00000002              2
PCFG3                             CONSTANT      00000003              3
gpasm-1.5.0 #1285 (Jan 23 2020) unidds_v1_10.   27.01.2020  22:56:48        PAGE 190


SYMBOL TABLE
  LABEL                              TYPE        VALUE         VALUE          VALUE
                                                 (hex)         (dec)          (text)

PCL                               CONSTANT      00000002              2
PCLATH                            CONSTANT      0000000A             10
PCON                              CONSTANT      0000008E            142
PEIE                              CONSTANT      00000006              6
PEN                               CONSTANT      00000002              2
PIE1                              CONSTANT      0000008C            140
PIE2                              CONSTANT      0000008D            141
PIR1                              CONSTANT      0000000C             12
PIR2                              CONSTANT      0000000D             13
PORTA                             CONSTANT      00000005              5
PORTB                             CONSTANT      00000006              6
PORTC                             CONSTANT      00000007              7
PR2                               CONSTANT      00000092            146
PS0                               CONSTANT      00000000              0
PS1                               CONSTANT      00000001              1
PS2                               CONSTANT      00000002              2
PSA                               CONSTANT      00000003              3
R                                 CONSTANT      00000002              2
RA0                               CONSTANT      00000000              0
RA1                               CONSTANT      00000001              1
RA2                               CONSTANT      00000002              2
RA3                               CONSTANT      00000003              3
RA4                               CONSTANT      00000004              4
RA5                               CONSTANT      00000005              5
RB0                               CONSTANT      00000000              0
RB1                               CONSTANT      00000001              1
RB2                               CONSTANT      00000002              2
RB3                               CONSTANT      00000003              3
RB4                               CONSTANT      00000004              4
RB5                               CONSTANT      00000005              5
RB6                               CONSTANT      00000006              6
RB7                               CONSTANT      00000007              7
RBIE                              CONSTANT      00000003              3
RBIF                              CONSTANT      00000000              0
RC0                               CONSTANT      00000000              0
RC1                               CONSTANT      00000001              1
RC2                               CONSTANT      00000002              2
RC3                               CONSTANT      00000003              3
RC4                               CONSTANT      00000004              4
RC5                               CONSTANT      00000005              5
RC6                               CONSTANT      00000006              6
RC7                               CONSTANT      00000007              7
RC8_9                             CONSTANT      00000006              6
RC9                               CONSTANT      00000006              6
RCD8                              CONSTANT      00000000              0
RCEN                              CONSTANT      00000003              3
RCIE                              CONSTANT      00000005              5
RCIF                              CONSTANT      00000005              5
RCREG                             CONSTANT      0000001A             26
RCSTA                             CONSTANT      00000018             24
RD                                CONSTANT      00000000              0
READ_WRITE                        CONSTANT      00000002              2
gpasm-1.5.0 #1285 (Jan 23 2020) unidds_v1_10.   27.01.2020  22:56:48        PAGE 191


SYMBOL TABLE
  LABEL                              TYPE        VALUE         VALUE          VALUE
                                                 (hex)         (dec)          (text)

RP0                               CONSTANT      00000005              5
RP1                               CONSTANT      00000006              6
RSEN                              CONSTANT      00000001              1
RX9                               CONSTANT      00000006              6
RX9D                              CONSTANT      00000000              0
R_NOT_W                           CONSTANT      00000002              2
R_W                               CONSTANT      00000002              2
S                                 CONSTANT      00000003              3
SEN                               CONSTANT      00000000              0
SMP                               CONSTANT      00000007              7
SPBRG                             CONSTANT      00000099            153
SPEN                              CONSTANT      00000007              7
SREN                              CONSTANT      00000005              5
SSPADD                            CONSTANT      00000093            147
SSPBUF                            CONSTANT      00000013             19
SSPCON                            CONSTANT      00000014             20
SSPCON2                           CONSTANT      00000091            145
SSPEN                             CONSTANT      00000005              5
SSPIE                             CONSTANT      00000003              3
SSPIF                             CONSTANT      00000003              3
SSPM0                             CONSTANT      00000000              0
SSPM1                             CONSTANT      00000001              1
SSPM2                             CONSTANT      00000002              2
SSPM3                             CONSTANT      00000003              3
SSPOV                             CONSTANT      00000006              6
SSPSTAT                           CONSTANT      00000094            148
STATUS                            CONSTANT      00000003              3
SYNC                              CONSTANT      00000004              4
T0CS                              CONSTANT      00000005              5
T0IE                              CONSTANT      00000005              5
T0IF                              CONSTANT      00000002              2
T0SE                              CONSTANT      00000004              4
T1CKPS0                           CONSTANT      00000004              4
T1CKPS1                           CONSTANT      00000005              5
T1CON                             CONSTANT      00000010             16
T1INSYNC                          CONSTANT      00000002              2
T1OSCEN                           CONSTANT      00000003              3
T1SYNC                            CONSTANT      00000002              2
T2CKPS0                           CONSTANT      00000000              0
T2CKPS1                           CONSTANT      00000001              1
T2CON                             CONSTANT      00000012             18
TMR0                              CONSTANT      00000001              1
TMR0IE                            CONSTANT      00000005              5
TMR0IF                            CONSTANT      00000002              2
TMR1                              CONSTANT      0000000E             14
TMR1CS                            CONSTANT      00000001              1
TMR1H                             CONSTANT      0000000F             15
TMR1IE                            CONSTANT      00000000              0
TMR1IF                            CONSTANT      00000000              0
TMR1L                             CONSTANT      0000000E             14
TMR1ON                            CONSTANT      00000000              0
TMR2                              CONSTANT      00000011             17
gpasm-1.5.0 #1285 (Jan 23 2020) unidds_v1_10.   27.01.2020  22:56:48        PAGE 192


SYMBOL TABLE
  LABEL                              TYPE        VALUE         VALUE          VALUE
                                                 (hex)         (dec)          (text)

TMR2IE                            CONSTANT      00000001              1
TMR2IF                            CONSTANT      00000001              1
TMR2ON                            CONSTANT      00000002              2
TOUTPS0                           CONSTANT      00000003              3
TOUTPS1                           CONSTANT      00000004              4
TOUTPS2                           CONSTANT      00000005              5
TOUTPS3                           CONSTANT      00000006              6
TRISA                             CONSTANT      00000085            133
TRISA0                            CONSTANT      00000000              0
TRISA1                            CONSTANT      00000001              1
TRISA2                            CONSTANT      00000002              2
TRISA3                            CONSTANT      00000003              3
TRISA4                            CONSTANT      00000004              4
TRISA5                            CONSTANT      00000005              5
TRISB                             CONSTANT      00000086            134
TRISB0                            CONSTANT      00000000              0
TRISB1                            CONSTANT      00000001              1
TRISB2                            CONSTANT      00000002              2
TRISB3                            CONSTANT      00000003              3
TRISB4                            CONSTANT      00000004              4
TRISB5                            CONSTANT      00000005              5
TRISB6                            CONSTANT      00000006              6
TRISB7                            CONSTANT      00000007              7
TRISC                             CONSTANT      00000087            135
TRISC0                            CONSTANT      00000000              0
TRISC1                            CONSTANT      00000001              1
TRISC2                            CONSTANT      00000002              2
TRISC3                            CONSTANT      00000003              3
TRISC4                            CONSTANT      00000004              4
TRISC5                            CONSTANT      00000005              5
TRISC6                            CONSTANT      00000006              6
TRISC7                            CONSTANT      00000007              7
TRMT                              CONSTANT      00000001              1
TX8_9                             CONSTANT      00000006              6
TX9                               CONSTANT      00000006              6
TX9D                              CONSTANT      00000000              0
TXD8                              CONSTANT      00000000              0
TXEN                              CONSTANT      00000005              5
TXIE                              CONSTANT      00000004              4
TXIF                              CONSTANT      00000004              4
TXREG                             CONSTANT      00000019             25
TXSTA                             CONSTANT      00000098            152
UA                                CONSTANT      00000001              1
W                                 CONSTANT      00000000              0
WCOL                              CONSTANT      00000007              7
WR                                CONSTANT      00000001              1
WREN                              CONSTANT      00000002              2
WRERR                             CONSTANT      00000003              3
Z                                 CONSTANT      00000002              2
_BODEN_OFF                        CONSTANT      00003FBF          16319
_BODEN_ON                         CONSTANT      00003FFF          16383
_BOREN_OFF                        CONSTANT      00003FBF          16319
gpasm-1.5.0 #1285 (Jan 23 2020) unidds_v1_10.   27.01.2020  22:56:48        PAGE 193


SYMBOL TABLE
  LABEL                              TYPE        VALUE         VALUE          VALUE
                                                 (hex)         (dec)          (text)

_BOREN_ON                         CONSTANT      00003FFF          16383
_CONFIG                           CONSTANT      00002007           8199
_CPD_OFF                          CONSTANT      00003FFF          16383
_CPD_ON                           CONSTANT      00003EFF          16127
_CP_ALL                           CONSTANT      00000FCF           4047
_CP_HALF                          CONSTANT      00001FDF           8159
_CP_OFF                           CONSTANT      00003FFF          16383
_CP_UPPER_256                     CONSTANT      00002FEF          12271
_DEBUG_OFF                        CONSTANT      00003FFF          16383
_DEBUG_ON                         CONSTANT      000037FF          14335
_DEVID1                           CONSTANT      00002006           8198
_FOSC_EXTRC                       CONSTANT      00003FFF          16383
_FOSC_HS                          CONSTANT      00003FFE          16382
_FOSC_LP                          CONSTANT      00003FFC          16380
_FOSC_XT                          CONSTANT      00003FFD          16381
_HS_OSC                           CONSTANT      00003FFE          16382
_IDLOC0                           CONSTANT      00002000           8192
_IDLOC1                           CONSTANT      00002001           8193
_IDLOC2                           CONSTANT      00002002           8194
_IDLOC3                           CONSTANT      00002003           8195
_LP_OSC                           CONSTANT      00003FFC          16380
_LVP_OFF                          CONSTANT      00003F7F          16255
_LVP_ON                           CONSTANT      00003FFF          16383
_PWRTE_OFF                        CONSTANT      00003FFF          16383
_PWRTE_ON                         CONSTANT      00003FF7          16375
_RC_OSC                           CONSTANT      00003FFF          16383
_WDTE_OFF                         CONSTANT      00003FFB          16379
_WDTE_ON                          CONSTANT      00003FFF          16383
_WDT_OFF                          CONSTANT      00003FFB          16379
_WDT_ON                           CONSTANT      00003FFF          16383
_WRT_ENABLE_OFF                   CONSTANT      00003DFF          15871
_WRT_ENABLE_ON                    CONSTANT      00003FFF          16383
_WRT_OFF                          CONSTANT      00003DFF          15871
_WRT_ON                           CONSTANT      00003FFF          16383
_XT_OSC                           CONSTANT      00003FFD          16381
__14_BIT                          CONSTANT      00000001              1
__16F876                          CONSTANT      00000001              1
__ACTIVE_BANK_ADDR                VARIABLE      FFFFFFFF             -1
__ACTIVE_PAGE_ADDR                VARIABLE      FFFFFFFF             -1
__ASSUMED_BANK_ADDR               VARIABLE      00000000              0
__BANK_0                          CONSTANT      00000000              0
__BANK_1                          CONSTANT      00000080            128
__BANK_2                          CONSTANT      00000100            256
__BANK_3                          CONSTANT      00000180            384
__BANK_BITS                       CONSTANT      00000180            384
__BANK_FIRST                      CONSTANT      00000000              0
__BANK_INV                        CONSTANT      FFFFFFFF             -1
__BANK_LAST                       CONSTANT      00000180            384
__BANK_MASK                       CONSTANT      0000007F            127
__BANK_SHIFT                      CONSTANT      00000007              7
__BANK_SIZE                       CONSTANT      00000080            128
__CODE_END                        CONSTANT      00001FFF           8191
gpasm-1.5.0 #1285 (Jan 23 2020) unidds_v1_10.   27.01.2020  22:56:48        PAGE 194


SYMBOL TABLE
  LABEL                              TYPE        VALUE         VALUE          VALUE
                                                 (hex)         (dec)          (text)

__CODE_START                      CONSTANT      00000000              0
__COMMON_RAM_END                  CONSTANT      0000007F            127
__COMMON_RAM_START                CONSTANT      00000070            112
__CONFIG_END                      CONSTANT      00002007           8199
__CONFIG_START                    CONSTANT      00002007           8199
__EEPROM_END                      CONSTANT      000021FF           8703
__EEPROM_START                    CONSTANT      00002100           8448
__GPUTILS_SVN_VERSION             CONSTANT      00000505           1285
__GPUTILS_VERSION_MAJOR           CONSTANT      00000001              1
__GPUTILS_VERSION_MICRO           CONSTANT      00000000              0
__GPUTILS_VERSION_MINOR           CONSTANT      00000005              5
__IDLOCS_END                      CONSTANT      00002003           8195
__IDLOCS_START                    CONSTANT      00002000           8192
__NUM_BANKS                       CONSTANT      00000004              4
__NUM_PAGES                       CONSTANT      00000004              4
__PAGE_0                          CONSTANT      00000000              0
__PAGE_1                          CONSTANT      00000800           2048
__PAGE_2                          CONSTANT      00001000           4096
__PAGE_3                          CONSTANT      00001800           6144
__PAGE_BITS                       CONSTANT      00001800           6144
__PAGE_FIRST                      CONSTANT      00000000              0
__PAGE_INV                        CONSTANT      FFFFFFFF             -1
__PAGE_LAST                       CONSTANT      00001800           6144
__PAGE_MASK                       CONSTANT      000007FF           2047
__PAGE_SHIFT                      CONSTANT      0000000B             11
__PAGE_SIZE                       CONSTANT      00000800           2048
__VECTOR_INT                      CONSTANT      00000004              4
__VECTOR_RESET                    CONSTANT      00000000              0
__WHILE_LOOP_COUNT_MAX            CONSTANT      000000FF            255
function_000                      ADDRESS       00000052             82
function_001                      ADDRESS       00000076            118
function_002                      ADDRESS       000000A1            161
function_003                      ADDRESS       000000C7            199
function_004                      ADDRESS       000000DD            221
function_005                      ADDRESS       000000E1            225
function_006                      ADDRESS       00000117            279
function_007                      ADDRESS       0000011D            285
function_008                      ADDRESS       0000011F            287
function_009                      ADDRESS       00000121            289
function_010                      ADDRESS       00000129            297
function_011                      ADDRESS       0000012A            298
function_012                      ADDRESS       00000139            313
function_013                      ADDRESS       00000150            336
function_014                      ADDRESS       0000015A            346
function_015                      ADDRESS       00000161            353
function_016                      ADDRESS       00000167            359
function_017                      ADDRESS       00000184            388
function_018                      ADDRESS       0000018C            396
function_019                      ADDRESS       0000018E            398
function_020                      ADDRESS       000001C1            449
function_021                      ADDRESS       000001C3            451
function_022                      ADDRESS       000002F8            760
gpasm-1.5.0 #1285 (Jan 23 2020) unidds_v1_10.   27.01.2020  22:56:48        PAGE 195


SYMBOL TABLE
  LABEL                              TYPE        VALUE         VALUE          VALUE
                                                 (hex)         (dec)          (text)

function_023                      ADDRESS       0000031A            794
function_024                      ADDRESS       00000363            867
function_025                      ADDRESS       0000036D            877
function_026                      ADDRESS       00000386            902
function_027                      ADDRESS       0000038C            908
function_028                      ADDRESS       00000391            913
function_029                      ADDRESS       000003E2            994
function_030                      ADDRESS       00000430           1072
function_031                      ADDRESS       0000045B           1115
function_032                      ADDRESS       00000472           1138
function_033                      ADDRESS       00000496           1174
function_034                      ADDRESS       000004D1           1233
function_035                      ADDRESS       000004DB           1243
function_036                      ADDRESS       000004E0           1248
function_037                      ADDRESS       000004E4           1252
function_038                      ADDRESS       000004ED           1261
function_039                      ADDRESS       00000528           1320
function_040                      ADDRESS       00000533           1331
function_041                      ADDRESS       0000055F           1375
function_042                      ADDRESS       00000575           1397
function_043                      ADDRESS       0000057B           1403
function_044                      ADDRESS       0000058C           1420
function_045                      ADDRESS       00000599           1433
function_046                      ADDRESS       000005A9           1449
function_047                      ADDRESS       000005AD           1453
function_048                      ADDRESS       000005AF           1455
function_049                      ADDRESS       000005B0           1456
function_050                      ADDRESS       000005EE           1518
function_051                      ADDRESS       00000620           1568
function_052                      ADDRESS       00000623           1571
function_053                      ADDRESS       00000646           1606
function_054                      ADDRESS       00000654           1620
function_055                      ADDRESS       0000066E           1646
function_056                      ADDRESS       00000675           1653
function_057                      ADDRESS       00000800           2048
function_058                      ADDRESS       00001000           4096
function_059                      ADDRESS       00001009           4105
function_060                      ADDRESS       00001012           4114
function_061                      ADDRESS       00001025           4133
function_062                      ADDRESS       00001037           4151
function_063                      ADDRESS       0000104A           4170
function_064                      ADDRESS       00001060           4192
function_065                      ADDRESS       000010FC           4348
function_066                      ADDRESS       00001105           4357
function_067                      ADDRESS       00001184           4484
function_068                      ADDRESS       0000118F           4495
function_069                      ADDRESS       0000120D           4621
function_070                      ADDRESS       00001389           5001
function_071                      ADDRESS       00001392           5010
function_072                      ADDRESS       0000141C           5148
function_073                      ADDRESS       00001458           5208
function_074                      ADDRESS       00001495           5269
gpasm-1.5.0 #1285 (Jan 23 2020) unidds_v1_10.   27.01.2020  22:56:48        PAGE 196


SYMBOL TABLE
  LABEL                              TYPE        VALUE         VALUE          VALUE
                                                 (hex)         (dec)          (text)

function_075                      ADDRESS       00001514           5396
function_076                      ADDRESS       00001679           5753
function_077                      ADDRESS       000016AC           5804
function_078                      ADDRESS       000016D5           5845
function_079                      ADDRESS       00001700           5888
function_080                      ADDRESS       0000172D           5933
function_081                      ADDRESS       000018BA           6330
label_002                         ADDRESS       0000001C             28
label_003                         ADDRESS       0000001E             30
label_004                         ADDRESS       00000022             34
label_005                         ADDRESS       00000023             35
label_006                         ADDRESS       0000002B             43
label_007                         ADDRESS       00000030             48
label_008                         ADDRESS       00000031             49
label_009                         ADDRESS       0000003E             62
label_010                         ADDRESS       00000044             68
label_011                         ADDRESS       00000047             71
label_012                         ADDRESS       0000005C             92
label_013                         ADDRESS       000000C4            196
label_014                         ADDRESS       000000CC            204
label_015                         ADDRESS       000000D3            211
label_016                         ADDRESS       000000D7            215
label_017                         ADDRESS       000000D9            217
label_018                         ADDRESS       000000DC            220
label_019                         ADDRESS       000000EA            234
label_020                         ADDRESS       000000F0            240
label_021                         ADDRESS       000000FA            250
label_022                         ADDRESS       00000102            258
label_023                         ADDRESS       00000109            265
label_024                         ADDRESS       0000010E            270
label_025                         ADDRESS       00000128            296
label_026                         ADDRESS       0000012C            300
label_027                         ADDRESS       0000012F            303
label_028                         ADDRESS       00000131            305
label_029                         ADDRESS       00000134            308
label_030                         ADDRESS       00000136            310
label_031                         ADDRESS       00000142            322
label_032                         ADDRESS       00000151            337
label_033                         ADDRESS       00000157            343
label_034                         ADDRESS       0000015D            349
label_035                         ADDRESS       00000163            355
label_036                         ADDRESS       0000016A            362
label_037                         ADDRESS       0000016C            364
label_038                         ADDRESS       0000016E            366
label_039                         ADDRESS       00000170            368
label_040                         ADDRESS       00000171            369
label_041                         ADDRESS       00000173            371
label_042                         ADDRESS       00000175            373
label_043                         ADDRESS       00000196            406
label_044                         ADDRESS       000001A8            424
label_045                         ADDRESS       000001AB            427
label_046                         ADDRESS       000001CA            458
gpasm-1.5.0 #1285 (Jan 23 2020) unidds_v1_10.   27.01.2020  22:56:48        PAGE 197


SYMBOL TABLE
  LABEL                              TYPE        VALUE         VALUE          VALUE
                                                 (hex)         (dec)          (text)

label_047                         ADDRESS       000001D8            472
label_048                         ADDRESS       000001EC            492
label_049                         ADDRESS       000001F7            503
label_050                         ADDRESS       0000021A            538
label_051                         ADDRESS       00000226            550
label_052                         ADDRESS       0000022A            554
label_053                         ADDRESS       0000022E            558
label_054                         ADDRESS       00000231            561
label_055                         ADDRESS       00000233            563
label_056                         ADDRESS       00000239            569
label_057                         ADDRESS       00000242            578
label_058                         ADDRESS       00000254            596
label_059                         ADDRESS       00000258            600
label_060                         ADDRESS       0000025A            602
label_061                         ADDRESS       0000025C            604
label_062                         ADDRESS       00000261            609
label_063                         ADDRESS       00000263            611
label_064                         ADDRESS       00000273            627
label_065                         ADDRESS       00000280            640
label_066                         ADDRESS       00000288            648
label_067                         ADDRESS       0000028C            652
label_068                         ADDRESS       00000297            663
label_069                         ADDRESS       0000029E            670
label_070                         ADDRESS       000002A5            677
label_071                         ADDRESS       000002B0            688
label_072                         ADDRESS       000002B9            697
label_073                         ADDRESS       000002E0            736
label_074                         ADDRESS       000002E4            740
label_075                         ADDRESS       000002E6            742
label_076                         ADDRESS       000002EA            746
label_077                         ADDRESS       000002ED            749
label_078                         ADDRESS       000002F6            758
label_079                         ADDRESS       000002F7            759
label_080                         ADDRESS       000002FF            767
label_081                         ADDRESS       00000307            775
label_082                         ADDRESS       00000308            776
label_083                         ADDRESS       0000030D            781
label_084                         ADDRESS       00000311            785
label_085                         ADDRESS       00000315            789
label_086                         ADDRESS       00000320            800
label_087                         ADDRESS       00000323            803
label_088                         ADDRESS       00000328            808
label_089                         ADDRESS       0000032C            812
label_090                         ADDRESS       00000348            840
label_091                         ADDRESS       00000356            854
label_092                         ADDRESS       0000035C            860
label_093                         ADDRESS       0000035E            862
label_094                         ADDRESS       00000360            864
label_095                         ADDRESS       00000362            866
label_096                         ADDRESS       00000364            868
label_097                         ADDRESS       0000036A            874
label_098                         ADDRESS       0000036C            876
gpasm-1.5.0 #1285 (Jan 23 2020) unidds_v1_10.   27.01.2020  22:56:48        PAGE 198


SYMBOL TABLE
  LABEL                              TYPE        VALUE         VALUE          VALUE
                                                 (hex)         (dec)          (text)

label_099                         ADDRESS       0000036F            879
label_100                         ADDRESS       00000380            896
label_101                         ADDRESS       00000382            898
label_102                         ADDRESS       00000385            901
label_103                         ADDRESS       0000039B            923
label_104                         ADDRESS       000003A4            932
label_105                         ADDRESS       000003A9            937
label_106                         ADDRESS       000003AD            941
label_107                         ADDRESS       000003B3            947
label_108                         ADDRESS       000003B6            950
label_109                         ADDRESS       000003B8            952
label_110                         ADDRESS       000003BD            957
label_111                         ADDRESS       000003C0            960
label_112                         ADDRESS       000003C2            962
label_113                         ADDRESS       000003C4            964
label_114                         ADDRESS       000003CF            975
label_115                         ADDRESS       000003D2            978
label_116                         ADDRESS       000003D9            985
label_117                         ADDRESS       000003DB            987
label_118                         ADDRESS       000003E9           1001
label_119                         ADDRESS       000003F5           1013
label_120                         ADDRESS       000003F7           1015
label_121                         ADDRESS       000003FA           1018
label_122                         ADDRESS       00000400           1024
label_123                         ADDRESS       00000404           1028
label_124                         ADDRESS       00000409           1033
label_125                         ADDRESS       0000040E           1038
label_126                         ADDRESS       00000411           1041
label_127                         ADDRESS       00000413           1043
label_128                         ADDRESS       00000420           1056
label_129                         ADDRESS       00000427           1063
label_130                         ADDRESS       00000440           1088
label_131                         ADDRESS       0000044D           1101
label_132                         ADDRESS       00000451           1105
label_133                         ADDRESS       00000455           1109
label_134                         ADDRESS       000004A0           1184
label_135                         ADDRESS       000004AE           1198
label_136                         ADDRESS       000004BB           1211
label_137                         ADDRESS       000004C1           1217
label_138                         ADDRESS       000004C5           1221
label_139                         ADDRESS       000004D3           1235
label_140                         ADDRESS       000004DA           1242
label_141                         ADDRESS       000004E8           1256
label_142                         ADDRESS       000004EB           1259
label_143                         ADDRESS       00000512           1298
label_144                         ADDRESS       0000053D           1341
label_145                         ADDRESS       0000058F           1423
label_146                         ADDRESS       00000591           1425
label_147                         ADDRESS       000005B4           1460
label_148                         ADDRESS       000005C0           1472
label_149                         ADDRESS       000005C9           1481
label_150                         ADDRESS       000005D4           1492
gpasm-1.5.0 #1285 (Jan 23 2020) unidds_v1_10.   27.01.2020  22:56:48        PAGE 199


SYMBOL TABLE
  LABEL                              TYPE        VALUE         VALUE          VALUE
                                                 (hex)         (dec)          (text)

label_151                         ADDRESS       000005DD           1501
label_152                         ADDRESS       000005E6           1510
label_153                         ADDRESS       00000600           1536
label_154                         ADDRESS       00000611           1553
label_155                         ADDRESS       0000061A           1562
label_156                         ADDRESS       00000625           1573
label_157                         ADDRESS       00000637           1591
label_158                         ADDRESS       00000639           1593
label_159                         ADDRESS       0000063F           1599
label_160                         ADDRESS       0000105F           4191
label_161                         ADDRESS       00001066           4198
label_162                         ADDRESS       0000106F           4207
label_163                         ADDRESS       0000107F           4223
label_164                         ADDRESS       00001086           4230
label_165                         ADDRESS       0000108E           4238
label_166                         ADDRESS       0000109F           4255
label_167                         ADDRESS       000010AA           4266
label_168                         ADDRESS       000010B3           4275
label_169                         ADDRESS       000010BB           4283
label_170                         ADDRESS       000010C4           4292
label_171                         ADDRESS       000010D7           4311
label_172                         ADDRESS       000010D8           4312
label_173                         ADDRESS       000010E1           4321
label_174                         ADDRESS       000010E3           4323
label_175                         ADDRESS       000010E8           4328
label_176                         ADDRESS       000010E9           4329
label_177                         ADDRESS       000010EE           4334
label_178                         ADDRESS       000010EF           4335
label_179                         ADDRESS       000010F6           4342
label_180                         ADDRESS       00001114           4372
label_181                         ADDRESS       00001115           4373
label_182                         ADDRESS       00001126           4390
label_183                         ADDRESS       00001127           4391
label_184                         ADDRESS       0000112E           4398
label_185                         ADDRESS       0000112F           4399
label_186                         ADDRESS       00001140           4416
label_187                         ADDRESS       00001141           4417
label_188                         ADDRESS       00001148           4424
label_189                         ADDRESS       00001150           4432
label_190                         ADDRESS       00001155           4437
label_191                         ADDRESS       0000115B           4443
label_192                         ADDRESS       00001161           4449
label_193                         ADDRESS       00001175           4469
label_194                         ADDRESS       000011A1           4513
label_195                         ADDRESS       000011A8           4520
label_196                         ADDRESS       000011AA           4522
label_197                         ADDRESS       000011C7           4551
label_198                         ADDRESS       000011C8           4552
label_199                         ADDRESS       000011CF           4559
label_200                         ADDRESS       000011D5           4565
label_201                         ADDRESS       000011E9           4585
label_202                         ADDRESS       000011F0           4592
gpasm-1.5.0 #1285 (Jan 23 2020) unidds_v1_10.   27.01.2020  22:56:48        PAGE 200


SYMBOL TABLE
  LABEL                              TYPE        VALUE         VALUE          VALUE
                                                 (hex)         (dec)          (text)

label_203                         ADDRESS       000011FB           4603
label_204                         ADDRESS       000011FF           4607
label_205                         ADDRESS       00001209           4617
label_206                         ADDRESS       0000120C           4620
label_207                         ADDRESS       0000120E           4622
label_208                         ADDRESS       0000125C           4700
label_209                         ADDRESS       00001266           4710
label_210                         ADDRESS       0000126E           4718
label_211                         ADDRESS       000012B5           4789
label_212                         ADDRESS       000012CC           4812
label_213                         ADDRESS       000012D8           4824
label_214                         ADDRESS       0000133F           4927
label_215                         ADDRESS       0000135B           4955
label_216                         ADDRESS       00001377           4983
label_217                         ADDRESS       000013BA           5050
label_218                         ADDRESS       000013BB           5051
label_219                         ADDRESS       000013C8           5064
label_220                         ADDRESS       000013C9           5065
label_221                         ADDRESS       000013DF           5087
label_222                         ADDRESS       000013E0           5088
label_223                         ADDRESS       000013ED           5101
label_224                         ADDRESS       000013EE           5102
label_225                         ADDRESS       00001404           5124
label_226                         ADDRESS       00001405           5125
label_227                         ADDRESS       00001412           5138
label_228                         ADDRESS       00001413           5139
label_229                         ADDRESS       00001432           5170
label_230                         ADDRESS       0000143B           5179
label_231                         ADDRESS       00001457           5207
label_232                         ADDRESS       0000147D           5245
label_233                         ADDRESS       00001484           5252
label_234                         ADDRESS       00001494           5268
label_235                         ADDRESS       0000149C           5276
label_236                         ADDRESS       000014F8           5368
label_237                         ADDRESS       00001504           5380
label_238                         ADDRESS       00001534           5428
label_239                         ADDRESS       00001553           5459
label_240                         ADDRESS       00001566           5478
label_241                         ADDRESS       0000156A           5482
label_242                         ADDRESS       0000156E           5486
label_243                         ADDRESS       00001578           5496
label_244                         ADDRESS       0000157A           5498
label_245                         ADDRESS       0000157E           5502
label_246                         ADDRESS       00001591           5521
label_247                         ADDRESS       000015B3           5555
label_248                         ADDRESS       000015C4           5572
label_249                         ADDRESS       000015CF           5583
label_250                         ADDRESS       000015D4           5588
label_251                         ADDRESS       000015E0           5600
label_252                         ADDRESS       00001600           5632
label_253                         ADDRESS       0000161F           5663
label_254                         ADDRESS       00001620           5664
gpasm-1.5.0 #1285 (Jan 23 2020) unidds_v1_10.   27.01.2020  22:56:48        PAGE 201


SYMBOL TABLE
  LABEL                              TYPE        VALUE         VALUE          VALUE
                                                 (hex)         (dec)          (text)

label_255                         ADDRESS       00001621           5665
label_256                         ADDRESS       00001625           5669
label_257                         ADDRESS       0000162F           5679
label_258                         ADDRESS       00001639           5689
label_259                         ADDRESS       00001640           5696
label_260                         ADDRESS       00001649           5705
label_261                         ADDRESS       00001659           5721
label_262                         ADDRESS       00001660           5728
label_263                         ADDRESS       00001668           5736
label_264                         ADDRESS       0000166F           5743
label_265                         ADDRESS       00001687           5767
label_266                         ADDRESS       0000168B           5771
label_267                         ADDRESS       00001694           5780
label_268                         ADDRESS       0000169D           5789
label_269                         ADDRESS       000016BA           5818
label_270                         ADDRESS       000016C7           5831
label_271                         ADDRESS       000016CB           5835
label_272                         ADDRESS       000016CF           5839
label_273                         ADDRESS       000016D8           5848
label_274                         ADDRESS       000016E4           5860
label_275                         ADDRESS       000016E9           5865
label_276                         ADDRESS       000016EC           5868
label_277                         ADDRESS       000016F2           5874
label_278                         ADDRESS       000016FB           5883
label_279                         ADDRESS       00001704           5892
label_280                         ADDRESS       00001710           5904
label_281                         ADDRESS       0000171D           5917
label_282                         ADDRESS       00001723           5923
label_283                         ADDRESS       00001727           5927
label_284                         ADDRESS       00001750           5968
label_285                         ADDRESS       00001774           6004
label_286                         ADDRESS       0000177C           6012
label_287                         ADDRESS       0000177E           6014
label_288                         ADDRESS       00001919           6425
label_289                         ADDRESS       0000193C           6460
label_290                         ADDRESS       00001945           6469
label_291                         ADDRESS       0000194D           6477
label_292                         ADDRESS       00001954           6484
label_293                         ADDRESS       00001963           6499
label_294                         ADDRESS       0000199D           6557
label_295                         ADDRESS       000019A4           6564
vector_int                        ADDRESS       00000004              4
vector_reset                      ADDRESS       00000000              0


MEMORY USAGE MAP ('X' = Used,  '-' = Unused)

0000 : XXXXXXXXXXXXXXXX XXXXXXXXXXXXXXXX XXXXXXXXXXXXXXXX XXXXXXXXXXXXXXXX
0040 : XXXXXXXXXXXXXXXX XXXXXXXXXXXXXXXX XXXXXXXXXXXXXXXX XXXXXXXXXXXXXXXX
0080 : XXXXXXXXXXXXXXXX XXXXXXXXXXXXXXXX XXXXXXXXXXXXXXXX XXXXXXXXXXXXXXXX
00C0 : XXXXXXXXXXXXXXXX XXXXXXXXXXXXXXXX XXXXXXXXXXXXXXXX XXXXXXXXXXXXXXXX
0100 : XXXXXXXXXXXXXXXX XXXXXXXXXXXXXXXX XXXXXXXXXXXXXXXX XXXXXXXXXXXXXXXX
gpasm-1.5.0 #1285 (Jan 23 2020) unidds_v1_10.   27.01.2020  22:56:48        PAGE 202


MEMORY USAGE MAP ('X' = Used,  '-' = Unused)

0140 : XXXXXXXXXXXXXXXX XXXXXXXXXXXXXXXX XXXXXXXXXXXXXXXX XXXXXXXXXXXXXXXX
0180 : XXXXXXXXXXXXXXXX XXXXXXXXXXXXXXXX XXXXXXXXXXXXXXXX XXXXXXXXXXXXXXXX
01C0 : XXXXXXXXXXXXXXXX XXXXXXXXXXXXXXXX XXXXXXXXXXXXXXXX XXXXXXXXXXXXXXXX
0200 : XXXXXXXXXXXXXXXX XXXXXXXXXXXXXXXX XXXXXXXXXXXXXXXX XXXXXXXXXXXXXXXX
0240 : XXXXXXXXXXXXXXXX XXXXXXXXXXXXXXXX XXXXXXXXXXXXXXXX XXXXXXXXXXXXXXXX
0280 : XXXXXXXXXXXXXXXX XXXXXXXXXXXXXXXX XXXXXXXXXXXXXXXX XXXXXXXXXXXXXXXX
02C0 : XXXXXXXXXXXXXXXX XXXXXXXXXXXXXXXX XXXXXXXXXXXXXXXX XXXXXXXXXXXXXXXX
0300 : XXXXXXXXXXXXXXXX XXXXXXXXXXXXXXXX XXXXXXXXXXXXXXXX XXXXXXXXXXXXXXXX
0340 : XXXXXXXXXXXXXXXX XXXXXXXXXXXXXXXX XXXXXXXXXXXXXXXX XXXXXXXXXXXXXXXX
0380 : XXXXXXXXXXXXXXXX XXXXXXXXXXXXXXXX XXXXXXXXXXXXXXXX XXXXXXXXXXXXXXXX
03C0 : XXXXXXXXXXXXXXXX XXXXXXXXXXXXXXXX XXXXXXXXXXXXXXXX XXXXXXXXXXXXXXXX
0400 : XXXXXXXXXXXXXXXX XXXXXXXXXXXXXXXX XXXXXXXXXXXXXXXX XXXXXXXXXXXXXXXX
0440 : XXXXXXXXXXXXXXXX XXXXXXXXXXXXXXXX XXXXXXXXXXXXXXXX XXXXXXXXXXXXXXXX
0480 : XXXXXXXXXXXXXXXX XXXXXXXXXXXXXXXX XXXXXXXXXXXXXXXX XXXXXXXXXXXXXXXX
04C0 : XXXXXXXXXXXXXXXX XXXXXXXXXXXXXXXX XXXXXXXXXXXXXXXX XXXXXXXXXXXXXXXX
0500 : XXXXXXXXXXXXXXXX XXXXXXXXXXXXXXXX XXXXXXXXXXXXXXXX XXXXXXXXXXXXXXXX
0540 : XXXXXXXXXXXXXXXX XXXXXXXXXXXXXXXX XXXXXXXXXXXXXXXX XXXXXXXXXXXXXXXX
0580 : XXXXXXXXXXXXXXXX XXXXXXXXXXXXXXXX XXXXXXXXXXXXXXXX XXXXXXXXXXXXXXXX
05C0 : XXXXXXXXXXXXXXXX XXXXXXXXXXXXXXXX XXXXXXXXXXXXXXXX XXXXXXXXXXXXXXXX
0600 : XXXXXXXXXXXXXXXX XXXXXXXXXXXXXXXX XXXXXXXXXXXXXXXX XXXXXXXXXXXXXXXX
0640 : XXXXXXXXXXXXXXXX XXXXXXXXXXXXXXXX XXXXXXXXXXXXXXXX XXXXXXXXXXXXXXXX
0680 : XXXXXXXXXXXXXXXX XXXXXXXXXXXXXXXX XXXXXXXXXXXXXXXX XXXXXXXXXXXXXXXX
06C0 : XXXXXXXXXXXXXXXX XXXXXXXXXXXXXXXX XXXXXXXXXXXXXXXX XXXXXXXXXXXXXXXX
0700 : XXXXXXXXXXXXXXXX XXXXXXXXXXXXXXXX XXXXXXXXXXXXXXXX XXXXXXXXXXXXXXXX
0740 : XXXXXXXXXXXXXXXX XXXXXXXXXXXXXXXX XXXXXXXXXXXXXXXX XXXXXXXXXXXXXXXX
0780 : XXXXXXXXXXXXXXXX XXXXXXXXXXXXXXXX XXXXXXXXXXXXXXXX XXXXXXXXXXXXXXXX
07C0 : XXXXXXXXXXXXXXXX XXXXXXXXXXXXXXXX XXXXXXXXXXXXXXXX XXXXXXXXXXXXXXXX
0800 : XXXXXXXXXXXXXXXX XXXXXXXXXXXXXXXX XXXXXXXXXXXXXXXX XXXXXXXXXXXXXXXX
0840 : XXXXXXXXXXXXXXXX XXXXXXXXXXXXXXXX XXXXXXXXXXXXXXXX XXXXXXXXXXXXXXXX
0880 : XXXXXXXXXXXXXXXX XXXXXXXXXXXXXXXX XXXXXXXXXXXXXXXX XXXXXXXXXXXXXXXX
08C0 : XXXXXXXXXXXXXXXX XXXXXXXXXXXXXXXX XXXXXXXXXXXXXXXX XXXXXXXXXXXXXXXX
0900 : XXXXXXXXXXXXXXXX XXXXXXXXXXXXXXXX XXXXXXXXXXXXXXXX XXXXXXXXXXXXXXXX
0940 : XXXXXXXXXXXXXXXX XXXXXXXXXXXXXXXX XXXXXXXXXXXXXXXX XXXXXXXXXXXXXXXX
0980 : XXXXXXXXXXXXXXXX XXXXXXXXXXXXXXXX XXXXXXXXXXXXXXXX XXXXXXXXXXXXXXXX
09C0 : XXXXXXXXXXXXXXXX XXXXXXXXXXXXXXXX XXXXXXXXXXXXXXXX XXXXXXXXXXXXXXXX
0A00 : XXXXXXXXXXXXXXXX XXXXXXXXXXXXXXXX XXXXXXXXXXXXXXXX XXXXXXXXXXXXXXXX
0A40 : XXXXXXXXXXXXXXXX XXXXXXXXXXXXXXXX XXXXXXXXXXXXXXXX XXXXXXXXXXXXXXXX
0A80 : XXXXXXXXXXXXXXXX XXXXXXXXXXXXXXXX XXXXXXXXXXXXXXXX XXXXXXXXXXXXXXXX
0AC0 : XXXXXXXXXXXXXXXX XXXXXXXXXXXXXXXX XXXXXXXXXXXXXXXX XXXXXXXXXXXXXXXX
0B00 : XXXXXXXXXXXXXXXX XXXXXXXXXXXXXXXX XXXXXXXXXXXXXXXX XXXXXXXXXXXXXXXX
0B40 : XXXXXXXXXXXXXXXX XXXXXXXXXXXXXXXX XXXXXXXXXXXXXXXX XXXXXXXXXXXXXXXX
0B80 : XXXXXXXXXXXXXXXX XXXXXXXXXXXXXXXX XXXXXXXXXXXXXXXX XXXXXXXXXXXXXXXX
0BC0 : XXXXXXXXXXXXXXXX XXXXXXXXXXXXXXXX XXXXXXXXXXXXXXXX XXXXXXXXXXXXXXXX
0C00 : XXXXXXXXXXXXXXXX XXXXXXXXXXXXXXXX XXXXXXXXXXXXXXXX XXXXXXXXXXXXXXXX
0C40 : XXXXXXXXXXXXXXXX XXXXXXXXXXXXXXXX XXXXXXXXXXXXXXXX XXXXXXXXXXXXXXXX
0C80 : XXXXXXXXXXXXXXXX XXXXXXXXXXXXXXXX XXXXXXXXXXXXXXXX XXXXXXXXXXXXXXXX
0CC0 : XXXXXXXXXXXXXXXX XXXXXXXXXXXXXXXX XXXXXXXXXXXXXXXX XXXXXXXXXXXXXXXX
0D00 : XXXXXXXXXXXXXXXX XXXXXXXXXXXXXXXX XXXXXXXXXXXXXXXX XXXXXXXXXXXXXXXX
0D40 : XXXXXXXXXXXXXXXX XXXXXXXXXXXXXXXX XXXXXXXXXXXXXXXX XXXXXXXXXXXXXXXX
0D80 : XXXXXXXXXXXXXXXX XXXXXXXXXXXXXXXX XXXXXXXXXXXXXXXX XXXXXXXXXXXXXXXX
0DC0 : XXXXXXXXXXXXXXXX XXXXXXXXXXXXXXXX XXXXXXXXXXXXXXXX XXXXXXXXXXXXXXXX
0E00 : XXXXXXXXXXXXXXXX XXXXXXXXXXXXXXXX XXXXXXXXXXXXXXXX XXXXXXXXXXXXXXXX
0E40 : XXXXXXXXXXXXXXXX XXXXXXXXXXXXXXXX XXXXXXXXXXXXXXXX XXXXXXXXXXXXXXXX
0E80 : XXXXXXXXXXXXXXXX XXXXXXXXXXXXXXXX XXXXXXXXXXXXXXXX XXXXXXXXXXXXXXXX
gpasm-1.5.0 #1285 (Jan 23 2020) unidds_v1_10.   27.01.2020  22:56:48        PAGE 203


MEMORY USAGE MAP ('X' = Used,  '-' = Unused)

0EC0 : XXXXXXXXXXXXXXXX XXXXXXXXXXXXXXXX XXXXXXXXXXXXXXXX XXXXXXXXXXXXXXXX
0F00 : XXXXXXXXXXXXXXXX XXXXXXXXXXXXXXXX XXXXXXXXXXXXXXXX XXXXXXXXXXXXXXXX
0F40 : XXXXXXXXXXXXXXXX XXXXXXXXXXXXXXXX XXXXXXXXXXXXXXXX XXXXXXXXXXXXXXXX
0F80 : XXXXXXXXXXXXXXXX XXXXXXXXXXXXXXXX XXXXXXXXXXXXXXXX XXXXXXXXXXXXXXXX
0FC0 : XXXXXXXXXXXXXXXX XXXXXXXXXXXXXXXX XXXXXXXXXXXXXXXX XXXXXXXXXXXXXXXX
1000 : XXXXXXXXXXXXXXXX XXXXXXXXXXXXXXXX XXXXXXXXXXXXXXXX XXXXXXXXXXXXXXXX
1040 : XXXXXXXXXXXXXXXX XXXXXXXXXXXXXXXX XXXXXXXXXXXXXXXX XXXXXXXXXXXXXXXX
1080 : XXXXXXXXXXXXXXXX XXXXXXXXXXXXXXXX XXXXXXXXXXXXXXXX XXXXXXXXXXXXXXXX
10C0 : XXXXXXXXXXXXXXXX XXXXXXXXXXXXXXXX XXXXXXXXXXXXXXXX XXXXXXXXXXXXXXXX
1100 : XXXXXXXXXXXXXXXX XXXXXXXXXXXXXXXX XXXXXXXXXXXXXXXX XXXXXXXXXXXXXXXX
1140 : XXXXXXXXXXXXXXXX XXXXXXXXXXXXXXXX XXXXXXXXXXXXXXXX XXXXXXXXXXXXXXXX
1180 : XXXXXXXXXXXXXXXX XXXXXXXXXXXXXXXX XXXXXXXXXXXXXXXX XXXXXXXXXXXXXXXX
11C0 : XXXXXXXXXXXXXXXX XXXXXXXXXXXXXXXX XXXXXXXXXXXXXXXX XXXXXXXXXXXXXXXX
1200 : XXXXXXXXXXXXXXXX XXXXXXXXXXXXXXXX XXXXXXXXXXXXXXXX XXXXXXXXXXXXXXXX
1240 : XXXXXXXXXXXXXXXX XXXXXXXXXXXXXXXX XXXXXXXXXXXXXXXX XXXXXXXXXXXXXXXX
1280 : XXXXXXXXXXXXXXXX XXXXXXXXXXXXXXXX XXXXXXXXXXXXXXXX XXXXXXXXXXXXXXXX
12C0 : XXXXXXXXXXXXXXXX XXXXXXXXXXXXXXXX XXXXXXXXXXXXXXXX XXXXXXXXXXXXXXXX
1300 : XXXXXXXXXXXXXXXX XXXXXXXXXXXXXXXX XXXXXXXXXXXXXXXX XXXXXXXXXXXXXXXX
1340 : XXXXXXXXXXXXXXXX XXXXXXXXXXXXXXXX XXXXXXXXXXXXXXXX XXXXXXXXXXXXXXXX
1380 : XXXXXXXXXXXXXXXX XXXXXXXXXXXXXXXX XXXXXXXXXXXXXXXX XXXXXXXXXXXXXXXX
13C0 : XXXXXXXXXXXXXXXX XXXXXXXXXXXXXXXX XXXXXXXXXXXXXXXX XXXXXXXXXXXXXXXX
1400 : XXXXXXXXXXXXXXXX XXXXXXXXXXXXXXXX XXXXXXXXXXXXXXXX XXXXXXXXXXXXXXXX
1440 : XXXXXXXXXXXXXXXX XXXXXXXXXXXXXXXX XXXXXXXXXXXXXXXX XXXXXXXXXXXXXXXX
1480 : XXXXXXXXXXXXXXXX XXXXXXXXXXXXXXXX XXXXXXXXXXXXXXXX XXXXXXXXXXXXXXXX
14C0 : XXXXXXXXXXXXXXXX XXXXXXXXXXXXXXXX XXXXXXXXXXXXXXXX XXXXXXXXXXXXXXXX
1500 : XXXXXXXXXXXXXXXX XXXXXXXXXXXXXXXX XXXXXXXXXXXXXXXX XXXXXXXXXXXXXXXX
1540 : XXXXXXXXXXXXXXXX XXXXXXXXXXXXXXXX XXXXXXXXXXXXXXXX XXXXXXXXXXXXXXXX
1580 : XXXXXXXXXXXXXXXX XXXXXXXXXXXXXXXX XXXXXXXXXXXXXXXX XXXXXXXXXXXXXXXX
15C0 : XXXXXXXXXXXXXXXX XXXXXXXXXXXXXXXX XXXXXXXXXXXXXXXX XXXXXXXXXXXXXXXX
1600 : XXXXXXXXXXXXXXXX XXXXXXXXXXXXXXXX XXXXXXXXXXXXXXXX XXXXXXXXXXXXXXXX
1640 : XXXXXXXXXXXXXXXX XXXXXXXXXXXXXXXX XXXXXXXXXXXXXXXX XXXXXXXXXXXXXXXX
1680 : XXXXXXXXXXXXXXXX XXXXXXXXXXXXXXXX XXXXXXXXXXXXXXXX XXXXXXXXXXXXXXXX
16C0 : XXXXXXXXXXXXXXXX XXXXXXXXXXXXXXXX XXXXXXXXXXXXXXXX XXXXXXXXXXXXXXXX
1700 : XXXXXXXXXXXXXXXX XXXXXXXXXXXXXXXX XXXXXXXXXXXXXXXX XXXXXXXXXXXXXXXX
1740 : XXXXXXXXXXXXXXXX XXXXXXXXXXXXXXXX XXXXXXXXXXXXXXXX XXXXXXXXXXXXXXXX
1780 : XXXXXXXXXXXXXXXX XXXXXXXXXXXXXXXX XXXXXXXXXXXXXXXX XXXXXXXXXXXXXXXX
17C0 : XXXXXXXXXXXXXXXX XXXXXXXXXXXXXXXX XXXXXXXXXXXXXXXX XXXXXXXXXXXXXXXX
1800 : XXXXXXXXXXXXXXXX XXXXXXXXXXXXXXXX XXXXXXXXXXXXXXXX XXXXXXXXXXXXXXXX
1840 : XXXXXXXXXXXXXXXX XXXXXXXXXXXXXXXX XXXXXXXXXXXXXXXX XXXXXXXXXXXXXXXX
1880 : XXXXXXXXXXXXXXXX XXXXXXXXXXXXXXXX XXXXXXXXXXXXXXXX XXXXXXXXXXXXXXXX
18C0 : XXXXXXXXXXXXXXXX XXXXXXXXXXXXXXXX XXXXXXXXXXXXXXXX XXXXXXXXXXXXXXXX
1900 : XXXXXXXXXXXXXXXX XXXXXXXXXXXXXXXX XXXXXXXXXXXXXXXX XXXXXXXXXXXXXXXX
1940 : XXXXXXXXXXXXXXXX XXXXXXXXXXXXXXXX XXXXXXXXXXXXXXXX XXXXXXXXXXXXXXXX
1980 : XXXXXXXXXXXXXXXX XXXXXXXXXXXXXXXX XXXXXXXXXXXXXXXX XXXXXXXXXXXXXXXX
19C0 : XXXXXXXXXXXXXXXX XXXXXXXXXXXXXXXX XXXXXXXXXXXXXXXX XXXXXXXXXXXXXXXX
1A00 : XXXXXXXXXXXXXXXX XXXXXXXXXXXXXXXX XXXXXXXXXXXXXXXX XXXXXXXXXXXXXXXX
1A40 : XXXXXXXXXXXXXXXX XXXXXXXXXXXXXXXX XXXXXXXXXXXXXXXX XXXXXXXXXXXXXXXX
1A80 : XXXXXXXXXXXXXXXX XXXXXXXXXXXXXXXX XXXXXXXXXXXXXXXX XXXXXXXXXXXXXXXX
1AC0 : XXXXXXXXXXXXXXXX XXXXXXXXXXXXXXXX XXXXXXXXXXXXXXXX XXXXXXXXXXXXXXXX
1B00 : XXXXXXXXXXXXXXXX XXXXXXXXXXXXXXXX XXXXXXXXXXXXXXXX XXXXXXXXXXXXXXXX
1B40 : XXXXXXXXXXXXXXXX XXXXXXXXXXXXXXXX XXXXXXXXXXXXXXXX XXXXXXXXXXXXXXXX
1B80 : XXXXXXXXXXXXXXXX XXXXXXXXXXXXXXXX XXXXXXXXXXXXXXXX XXXXXXXXXXXXXXXX
1BC0 : XXXXXXXXXXXXXXXX XXXXXXXXXXXXXXXX XXXXXXXXXXXXXXXX XXXXXXXXXXXXXXXX
1C00 : XXXXXXXXXXXXXXXX XXXXXXXXXXXXXXXX XXXXXXXXXXXXXXXX XXXXXXXXXXXXXXXX
gpasm-1.5.0 #1285 (Jan 23 2020) unidds_v1_10.   27.01.2020  22:56:48        PAGE 204


MEMORY USAGE MAP ('X' = Used,  '-' = Unused)

1C40 : XXXXXXXXXXXXXXXX XXXXXXXXXXXXXXXX XXXXXXXXXXXXXXXX XXXXXXXXXXXXXXXX
1C80 : XXXXXXXXXXXXXXXX XXXXXXXXXXXXXXXX XXXXXXXXXXXXXXXX XXXXXXXXXXXXXXXX
1CC0 : XXXXXXXXXXXXXXXX XXXXXXXXXXXXXXXX XXXXXXXXXXXXXXXX XXXXXXXXXXXXXXXX
1D00 : XXXXXXXXXXXXXXXX XXXXXXXXXXXXXXXX XXXXXXXXXXXXXXXX XXXXXXXXXXXXXXXX
1D40 : XXXXXXXXXXXXXXXX XXXXXXXXXXXXXXXX XXXXXXXXXXXXXXXX XXXXXXXXXXXXXXXX
1D80 : XXXXXXXXXXXXXXXX XXXXXXXXXXXXXXXX XXXXXXXXXXXXXXXX XXXXXXXXXXXXXXXX
1DC0 : XXXXXXXXXXXXXXXX XXXXXXXXXXXXXXXX XXXXXXXXXXXXXXXX XXXXXXXXXXXXXXXX
1E00 : XXXXXXXXXXXXXXXX XXXXXXXXXXXXXXXX XXXXXXXXXXXXXXXX XXXXXXXXXXXXXXXX
1E40 : XXXXXXXXXXXXXXXX XXXXXXXXXXXXXXXX XXXXXXXXXXXXXXXX XXXXXXXXXXXXXXXX
1E80 : XXXXXXXXXXXXXXXX XXXXXXXXXXXXXXXX XXXXXXXXXXXXXXXX XXXXXXXXXXXXXXXX
1EC0 : XXXXXXXXXXXXXXXX XXXXXXXXXXXXXXXX XXXXXXXXXXXXXXXX XXXXXXXXXXXXXXXX
1F00 : XXXXXXXXXXXXXXXX XXXXXXXXXXXXXXXX XXXXXXXXXXXXXXXX XXXXXXXXXXXXXXXX
1F40 : XXXXXXXXXXXXXXXX XXXXXXXXXXXXXXXX XXXXXXXXXXXXXXXX XXXXXXXXXXXXXXXX
1F80 : XXXXXXXXXXXXXXXX XXXXXXXXXXXXXXXX XXXXXXXXXXXXXXXX XXXXXXXXXXXXXXXX
1FC0 : XXXXXXXXXXXXXXXX XXXXXXXXXXXXXXXX XXXXXXXXXXXXXXXX XXXXXXXXXXXXXXXX
2000 : XXXX---X-------- ---------------- ---------------- ----------------
2100 : XXXXXXXXXXXXXXXX XXXXXXXXXXXXXXXX XXXXXXXXXXXXXXXX XXXXXXXXXXXXXXXX
2140 : XXXXXXXXXXXXXXXX XXXXXXXXXXXXXXXX XXXXXXXXXXXXXXXX XXXXXXXXXXXXXXXX
2180 : XXXXXXXXXXXXXXXX XXXXXXXXXXXXXXXX XXXXXXXXXXXXXXXX XXXXXXXXXXXXXXXX
21C0 : XXXXXXXXXXXXXXXX XXXXXXXXXXXXXXXX XXXXXXXXXXXXXXXX XXXXXXXXXXXXXXXX
2200 : X--------------- ---------------- ---------------- ----------------

All other memory blocks unused.

Program Memory Words Used:  8192
Program Memory Words Free:     0


Errors   :     0
Warnings :     2 reported,     0 suppressed
Messages :     0 reported,     0 suppressed

