gpasm-1.5.0 #1285 (Jan 23 2020) unidds_v1_08.   27.01.2020  22:56:48        PAGE  1


LOC    OBJECT CODE    LINE  SOURCE TEXT
  VALUE

Warning[215]: Processor superseded by command line.
                      00001         processor p16f876
                      00002         radix dec
                      00003 
                      00004         include p16f876.inc
                      00001         LIST
                      00002 
                      00003 ;==========================================================================
                      00004 ; Build date : Oct 21 2015
                      00005 ;  MPASM PIC16F876 processor include
                      00006 ; 
                      00007 ;  (c) Copyright 1999-2015 Microchip Technology, All rights reserved
                      00008 ;==========================================================================
                      00009 
                      00499         LIST
                      00005 
                      00006         ASSUME 0
                      00007 
                      00008 ; The recognition of labels and registers is not always good, therefore
                      00009 ; be treated cautiously the results.
                      00010 
                      00011         CONFIG  FOSC  = HS
                      00012         CONFIG  WDTE  = OFF
                      00013         CONFIG  PWRTE = ON
                      00014         CONFIG  BOREN = ON
                      00015         CONFIG  LVP   = OFF
                      00016         CONFIG  CPD   = OFF
                      00017         CONFIG  WRT   = ON
                      00018         CONFIG  DEBUG = OFF
                      00019         CONFIG  CP    = OFF
                      00020 
                      00021 ;===============================================================================
                      00022 ; DATA address definitions
                      00023 
  00000070            00024 Common_RAM      equ     0x0070                              ; size: 16 bytes
                      00025 
                      00026 ;===============================================================================
                      00027 ; CODE area
                      00028 
                      00029         ; code
                      00030 
0000                  00031         org     __CODE_START                                ; address: 0x0000
                      00032 
0000                  00033 vector_reset:                                               ; address: 0x0000
                      00034 
0000   29CA           00035         goto    label_044
                      00036 
                      00037         ; code
                      00038 
0004                  00039         org     __VECTOR_INT                                ; address: 0x0004
                      00040 
0004                  00041 vector_int:                                                 ; address: 0x0004
                      00042 
gpasm-1.5.0 #1285 (Jan 23 2020) unidds_v1_08.   27.01.2020  22:56:48        PAGE  2


LOC    OBJECT CODE    LINE  SOURCE TEXT
  VALUE

0004   00F0           00043         movwf   Common_RAM                                  ; reg: 0x070
0005   0E03           00044         swapf   STATUS, W                                   ; reg: 0x003
0006   0183           00045         clrf    STATUS                                      ; reg: 0x003
0007   00F1           00046         movwf   (Common_RAM + 1)                            ; reg: 0x071
0008   080A           00047         movf    PCLATH, W                                   ; reg: 0x00a
0009   00F2           00048         movwf   (Common_RAM + 2)                            ; reg: 0x072
000A   018A           00049         clrf    PCLATH                                      ; reg: 0x00a
000B   1383           00050         bcf     STATUS, IRP                                 ; reg: 0x003, bit: 7
000C   0804           00051         movf    FSR, W                                      ; reg: 0x004
000D   00F3           00052         movwf   (Common_RAM + 3)                            ; reg: 0x073
000E   1C8B           00053         btfss   INTCON, INTF                                ; reg: 0x00b, bit: 1
000F   2831           00054         goto    label_008
0010   1683           00055         bsf     STATUS, RP0                                 ; reg: 0x003, bit: 5
0011   1303           00056         bcf     STATUS, RP1                                 ; reg: 0x003, bit: 6
0012   0801           00057         movf    OPTION_REG, W                               ; reg: 0x081
0013   1283           00058         bcf     STATUS, RP0                                 ; reg: 0x003, bit: 5
0014   1303           00059         bcf     STATUS, RP1                                 ; reg: 0x003, bit: 6
0015   00F5           00060         movwf   (Common_RAM + 5)                            ; reg: 0x075
0016   1F75           00061         btfss   (Common_RAM + 5), 0x6                       ; reg: 0x075
0017   281E           00062         goto    label_003
0018   1886           00063         btfsc   PORTB, RB1                                  ; reg: 0x006, bit: 1
0019   281C           00064         goto    label_002
001A   03BE           00065         decf    0x3e, F                                     ; reg: 0x03e
001B   2823           00066         goto    label_005
                      00067 
001C                  00068 label_002:                                                  ; address: 0x001c
                      00069 
001C   0ABE           00070         incf    0x3e, F                                     ; reg: 0x03e
001D   2823           00071         goto    label_005
                      00072 
001E                  00073 label_003:                                                  ; address: 0x001e
                      00074 
001E   1C86           00075         btfss   PORTB, RB1                                  ; reg: 0x006, bit: 1
001F   2822           00076         goto    label_004
0020   03BE           00077         decf    0x3e, F                                     ; reg: 0x03e
0021   2823           00078         goto    label_005
                      00079 
0022                  00080 label_004:                                                  ; address: 0x0022
                      00081 
0022   0ABE           00082         incf    0x3e, F                                     ; reg: 0x03e
                      00083 
0023                  00084 label_005:                                                  ; address: 0x0023
                      00085 
0023   1F75           00086         btfss   (Common_RAM + 5), 0x6                       ; reg: 0x075
0024   282B           00087         goto    label_006
0025   1683           00088         bsf     STATUS, RP0                                 ; reg: 0x003, bit: 5
0026   1303           00089         bcf     STATUS, RP1                                 ; reg: 0x003, bit: 6
0027   1301           00090         bcf     OPTION_REG, INTEDG                          ; reg: 0x081, bit: 6
0028   1283           00091         bcf     STATUS, RP0                                 ; reg: 0x003, bit: 5
0029   1303           00092         bcf     STATUS, RP1                                 ; reg: 0x003, bit: 6
002A   2830           00093         goto    label_007
                      00094 
002B                  00095 label_006:                                                  ; address: 0x002b
gpasm-1.5.0 #1285 (Jan 23 2020) unidds_v1_08.   27.01.2020  22:56:48        PAGE  3


LOC    OBJECT CODE    LINE  SOURCE TEXT
  VALUE

                      00096 
002B   1683           00097         bsf     STATUS, RP0                                 ; reg: 0x003, bit: 5
002C   1303           00098         bcf     STATUS, RP1                                 ; reg: 0x003, bit: 6
002D   1701           00099         bsf     OPTION_REG, INTEDG                          ; reg: 0x081, bit: 6
002E   1283           00100         bcf     STATUS, RP0                                 ; reg: 0x003, bit: 5
002F   1303           00101         bcf     STATUS, RP1                                 ; reg: 0x003, bit: 6
                      00102 
0030                  00103 label_007:                                                  ; address: 0x0030
                      00104 
0030   108B           00105         bcf     INTCON, INTF                                ; reg: 0x00b, bit: 1
                      00106 
0031                  00107 label_008:                                                  ; address: 0x0031
                      00108 
0031   1C0C           00109         btfss   PIR1, TMR1IF                                ; reg: 0x00c, bit: 0
0032   283E           00110         goto    label_009
0033   100C           00111         bcf     PIR1, TMR1IF                                ; reg: 0x00c, bit: 0
0034   08DF           00112         movf    0x5f, F                                     ; reg: 0x05f
0035   1D03           00113         btfss   STATUS, Z                                   ; reg: 0x003, bit: 2
0036   03DF           00114         decf    0x5f, F                                     ; reg: 0x05f
0037   08E0           00115         movf    0x60, F                                     ; reg: 0x060
0038   1D03           00116         btfss   STATUS, Z                                   ; reg: 0x003, bit: 2
0039   03E0           00117         decf    0x60, F                                     ; reg: 0x060
003A   30D9           00118         movlw   0xd9
003B   008F           00119         movwf   TMR1H                                       ; reg: 0x00f
003C   3000           00120         movlw   0x00
003D   008E           00121         movwf   TMR1L                                       ; reg: 0x00e
                      00122 
003E                  00123 label_009:                                                  ; address: 0x003e
                      00124 
003E   1C8C           00125         btfss   PIR1, TMR2IF                                ; reg: 0x00c, bit: 1
003F   2844           00126         goto    label_010
0040   108C           00127         bcf     PIR1, TMR2IF                                ; reg: 0x00c, bit: 1
0041   08E1           00128         movf    0x61, F                                     ; reg: 0x061
0042   1D03           00129         btfss   STATUS, Z                                   ; reg: 0x003, bit: 2
0043   03E1           00130         decf    0x61, F                                     ; reg: 0x061
                      00131 
0044                  00132 label_010:                                                  ; address: 0x0044
                      00133 
0044   1D0B           00134         btfss   INTCON, T0IF                                ; reg: 0x00b, bit: 2
0045   2847           00135         goto    label_011
0046   110B           00136         bcf     INTCON, T0IF                                ; reg: 0x00b, bit: 2
                      00137 
0047                  00138 label_011:                                                  ; address: 0x0047
                      00139 
0047   1A0D           00140         btfsc   PIR2, EEIF                                  ; reg: 0x00d, bit: 4
0048   120D           00141         bcf     PIR2, EEIF                                  ; reg: 0x00d, bit: 4
0049   0873           00142         movf    (Common_RAM + 3), W                         ; reg: 0x073
004A   0084           00143         movwf   FSR                                         ; reg: 0x004
004B   0872           00144         movf    (Common_RAM + 2), W                         ; reg: 0x072
004C   008A           00145         movwf   PCLATH                                      ; reg: 0x00a
004D   0E71           00146         swapf   (Common_RAM + 1), W                         ; reg: 0x071
004E   0083           00147         movwf   STATUS                                      ; reg: 0x003
004F   0EF0           00148         swapf   Common_RAM, F                               ; reg: 0x070
gpasm-1.5.0 #1285 (Jan 23 2020) unidds_v1_08.   27.01.2020  22:56:48        PAGE  4


LOC    OBJECT CODE    LINE  SOURCE TEXT
  VALUE

0050   0E70           00149         swapf   Common_RAM, W                               ; reg: 0x070
0051   0009           00150         retfie
                      00151 
0052                  00152 function_000:                                               ; address: 0x0052
                      00153 
0052   390F           00154         andlw   0x0f
0053   0782           00155         addwf   PCL, F                                      ; reg: 0x002
0054   3430           00156         retlw   0x30
0055   3431           00157         retlw   0x31
0056   3432           00158         retlw   0x32
0057   3433           00159         retlw   0x33
0058   3434           00160         retlw   0x34
0059   3435           00161         retlw   0x35
005A   3436           00162         retlw   0x36
                      00163 
005B                  00164 label_012:                                                  ; address: 0x005b
                      00165 
005B   3437           00166         retlw   0x37
005C   3438           00167         retlw   0x38
005D   3439           00168         retlw   0x39
005E   3441           00169         retlw   0x41
005F   3442           00170         retlw   0x42
0060   3443           00171         retlw   0x43
0061   3444           00172         retlw   0x44
0062   3445           00173         retlw   0x45
0063   3446           00174         retlw   0x46
0064   390F           00175         andlw   0x0f
0065   0782           00176         addwf   PCL, F                                      ; reg: 0x002
0066   34BE           00177         retlw   0xbe
0067   34B4           00178         retlw   0xb4
0068   34AA           00179         retlw   0xaa
0069   34A0           00180         retlw   0xa0
006A   3496           00181         retlw   0x96
006B   348C           00182         retlw   0x8c
006C   3482           00183         retlw   0x82
006D   3478           00184         retlw   0x78
006E   346E           00185         retlw   0x6e
006F   3464           00186         retlw   0x64
0070   345A           00187         retlw   0x5a
0071   3450           00188         retlw   0x50
0072   3446           00189         retlw   0x46
0073   343C           00190         retlw   0x3c
0074   3432           00191         retlw   0x32
0075   3428           00192         retlw   0x28
                      00193 
0076                  00194 function_001:                                               ; address: 0x0076
                      00195 
0076   1683           00196         bsf     STATUS, RP0                                 ; reg: 0x003, bit: 5
0077   1303           00197         bcf     STATUS, RP1                                 ; reg: 0x003, bit: 6
0078   0828           00198         movf    0x28, W                                     ; reg: 0x0a8
0079   1283           00199         bcf     STATUS, RP0                                 ; reg: 0x003, bit: 5
007A   1303           00200         bcf     STATUS, RP1                                 ; reg: 0x003, bit: 6
007B   00B8           00201         movwf   0x38                                        ; reg: 0x038
gpasm-1.5.0 #1285 (Jan 23 2020) unidds_v1_08.   27.01.2020  22:56:48        PAGE  5


LOC    OBJECT CODE    LINE  SOURCE TEXT
  VALUE

007C   0CB8           00202         rrf     0x38, F                                     ; reg: 0x038
007D   0CB8           00203         rrf     0x38, F                                     ; reg: 0x038
007E   0C38           00204         rrf     0x38, W                                     ; reg: 0x038
007F   391F           00205         andlw   0x1f
0080   0782           00206         addwf   PCL, F                                      ; reg: 0x002
0081   3485           00207         retlw   0x85
0082   3478           00208         retlw   0x78
0083   346D           00209         retlw   0x6d
0084   3464           00210         retlw   0x64
0085   345C           00211         retlw   0x5c
0086   3456           00212         retlw   0x56
0087   3450           00213         retlw   0x50
0088   344B           00214         retlw   0x4b
0089   3447           00215         retlw   0x47
008A   3443           00216         retlw   0x43
008B   343F           00217         retlw   0x3f
008C   343C           00218         retlw   0x3c
008D   3439           00219         retlw   0x39
008E   3437           00220         retlw   0x37
008F   3434           00221         retlw   0x34
0090   3432           00222         retlw   0x32
0091   3430           00223         retlw   0x30
0092   342E           00224         retlw   0x2e
0093   342C           00225         retlw   0x2c
0094   342B           00226         retlw   0x2b
0095   3429           00227         retlw   0x29
0096   3428           00228         retlw   0x28
0097   3427           00229         retlw   0x27
0098   3426           00230         retlw   0x26
0099   3424           00231         retlw   0x24
009A   3423           00232         retlw   0x23
009B   3422           00233         retlw   0x22
009C   3421           00234         retlw   0x21
009D   3420           00235         retlw   0x20
009E   3420           00236         retlw   0x20
009F   341F           00237         retlw   0x1f
00A0   341E           00238         retlw   0x1e
                      00239 
00A1                  00240 function_002:                                               ; address: 0x00a1
                      00241 
00A1   00B8           00242         movwf   0x38                                        ; reg: 0x038
00A2   0CB8           00243         rrf     0x38, F                                     ; reg: 0x038
00A3   0CB8           00244         rrf     0x38, F                                     ; reg: 0x038
00A4   0C38           00245         rrf     0x38, W                                     ; reg: 0x038
00A5   391F           00246         andlw   0x1f
00A6   0782           00247         addwf   PCL, F                                      ; reg: 0x002
00A7   3409           00248         retlw   0x09
00A8   3410           00249         retlw   0x10
00A9   3411           00250         retlw   0x11
00AA   3412           00251         retlw   0x12
00AB   3413           00252         retlw   0x13
00AC   3414           00253         retlw   0x14
00AD   3415           00254         retlw   0x15
gpasm-1.5.0 #1285 (Jan 23 2020) unidds_v1_08.   27.01.2020  22:56:48        PAGE  6


LOC    OBJECT CODE    LINE  SOURCE TEXT
  VALUE

00AE   3416           00255         retlw   0x16
00AF   3417           00256         retlw   0x17
00B0   3418           00257         retlw   0x18
00B1   3419           00258         retlw   0x19
00B2   3420           00259         retlw   0x20
00B3   3421           00260         retlw   0x21
00B4   3422           00261         retlw   0x22
00B5   3423           00262         retlw   0x23
00B6   3424           00263         retlw   0x24
00B7   3425           00264         retlw   0x25
00B8   3426           00265         retlw   0x26
00B9   3427           00266         retlw   0x27
00BA   3428           00267         retlw   0x28
00BB   3429           00268         retlw   0x29
00BC   3430           00269         retlw   0x30
00BD   3431           00270         retlw   0x31
00BE   3432           00271         retlw   0x32
00BF   3433           00272         retlw   0x33
00C0   3434           00273         retlw   0x34
00C1   3435           00274         retlw   0x35
00C2   3436           00275         retlw   0x36
                      00276 
00C3                  00277 label_013:                                                  ; address: 0x00c3
                      00278 
00C3   3437           00279         retlw   0x37
00C4   3438           00280         retlw   0x38
00C5   3439           00281         retlw   0x39
00C6   3440           00282         retlw   0x40
                      00283 
00C7                  00284 function_003:                                               ; address: 0x00c7
                      00285 
00C7   01BE           00286         clrf    0x3e                                        ; reg: 0x03e
00C8   3001           00287         movlw   0x01
00C9   00BB           00288         movwf   0x3b                                        ; reg: 0x03b
00CA   300A           00289         movlw   0x0a
00CB   00B8           00290         movwf   0x38                                        ; reg: 0x038
                      00291 
00CC                  00292 label_014:                                                  ; address: 0x00cc
                      00293 
00CC   20DD           00294         call    function_004
00CD   1C03           00295         btfss   STATUS, C                                   ; reg: 0x003, bit: 0
00CE   28DC           00296         goto    label_018
00CF   2121           00297         call    function_009
00D0   0BB8           00298         decfsz  0x38, F                                     ; reg: 0x038
00D1   28CC           00299         goto    label_014
                      00300 
00D2                  00301 label_015:                                                  ; address: 0x00d2
                      00302 
00D2   2184           00303         call    function_017
00D3   3008           00304         movlw   0x08
00D4   00F4           00305         movwf   (Common_RAM + 4)                            ; reg: 0x074
00D5   3092           00306         movlw   0x92
00D6   218E           00307         call    function_019
gpasm-1.5.0 #1285 (Jan 23 2020) unidds_v1_08.   27.01.2020  22:56:48        PAGE  7


LOC    OBJECT CODE    LINE  SOURCE TEXT
  VALUE

                      00308 
00D7                  00309 label_016:                                                  ; address: 0x00d7
                      00310 
00D7   3002           00311         movlw   0x02
                      00312 
00D8                  00313 label_017:                                                  ; address: 0x00d8
                      00314 
00D8   00BB           00315         movwf   0x3b                                        ; reg: 0x03b
00D9   20DD           00316         call    function_004
00DA   1803           00317         btfsc   STATUS, C                                   ; reg: 0x003, bit: 0
00DB   28D7           00318         goto    label_016
                      00319 
00DC                  00320 label_018:                                                  ; address: 0x00dc
                      00321 
00DC   0008           00322         return
                      00323 
00DD                  00324 function_004:                                               ; address: 0x00dd
                      00325 
00DD   1403           00326         bsf     STATUS, C                                   ; reg: 0x003, bit: 0
00DE   1A86           00327         btfsc   PORTB, RB5                                  ; reg: 0x006, bit: 5
00DF   1003           00328         bcf     STATUS, C                                   ; reg: 0x003, bit: 0
00E0   0008           00329         return
                      00330 
00E1                  00331 function_005:                                               ; address: 0x00e1
                      00332 
00E1   0183           00333         clrf    STATUS                                      ; reg: 0x003
00E2   1683           00334         bsf     STATUS, RP0                                 ; reg: 0x003, bit: 5
00E3   1303           00335         bcf     STATUS, RP1                                 ; reg: 0x003, bit: 6
00E4   3040           00336         movlw   0x40
00E5   0081           00337         movwf   OPTION_REG                                  ; reg: 0x081
00E6   302F           00338         movlw   0x2f
00E7   0085           00339         movwf   TRISA                                       ; reg: 0x085
00E8   30E3           00340         movlw   0xe3
                      00341 
00E9                  00342 label_019:                                                  ; address: 0x00e9
                      00343 
00E9   0086           00344         movwf   PORTB                                       ; reg: 0x006
00EA   3000           00345         movlw   0x00
00EB   0087           00346         movwf   PORTC                                       ; reg: 0x007
00EC   3002           00347         movlw   0x02
00ED   009F           00348         movwf   ADCON0                                      ; reg: 0x01f
00EE   3003           00349         movlw   0x03
                      00350 
00EF                  00351 label_020:                                                  ; address: 0x00ef
                      00352 
00EF   008C           00353         movwf   PIR1                                        ; reg: 0x00c
00F0   3010           00354         movlw   0x10
00F1   008D           00355         movwf   PIR2                                        ; reg: 0x00d
00F2   1283           00356         bcf     STATUS, RP0                                 ; reg: 0x003, bit: 5
00F3   1303           00357         bcf     STATUS, RP1                                 ; reg: 0x003, bit: 6
00F4   30D0           00358         movlw   0xd0
00F5   008B           00359         movwf   INTCON                                      ; reg: 0x00b
00F6   3000           00360         movlw   0x00
gpasm-1.5.0 #1285 (Jan 23 2020) unidds_v1_08.   27.01.2020  22:56:48        PAGE  8


LOC    OBJECT CODE    LINE  SOURCE TEXT
  VALUE

00F7   0085           00361         movwf   PORTA                                       ; reg: 0x005
00F8   3000           00362         movlw   0x00
                      00363 
00F9                  00364 label_021:                                                  ; address: 0x00f9
                      00365 
00F9   0086           00366         movwf   PORTB                                       ; reg: 0x006
00FA   3000           00367         movlw   0x00
00FB   0087           00368         movwf   PORTC                                       ; reg: 0x007
00FC   3001           00369         movlw   0x01
00FD   0090           00370         movwf   T1CON                                       ; reg: 0x010
00FE   3001           00371         movlw   0x01
00FF   0092           00372         movwf   T2CON                                       ; reg: 0x012
0100   3020           00373         movlw   0x20
0101   0084           00374         movwf   FSR                                         ; reg: 0x004
                      00375 
0102                  00376 label_022:                                                  ; address: 0x0102
                      00377 
0102   0180           00378         clrf    INDF                                        ; reg: 0x000
0103   3065           00379         movlw   0x65
0104   0204           00380         subwf   FSR, W                                      ; reg: 0x004
0105   1903           00381         btfsc   STATUS, Z                                   ; reg: 0x003, bit: 2
0106   2909           00382         goto    label_023
0107   0A84           00383         incf    FSR, F                                      ; reg: 0x004
0108   2902           00384         goto    label_022
                      00385 
0109                  00386 label_023:                                                  ; address: 0x0109
                      00387 
0109   30D9           00388         movlw   0xd9
010A   008F           00389         movwf   TMR1H                                       ; reg: 0x00f
010B   3000           00390         movlw   0x00
010C   008E           00391         movwf   TMR1L                                       ; reg: 0x00e
                      00392 
010D                  00393 label_024:                                                  ; address: 0x010d
                      00394 
010D   1683           00395         bsf     STATUS, RP0                                 ; reg: 0x003, bit: 5
010E   1303           00396         bcf     STATUS, RP1                                 ; reg: 0x003, bit: 6
010F   3001           00397         movlw   0x01
0110   00D5           00398         movwf   0x55                                        ; reg: 0x0d5
0111   00D7           00399         movwf   0x57                                        ; reg: 0x0d7
0112   01D3           00400         clrf    0x53                                        ; reg: 0x0d3
0113   01D4           00401         clrf    0x54                                        ; reg: 0x0d4
0114   1283           00402         bcf     STATUS, RP0                                 ; reg: 0x003, bit: 5
0115   1303           00403         bcf     STATUS, RP1                                 ; reg: 0x003, bit: 6
0116   0008           00404         return
                      00405 
0117                  00406 function_006:                                               ; address: 0x0117
                      00407 
0117   30FA           00408         movlw   0xfa
0118   212A           00409         call    function_011
0119   30FA           00410         movlw   0xfa
011A   212A           00411         call    function_011
011B   30FA           00412         movlw   0xfa
011C   212A           00413         call    function_011
gpasm-1.5.0 #1285 (Jan 23 2020) unidds_v1_08.   27.01.2020  22:56:48        PAGE  9


LOC    OBJECT CODE    LINE  SOURCE TEXT
  VALUE

                      00414 
011D                  00415 function_007:                                               ; address: 0x011d
                      00416 
011D   30FA           00417         movlw   0xfa
011E   292A           00418         goto    function_011
                      00419 
011F                  00420 function_008:                                               ; address: 0x011f
                      00421 
011F   3064           00422         movlw   0x64
0120   292A           00423         goto    function_011
                      00424 
0121                  00425 function_009:                                               ; address: 0x0121
                      00426 
0121   3032           00427         movlw   0x32
0122   292A           00428         goto    function_011
0123   300A           00429         movlw   0x0a
0124   292A           00430         goto    function_011
0125   3005           00431         movlw   0x05
0126   292A           00432         goto    function_011
                      00433 
0127                  00434 label_025:                                                  ; address: 0x0127
                      00435 
0127   3003           00436         movlw   0x03
0128   292A           00437         goto    function_011
                      00438 
0129                  00439 function_010:                                               ; address: 0x0129
                      00440 
0129   3001           00441         movlw   0x01
                      00442 
012A                  00443 function_011:                                               ; address: 0x012a
                      00444 
012A   00B5           00445         movwf   0x35                                        ; reg: 0x035
012B   0AB5           00446         incf    0x35, F                                     ; reg: 0x035
                      00447 
012C                  00448 label_026:                                                  ; address: 0x012c
                      00449 
012C   0BB5           00450         decfsz  0x35, F                                     ; reg: 0x035
012D   292F           00451         goto    label_027
012E   0008           00452         return
                      00453 
012F                  00454 label_027:                                                  ; address: 0x012f
                      00455 
012F   3013           00456         movlw   0x13
0130   00B6           00457         movwf   0x36                                        ; reg: 0x036
                      00458 
0131                  00459 label_028:                                                  ; address: 0x0131
                      00460 
0131   0BB6           00461         decfsz  0x36, F                                     ; reg: 0x036
0132   2934           00462         goto    label_029
0133   292C           00463         goto    label_026
                      00464 
0134                  00465 label_029:                                                  ; address: 0x0134
                      00466 
gpasm-1.5.0 #1285 (Jan 23 2020) unidds_v1_08.   27.01.2020  22:56:48        PAGE 10


LOC    OBJECT CODE    LINE  SOURCE TEXT
  VALUE

0134   3010           00467         movlw   0x10
0135   00B7           00468         movwf   0x37                                        ; reg: 0x037
                      00469 
0136                  00470 label_030:                                                  ; address: 0x0136
                      00471 
0136   0BB7           00472         decfsz  0x37, F                                     ; reg: 0x037
0137   2936           00473         goto    label_030
0138   2931           00474         goto    label_028
                      00475 
0139                  00476 function_012:                                               ; address: 0x0139
                      00477 
0139   1007           00478         bcf     PORTC, RC0                                  ; reg: 0x007, bit: 0
013A   300F           00479         movlw   0x0f
013B   212A           00480         call    function_011
013C   3020           00481         movlw   0x20
013D   2161           00482         call    function_015
013E   3080           00483         movlw   0x80
013F   2161           00484         call    function_015
0140   3005           00485         movlw   0x05
                      00486 
0141                  00487 label_031:                                                  ; address: 0x0141
                      00488 
0141   212A           00489         call    function_011
0142   3020           00490         movlw   0x20
0143   2161           00491         call    function_015
0144   3080           00492         movlw   0x80
0145   2161           00493         call    function_015
0146   3001           00494         movlw   0x01
0147   212A           00495         call    function_011
0148   3006           00496         movlw   0x06
0149   215A           00497         call    function_014
014A   300C           00498         movlw   0x0c
014B   215A           00499         call    function_014
014C   3014           00500         movlw   0x14
014D   215A           00501         call    function_014
014E   2184           00502         call    function_017
014F   0008           00503         return
                      00504 
0150                  00505 function_013:                                               ; address: 0x0150
                      00506 
0150   00F6           00507         movwf   (Common_RAM + 6)                            ; reg: 0x076
0151   2167           00508         call    function_016
0152   0876           00509         movf    (Common_RAM + 6), W                         ; reg: 0x076
0153   39F0           00510         andlw   0xf0
0154   3804           00511         iorlw   0x04
0155   2161           00512         call    function_015
                      00513 
0156                  00514 label_032:                                                  ; address: 0x0156
                      00515 
0156   0E76           00516         swapf   (Common_RAM + 6), W                         ; reg: 0x076
0157   39F0           00517         andlw   0xf0
0158   3804           00518         iorlw   0x04
0159   2961           00519         goto    function_015
gpasm-1.5.0 #1285 (Jan 23 2020) unidds_v1_08.   27.01.2020  22:56:48        PAGE 11


LOC    OBJECT CODE    LINE  SOURCE TEXT
  VALUE

                      00520 
015A                  00521 function_014:                                               ; address: 0x015a
                      00522 
015A   00F6           00523         movwf   (Common_RAM + 6)                            ; reg: 0x076
015B   2167           00524         call    function_016
                      00525 
015C                  00526 label_033:                                                  ; address: 0x015c
                      00527 
015C   0876           00528         movf    (Common_RAM + 6), W                         ; reg: 0x076
015D   39F0           00529         andlw   0xf0
015E   2161           00530         call    function_015
015F   0E76           00531         swapf   (Common_RAM + 6), W                         ; reg: 0x076
                      00532 
0160                  00533 label_034:                                                  ; address: 0x0160
                      00534 
0160   39F0           00535         andlw   0xf0
                      00536 
0161                  00537 function_015:                                               ; address: 0x0161
                      00538 
0161   1987           00539         btfsc   PORTC, RC3                                  ; reg: 0x007, bit: 3
0162   3808           00540         iorlw   0x08
                      00541 
0163                  00542 label_035:                                                  ; address: 0x0163
                      00543 
0163   0087           00544         movwf   PORTC                                       ; reg: 0x007
0164   1407           00545         bsf     PORTC, RC0                                  ; reg: 0x007, bit: 0
                      00546 
0165                  00547 label_036:                                                  ; address: 0x0165
                      00548 
0165   1007           00549         bcf     PORTC, RC0                                  ; reg: 0x007, bit: 0
0166   0008           00550         return
                      00551 
0167                  00552 function_016:                                               ; address: 0x0167
                      00553 
0167   1787           00554         bsf     PORTC, RC7                                  ; reg: 0x007, bit: 7
0168   1683           00555         bsf     STATUS, RP0                                 ; reg: 0x003, bit: 5
0169   1303           00556         bcf     STATUS, RP1                                 ; reg: 0x003, bit: 6
                      00557 
016A                  00558 label_037:                                                  ; address: 0x016a
                      00559 
016A   3080           00560         movlw   0x80
016B   0087           00561         movwf   PORTC                                       ; reg: 0x007
                      00562 
016C                  00563 label_038:                                                  ; address: 0x016c
                      00564 
016C   1283           00565         bcf     STATUS, RP0                                 ; reg: 0x003, bit: 5
016D   1303           00566         bcf     STATUS, RP1                                 ; reg: 0x003, bit: 6
                      00567 
016E                  00568 label_039:                                                  ; address: 0x016e
                      00569 
016E   1107           00570         bcf     PORTC, RC2                                  ; reg: 0x007, bit: 2
016F   1487           00571         bsf     PORTC, RC1                                  ; reg: 0x007, bit: 1
                      00572 
gpasm-1.5.0 #1285 (Jan 23 2020) unidds_v1_08.   27.01.2020  22:56:48        PAGE 12


LOC    OBJECT CODE    LINE  SOURCE TEXT
  VALUE

0170                  00573 label_040:                                                  ; address: 0x0170
                      00574 
0170   13B1           00575         bcf     0x31, 0x7                                   ; reg: 0x031
0171   1407           00576         bsf     PORTC, RC0                                  ; reg: 0x007, bit: 0
0172   0000           00577         nop
0173   1F87           00578         btfss   PORTC, RC7                                  ; reg: 0x007, bit: 7
0174   17B1           00579         bsf     0x31, 0x7                                   ; reg: 0x031
0175   1007           00580         bcf     PORTC, RC0                                  ; reg: 0x007, bit: 0
0176   0000           00581         nop
0177   1407           00582         bsf     PORTC, RC0                                  ; reg: 0x007, bit: 0
0178   0000           00583         nop
0179   1007           00584         bcf     PORTC, RC0                                  ; reg: 0x007, bit: 0
017A   1FB1           00585         btfss   0x31, 0x7                                   ; reg: 0x031
017B   2970           00586         goto    label_040
017C   1683           00587         bsf     STATUS, RP0                                 ; reg: 0x003, bit: 5
017D   1303           00588         bcf     STATUS, RP1                                 ; reg: 0x003, bit: 6
017E   3000           00589         movlw   0x00
017F   0087           00590         movwf   TRISC                                       ; reg: 0x087
0180   1283           00591         bcf     STATUS, RP0                                 ; reg: 0x003, bit: 5
0181   1303           00592         bcf     STATUS, RP1                                 ; reg: 0x003, bit: 6
0182   1087           00593         bcf     PORTC, RC1                                  ; reg: 0x007, bit: 1
0183   0008           00594         return
                      00595 
0184                  00596 function_017:                                               ; address: 0x0184
                      00597 
0184   3001           00598         movlw   0x01
0185   295A           00599         goto    function_014
0186   3002           00600         movlw   0x02
0187   295A           00601         goto    function_014
0188   3080           00602         movlw   0x80
0189   295A           00603         goto    function_014
018A   30C0           00604         movlw   0xc0
018B   295A           00605         goto    function_014
                      00606 
018C                  00607 function_018:                                               ; address: 0x018c
                      00608 
018C   3880           00609         iorlw   0x80
018D   295A           00610         goto    function_014
                      00611 
018E                  00612 function_019:                                               ; address: 0x018e
                      00613 
018E   1283           00614         bcf     STATUS, RP0                                 ; reg: 0x003, bit: 5
018F   1703           00615         bsf     STATUS, RP1                                 ; reg: 0x003, bit: 6
0190   008D           00616         movwf   EEADR                                       ; reg: 0x10d
0191   0874           00617         movf    0x74, W                                     ; reg: 0x174
0192   008F           00618         movwf   EEADRH                                      ; reg: 0x10f
0193   1683           00619         bsf     STATUS, RP0                                 ; reg: 0x003, bit: 5
0194   1703           00620         bsf     STATUS, RP1                                 ; reg: 0x003, bit: 6
0195   178C           00621         bsf     EECON1, EEPGD                               ; reg: 0x18c, bit: 7
                      00622 
0196                  00623 label_041:                                                  ; address: 0x0196
                      00624 
0196   138B           00625         bcf     INTCON, GIE                                 ; reg: 0x00b, bit: 7
gpasm-1.5.0 #1285 (Jan 23 2020) unidds_v1_08.   27.01.2020  22:56:48        PAGE 13


LOC    OBJECT CODE    LINE  SOURCE TEXT
  VALUE

0197   1B8B           00626         btfsc   INTCON, GIE                                 ; reg: 0x00b, bit: 7
0198   2996           00627         goto    label_041
0199   140C           00628         bsf     PIR1, TMR1IF                                ; reg: 0x00c, bit: 0
019A   0000           00629         nop
019B   0000           00630         nop
019C   178B           00631         bsf     INTCON, GIE                                 ; reg: 0x00b, bit: 7
019D   1283           00632         bcf     STATUS, RP0                                 ; reg: 0x003, bit: 5
019E   1703           00633         bsf     STATUS, RP1                                 ; reg: 0x003, bit: 6
019F   080C           00634         movf    EEDATA, W                                   ; reg: 0x10c
01A0   1283           00635         bcf     STATUS, RP0                                 ; reg: 0x003, bit: 5
01A1   1303           00636         bcf     STATUS, RP1                                 ; reg: 0x003, bit: 6
01A2   218C           00637         call    function_018
01A3   1283           00638         bcf     STATUS, RP0                                 ; reg: 0x003, bit: 5
01A4   1703           00639         bsf     STATUS, RP1                                 ; reg: 0x003, bit: 6
01A5   0A8D           00640         incf    EEADR, F                                    ; reg: 0x10d
01A6   1903           00641         btfsc   STATUS, Z                                   ; reg: 0x003, bit: 2
01A7   0A8F           00642         incf    EEADRH, F                                   ; reg: 0x10f
                      00643 
01A8                  00644 label_042:                                                  ; address: 0x01a8
                      00645 
01A8   1683           00646         bsf     STATUS, RP0                                 ; reg: 0x003, bit: 5
01A9   1703           00647         bsf     STATUS, RP1                                 ; reg: 0x003, bit: 6
01AA   178C           00648         bsf     EECON1, EEPGD                               ; reg: 0x18c, bit: 7
                      00649 
01AB                  00650 label_043:                                                  ; address: 0x01ab
                      00651 
01AB   138B           00652         bcf     INTCON, GIE                                 ; reg: 0x00b, bit: 7
01AC   1B8B           00653         btfsc   INTCON, GIE                                 ; reg: 0x00b, bit: 7
01AD   29AB           00654         goto    label_043
01AE   140C           00655         bsf     PIR1, TMR1IF                                ; reg: 0x00c, bit: 0
01AF   0000           00656         nop
01B0   0000           00657         nop
01B1   178B           00658         bsf     INTCON, GIE                                 ; reg: 0x00b, bit: 7
01B2   1283           00659         bcf     STATUS, RP0                                 ; reg: 0x003, bit: 5
01B3   1703           00660         bsf     STATUS, RP1                                 ; reg: 0x003, bit: 6
01B4   080C           00661         movf    EEDATA, W                                   ; reg: 0x10c
01B5   1283           00662         bcf     STATUS, RP0                                 ; reg: 0x003, bit: 5
01B6   1303           00663         bcf     STATUS, RP1                                 ; reg: 0x003, bit: 6
01B7   39FF           00664         andlw   0xff
01B8   1903           00665         btfsc   STATUS, Z                                   ; reg: 0x003, bit: 2
01B9   0008           00666         return
01BA   2150           00667         call    function_013
01BB   1283           00668         bcf     STATUS, RP0                                 ; reg: 0x003, bit: 5
01BC   1703           00669         bsf     STATUS, RP1                                 ; reg: 0x003, bit: 6
01BD   0A8D           00670         incf    EEADR, F                                    ; reg: 0x10d
01BE   1903           00671         btfsc   STATUS, Z                                   ; reg: 0x003, bit: 2
01BF   0A8F           00672         incf    EEADRH, F                                   ; reg: 0x10f
01C0   29A8           00673         goto    label_042
                      00674 
01C1                  00675 function_020:                                               ; address: 0x01c1
                      00676 
01C1   3020           00677         movlw   0x20
01C2   2950           00678         goto    function_013
gpasm-1.5.0 #1285 (Jan 23 2020) unidds_v1_08.   27.01.2020  22:56:48        PAGE 14


LOC    OBJECT CODE    LINE  SOURCE TEXT
  VALUE

                      00679 
01C3                  00680 function_021:                                               ; address: 0x01c3
                      00681 
01C3   00F7           00682         movwf   (Common_RAM + 7)                            ; reg: 0x077
01C4   0E77           00683         swapf   (Common_RAM + 7), W                         ; reg: 0x077
01C5   2052           00684         call    function_000
01C6   2150           00685         call    function_013
01C7   0877           00686         movf    (Common_RAM + 7), W                         ; reg: 0x077
01C8   2052           00687         call    function_000
01C9   2950           00688         goto    function_013
                      00689 
01CA                  00690 label_044:                                                  ; address: 0x01ca
                      00691 
01CA   20E1           00692         call    function_005
01CB   2525           00693         call    function_041
01CC   1605           00694         bsf     PORTA, RA4                                  ; reg: 0x005, bit: 4
01CD   2139           00695         call    function_012
01CE   3008           00696         movlw   0x08
01CF   00F4           00697         movwf   (Common_RAM + 4)                            ; reg: 0x074
01D0   3060           00698         movlw   0x60
01D1   218E           00699         call    function_019
01D2   3008           00700         movlw   0x08
01D3   00F4           00701         movwf   (Common_RAM + 4)                            ; reg: 0x074
01D4   3042           00702         movlw   0x42
01D5   218E           00703         call    function_019
01D6   3007           00704         movlw   0x07
01D7   00B8           00705         movwf   0x38                                        ; reg: 0x038
                      00706 
01D8                  00707 label_045:                                                  ; address: 0x01d8
                      00708 
01D8   211D           00709         call    function_007
01D9   302E           00710         movlw   0x2e
01DA   2150           00711         call    function_013
01DB   0BB8           00712         decfsz  0x38, F                                     ; reg: 0x038
01DC   29D8           00713         goto    label_045
01DD   261A           00714         call    function_054
01DE   0A20           00715         incf    0x20, W                                     ; reg: 0x020
01DF   1D03           00716         btfss   STATUS, Z                                   ; reg: 0x003, bit: 2
01E0   29F7           00717         goto    label_047
01E1   3002           00718         movlw   0x02
01E2   00B8           00719         movwf   0x38                                        ; reg: 0x038
01E3   3009           00720         movlw   0x09
01E4   00F4           00721         movwf   (Common_RAM + 4)                            ; reg: 0x074
01E5   3006           00722         movlw   0x06
01E6   218E           00723         call    function_019
01E7   3009           00724         movlw   0x09
01E8   00F4           00725         movwf   (Common_RAM + 4)                            ; reg: 0x074
01E9   3018           00726         movlw   0x18
01EA   218E           00727         call    function_019
01EB   2117           00728         call    function_006
                      00729 
01EC                  00730 label_046:                                                  ; address: 0x01ec
                      00731 
gpasm-1.5.0 #1285 (Jan 23 2020) unidds_v1_08.   27.01.2020  22:56:48        PAGE 15


LOC    OBJECT CODE    LINE  SOURCE TEXT
  VALUE

01EC   3008           00732         movlw   0x08
01ED   215A           00733         call    function_014
01EE   2117           00734         call    function_006
01EF   300C           00735         movlw   0x0c
01F0   215A           00736         call    function_014
01F1   2117           00737         call    function_006
01F2   0BB8           00738         decfsz  0x38, F                                     ; reg: 0x038
01F3   29EC           00739         goto    label_046
01F4   118A           00740         bcf     PCLATH, 0x3                                 ; reg: 0x00a
01F5   160A           00741         bsf     PCLATH, 0x4                                 ; reg: 0x00a
01F6   296E           00742         goto    label_183
                      00743 
01F7                  00744 label_047:                                                  ; address: 0x01f7
                      00745 
01F7   1A86           00746         btfsc   PORTB, RB5                                  ; reg: 0x006, bit: 5
01F8   2A0E           00747         goto    label_197
01F9   2184           00748         call    function_067
01FA   3008           00749         movlw   0x08
01FB   00F4           00750         movwf   (Common_RAM + 4)                            ; reg: 0x074
01FC   3072           00751         movlw   0x72
01FD   218E           00752         call    0x018e
01FE   3008           00753         movlw   0x08
01FF   00F4           00754         movwf   (Common_RAM + 4)                            ; reg: 0x074
0200   304E           00755         movlw   0x4e
0201   218E           00756         call    0x018e
0202   2117           00757         call    0x0117
0203   2117           00758         call    0x0117
0204   2117           00759         call    0x0117
0205   2117           00760         call    0x0117
0206   2117           00761         call    0x0117
0207   1E86           00762         btfss   PORTB, RB5                                  ; reg: 0x006, bit: 5
0208   2A07           00763         goto    0x0207
0209   118A           00764         bcf     PCLATH, 0x3                                 ; reg: 0x00a
020A   160A           00765         bsf     PCLATH, 0x4                                 ; reg: 0x00a
020B   2E16           00766         goto    label_247
020C   118A           00767         bcf     PCLATH, 0x3                                 ; reg: 0x00a
020D   120A           00768         bcf     PCLATH, 0x4                                 ; reg: 0x00a
020E   2184           00769         call    function_017
020F   1D20           00770         btfss   0x20, 0x2                                   ; reg: 0x020
0210   1205           00771         bcf     PORTA, RA4                                  ; reg: 0x005, bit: 4
0211   25E6           00772         call    function_051
0212   15B1           00773         bsf     0x31, 0x3                                   ; reg: 0x031
0213   01BC           00774         clrf    0x3c                                        ; reg: 0x03c
0214   3002           00775         movlw   0x02
0215   00BD           00776         movwf   0x3d                                        ; reg: 0x03d
0216   3010           00777         movlw   0x10
0217   00E2           00778         movwf   0x62                                        ; reg: 0x062
0218   1532           00779         bsf     0x32, 0x2                                   ; reg: 0x032
0219   14B2           00780         bsf     0x32, 0x1                                   ; reg: 0x032
                      00781 
021A                  00782 label_048:                                                  ; address: 0x021a
                      00783 
021A   1431           00784         bsf     0x31, 0x0                                   ; reg: 0x031
gpasm-1.5.0 #1285 (Jan 23 2020) unidds_v1_08.   27.01.2020  22:56:48        PAGE 16


LOC    OBJECT CODE    LINE  SOURCE TEXT
  VALUE

021B   08BE           00785         movf    0x3e, F                                     ; reg: 0x03e
021C   1903           00786         btfsc   STATUS, Z                                   ; reg: 0x003, bit: 2
021D   2A33           00787         goto    label_053
021E   1031           00788         bcf     0x31, 0x0                                   ; reg: 0x031
021F   25E6           00789         call    function_051
0220   083E           00790         movf    0x3e, W                                     ; reg: 0x03e
0221   1BBE           00791         btfsc   0x3e, 0x7                                   ; reg: 0x03e
0222   2A2A           00792         goto    label_050
0223   01BE           00793         clrf    0x3e                                        ; reg: 0x03e
0224   397F           00794         andlw   0x7f
0225   00C8           00795         movwf   0x48                                        ; reg: 0x048
                      00796 
0226                  00797 label_049:                                                  ; address: 0x0226
                      00798 
0226   2380           00799         call    function_028
0227   0BC8           00800         decfsz  0x48, F                                     ; reg: 0x048
0228   2A26           00801         goto    label_049
0229   2A31           00802         goto    label_052
                      00803 
022A                  00804 label_050:                                                  ; address: 0x022a
                      00805 
022A   093E           00806         comf    0x3e, W                                     ; reg: 0x03e
022B   01BE           00807         clrf    0x3e                                        ; reg: 0x03e
022C   3E01           00808         addlw   0x01
022D   00C8           00809         movwf   0x48                                        ; reg: 0x048
                      00810 
022E                  00811 label_051:                                                  ; address: 0x022e
                      00812 
022E   23C3           00813         call    function_029
022F   0BC8           00814         decfsz  0x48, F                                     ; reg: 0x048
0230   2A2E           00815         goto    label_051
                      00816 
0231                  00817 label_052:                                                  ; address: 0x0231
                      00818 
0231   14B2           00819         bsf     0x32, 0x1                                   ; reg: 0x032
0232   1532           00820         bsf     0x32, 0x2                                   ; reg: 0x032
                      00821 
0233                  00822 label_053:                                                  ; address: 0x0233
                      00823 
0233   1D32           00824         btfss   0x32, 0x2                                   ; reg: 0x032
0234   2A39           00825         goto    label_054
0235   1031           00826         bcf     0x31, 0x0                                   ; reg: 0x031
0236   2313           00827         call    function_023
0237   22F1           00828         call    function_022
0238   1132           00829         bcf     0x32, 0x2                                   ; reg: 0x032
                      00830 
0239                  00831 label_054:                                                  ; address: 0x0239
                      00832 
0239   1CB2           00833         btfss   0x32, 0x1                                   ; reg: 0x032
023A   2A42           00834         goto    label_055
023B   1031           00835         bcf     0x31, 0x0                                   ; reg: 0x031
023C   24B3           00836         call    function_038
023D   1D87           00837         btfss   PORTC, RC3                                  ; reg: 0x007, bit: 3
gpasm-1.5.0 #1285 (Jan 23 2020) unidds_v1_08.   27.01.2020  22:56:48        PAGE 17


LOC    OBJECT CODE    LINE  SOURCE TEXT
  VALUE

023E   24F9           00838         call    function_040
023F   1987           00839         btfsc   PORTC, RC3                                  ; reg: 0x007, bit: 3
0240   24EE           00840         call    function_039
0241   10B2           00841         bcf     0x32, 0x1                                   ; reg: 0x032
                      00842 
0242                  00843 label_055:                                                  ; address: 0x0242
                      00844 
0242   1A86           00845         btfsc   PORTB, RB5                                  ; reg: 0x006, bit: 5
0243   2A5C           00846         goto    label_059
0244   1031           00847         bcf     0x31, 0x0                                   ; reg: 0x031
0245   1820           00848         btfsc   0x20, 0x0                                   ; reg: 0x020
0246   1605           00849         bsf     PORTA, RA4                                  ; reg: 0x005, bit: 4
0247   20C7           00850         call    function_003
0248   083B           00851         movf    0x3b, W                                     ; reg: 0x03b
0249   3A01           00852         xorlw   0x01
024A   1D03           00853         btfss   STATUS, Z                                   ; reg: 0x003, bit: 2
024B   2A55           00854         goto    label_057
024C   0ABD           00855         incf    0x3d, F                                     ; reg: 0x03d
024D   083D           00856         movf    0x3d, W                                     ; reg: 0x03d
024E   3A04           00857         xorlw   0x04
024F   1D03           00858         btfss   STATUS, Z                                   ; reg: 0x003, bit: 2
0250   2A53           00859         goto    label_056
0251   3001           00860         movlw   0x01
0252   00BD           00861         movwf   0x3d                                        ; reg: 0x03d
                      00862 
0253                  00863 label_056:                                                  ; address: 0x0253
                      00864 
0253   1532           00865         bsf     0x32, 0x2                                   ; reg: 0x032
0254   2A5A           00866         goto    label_058
                      00867 
0255                  00868 label_057:                                                  ; address: 0x0255
                      00869 
0255   118A           00870         bcf     PCLATH, 0x3                                 ; reg: 0x00a
0256   160A           00871         bsf     PCLATH, 0x4                                 ; reg: 0x00a
0257   205F           00872         call    function_064
0258   118A           00873         bcf     PCLATH, 0x3                                 ; reg: 0x00a
0259   120A           00874         bcf     PCLATH, 0x4                                 ; reg: 0x00a
                      00875 
025A                  00876 label_058:                                                  ; address: 0x025a
                      00877 
025A   1820           00878         btfsc   0x20, 0x0                                   ; reg: 0x020
025B   25E6           00879         call    function_051
                      00880 
025C                  00881 label_059:                                                  ; address: 0x025c
                      00882 
025C   1CA0           00883         btfss   0x20, 0x1                                   ; reg: 0x020
025D   2A79           00884         goto    label_061
025E   1F06           00885         btfss   PORTB, RB6                                  ; reg: 0x006, bit: 6
025F   14B1           00886         bsf     0x31, 0x1                                   ; reg: 0x031
0260   1F86           00887         btfss   PORTB, RB7                                  ; reg: 0x006, bit: 7
0261   1531           00888         bsf     0x31, 0x2                                   ; reg: 0x031
0262   1CB1           00889         btfss   0x31, 0x1                                   ; reg: 0x031
0263   2A6C           00890         goto    label_060
gpasm-1.5.0 #1285 (Jan 23 2020) unidds_v1_08.   27.01.2020  22:56:48        PAGE 18


LOC    OBJECT CODE    LINE  SOURCE TEXT
  VALUE

0264   1031           00891         bcf     0x31, 0x0                                   ; reg: 0x031
0265   24EE           00892         call    function_039
0266   1587           00893         bsf     PORTC, RC3                                  ; reg: 0x007, bit: 3
0267   25B4           00894         call    function_050
0268   1187           00895         bcf     PORTC, RC3                                  ; reg: 0x007, bit: 3
0269   24F9           00896         call    function_040
026A   25B4           00897         call    function_050
026B   10B1           00898         bcf     0x31, 0x1                                   ; reg: 0x031
                      00899 
026C                  00900 label_060:                                                  ; address: 0x026c
                      00901 
026C   1D31           00902         btfss   0x31, 0x2                                   ; reg: 0x031
026D   2A85           00903         goto    label_063
026E   1031           00904         bcf     0x31, 0x0                                   ; reg: 0x031
026F   24EE           00905         call    function_039
0270   1587           00906         bsf     PORTC, RC3                                  ; reg: 0x007, bit: 3
0271   25B4           00907         call    function_050
0272   25B4           00908         call    function_050
0273   25B4           00909         call    function_050
0274   1187           00910         bcf     PORTC, RC3                                  ; reg: 0x007, bit: 3
0275   24F9           00911         call    function_040
0276   25B4           00912         call    function_050
0277   1131           00913         bcf     0x31, 0x2                                   ; reg: 0x031
0278   2A85           00914         goto    label_063
                      00915 
0279                  00916 label_061:                                                  ; address: 0x0279
                      00917 
0279   1B06           00918         btfsc   PORTB, RB6                                  ; reg: 0x006, bit: 6
027A   2A81           00919         goto    label_062
027B   1987           00920         btfsc   PORTC, RC3                                  ; reg: 0x007, bit: 3
027C   2A85           00921         goto    label_063
027D   1031           00922         bcf     0x31, 0x0                                   ; reg: 0x031
027E   24EE           00923         call    function_039
027F   1587           00924         bsf     PORTC, RC3                                  ; reg: 0x007, bit: 3
0280   2A85           00925         goto    label_063
                      00926 
0281                  00927 label_062:                                                  ; address: 0x0281
                      00928 
0281   1D87           00929         btfss   PORTC, RC3                                  ; reg: 0x007, bit: 3
0282   2A85           00930         goto    label_063
0283   24F9           00931         call    function_040
0284   1187           00932         bcf     PORTC, RC3                                  ; reg: 0x007, bit: 3
                      00933 
0285                  00934 label_063:                                                  ; address: 0x0285
                      00935 
0285   08DF           00936         movf    0x5f, F                                     ; reg: 0x05f
0286   1903           00937         btfsc   STATUS, Z                                   ; reg: 0x003, bit: 2
0287   2A90           00938         goto    label_064
0288   1DB1           00939         btfss   0x31, 0x3                                   ; reg: 0x031
0289   2A97           00940         goto    label_065
028A   1820           00941         btfsc   0x20, 0x0                                   ; reg: 0x020
028B   1605           00942         bsf     PORTA, RA4                                  ; reg: 0x005, bit: 4
028C   11B1           00943         bcf     0x31, 0x3                                   ; reg: 0x031
gpasm-1.5.0 #1285 (Jan 23 2020) unidds_v1_08.   27.01.2020  22:56:48        PAGE 19


LOC    OBJECT CODE    LINE  SOURCE TEXT
  VALUE

028D   1631           00944         bsf     0x31, 0x4                                   ; reg: 0x031
028E   1532           00945         bsf     0x32, 0x2                                   ; reg: 0x032
028F   2A97           00946         goto    label_065
                      00947 
0290                  00948 label_064:                                                  ; address: 0x0290
                      00949 
0290   1E31           00950         btfss   0x31, 0x4                                   ; reg: 0x031
0291   2A97           00951         goto    label_065
0292   1820           00952         btfsc   0x20, 0x0                                   ; reg: 0x020
0293   1205           00953         bcf     PORTA, RA4                                  ; reg: 0x005, bit: 4
0294   15B1           00954         bsf     0x31, 0x3                                   ; reg: 0x031
0295   1231           00955         bcf     0x31, 0x4                                   ; reg: 0x031
0296   1532           00956         bsf     0x32, 0x2                                   ; reg: 0x032
                      00957 
0297                  00958 label_065:                                                  ; address: 0x0297
                      00959 
0297   1F31           00960         btfss   0x31, 0x6                                   ; reg: 0x031
0298   2A9E           00961         goto    label_066
0299   25E6           00962         call    function_051
029A   2313           00963         call    function_023
029B   22F1           00964         call    function_022
029C   1031           00965         bcf     0x31, 0x0                                   ; reg: 0x031
029D   1331           00966         bcf     0x31, 0x6                                   ; reg: 0x031
                      00967 
029E                  00968 label_066:                                                  ; address: 0x029e
                      00969 
029E   1C31           00970         btfss   0x31, 0x0                                   ; reg: 0x031
029F   2AF0           00971         goto    label_075
02A0   0862           00972         movf    0x62, W                                     ; reg: 0x062
02A1   3A01           00973         xorlw   0x01
02A2   1D03           00974         btfss   STATUS, Z                                   ; reg: 0x003, bit: 2
02A3   2AA9           00975         goto    label_067
02A4   118A           00976         bcf     PCLATH, 0x3                                 ; reg: 0x00a
02A5   160A           00977         bsf     PCLATH, 0x4                                 ; reg: 0x00a
02A6   2435           00978         call    function_073
02A7   118A           00979         bcf     PCLATH, 0x3                                 ; reg: 0x00a
02A8   120A           00980         bcf     PCLATH, 0x4                                 ; reg: 0x00a
                      00981 
02A9                  00982 label_067:                                                  ; address: 0x02a9
                      00983 
02A9   0862           00984         movf    0x62, W                                     ; reg: 0x062
02AA   3A02           00985         xorlw   0x02
02AB   1D03           00986         btfss   STATUS, Z                                   ; reg: 0x003, bit: 2
02AC   2AB2           00987         goto    label_068
02AD   118A           00988         bcf     PCLATH, 0x3                                 ; reg: 0x00a
02AE   160A           00989         bsf     PCLATH, 0x4                                 ; reg: 0x00a
02AF   23F9           00990         call    function_072
02B0   118A           00991         bcf     PCLATH, 0x3                                 ; reg: 0x00a
02B1   120A           00992         bcf     PCLATH, 0x4                                 ; reg: 0x00a
                      00993 
02B2                  00994 label_068:                                                  ; address: 0x02b2
                      00995 
02B2   0862           00996         movf    0x62, W                                     ; reg: 0x062
gpasm-1.5.0 #1285 (Jan 23 2020) unidds_v1_08.   27.01.2020  22:56:48        PAGE 20


LOC    OBJECT CODE    LINE  SOURCE TEXT
  VALUE

02B3   3A03           00997         xorlw   0x03
02B4   1D03           00998         btfss   STATUS, Z                                   ; reg: 0x003, bit: 2
02B5   2ADF           00999         goto    label_071
02B6   1683           01000         bsf     STATUS, RP0                                 ; reg: 0x003, bit: 5
02B7   1303           01001         bcf     STATUS, RP1                                 ; reg: 0x003, bit: 6
02B8   0DA5           01002         rlf     0x25, F                                     ; reg: 0x0a5
02B9   0DA6           01003         rlf     0x26, F                                     ; reg: 0x0a6
02BA   0DA5           01004         rlf     0x25, F                                     ; reg: 0x0a5
02BB   0DA6           01005         rlf     0x26, F                                     ; reg: 0x0a6
02BC   0DA5           01006         rlf     0x25, F                                     ; reg: 0x0a5
02BD   0DA6           01007         rlf     0x26, F                                     ; reg: 0x0a6
02BE   0DA5           01008         rlf     0x25, F                                     ; reg: 0x0a5
02BF   0DA6           01009         rlf     0x26, F                                     ; reg: 0x0a6
02C0   0826           01010         movf    0x26, W                                     ; reg: 0x0a6
02C1   00A3           01011         movwf   0x23                                        ; reg: 0x0a3
02C2   0827           01012         movf    0x27, W                                     ; reg: 0x0a7
02C3   02A6           01013         subwf   0x26, F                                     ; reg: 0x0a6
02C4   1903           01014         btfsc   STATUS, Z                                   ; reg: 0x003, bit: 2
02C5   2AD9           01015         goto    label_069
02C6   0823           01016         movf    0x23, W                                     ; reg: 0x023
02C7   00A6           01017         movwf   0x26                                        ; reg: 0x026
02C8   0A27           01018         incf    0x27, W                                     ; reg: 0x027
02C9   02A6           01019         subwf   0x26, F                                     ; reg: 0x026
02CA   1903           01020         btfsc   STATUS, Z                                   ; reg: 0x003, bit: 2
02CB   2AD9           01021         goto    label_069
02CC   0823           01022         movf    0x23, W                                     ; reg: 0x023
02CD   00A6           01023         movwf   0x26                                        ; reg: 0x026
02CE   0327           01024         decf    0x27, W                                     ; reg: 0x027
02CF   02A6           01025         subwf   0x26, F                                     ; reg: 0x026
02D0   1903           01026         btfsc   STATUS, Z                                   ; reg: 0x003, bit: 2
02D1   2AD9           01027         goto    label_069
02D2   1283           01028         bcf     STATUS, RP0                                 ; reg: 0x003, bit: 5
02D3   1303           01029         bcf     STATUS, RP1                                 ; reg: 0x003, bit: 6
02D4   1731           01030         bsf     0x31, 0x6                                   ; reg: 0x031
02D5   1683           01031         bsf     STATUS, RP0                                 ; reg: 0x003, bit: 5
02D6   1303           01032         bcf     STATUS, RP1                                 ; reg: 0x003, bit: 6
02D7   0823           01033         movf    0x23, W                                     ; reg: 0x0a3
02D8   00A7           01034         movwf   0x27                                        ; reg: 0x0a7
                      01035 
02D9                  01036 label_069:                                                  ; address: 0x02d9
                      01037 
02D9   01A3           01038         clrf    0x23                                        ; reg: 0x023
02DA   01A4           01039         clrf    0x24                                        ; reg: 0x024
02DB   01A5           01040         clrf    0x25                                        ; reg: 0x025
02DC   01A6           01041         clrf    0x26                                        ; reg: 0x026
                      01042 
02DD                  01043 label_070:                                                  ; address: 0x02dd
                      01044 
02DD   1283           01045         bcf     STATUS, RP0                                 ; reg: 0x003, bit: 5
02DE   1303           01046         bcf     STATUS, RP1                                 ; reg: 0x003, bit: 6
                      01047 
02DF                  01048 label_071:                                                  ; address: 0x02df
                      01049 
gpasm-1.5.0 #1285 (Jan 23 2020) unidds_v1_08.   27.01.2020  22:56:48        PAGE 21


LOC    OBJECT CODE    LINE  SOURCE TEXT
  VALUE

02DF   0BE2           01050         decfsz  0x62, F                                     ; reg: 0x062
02E0   2AE3           01051         goto    label_072
02E1   3010           01052         movlw   0x10
02E2   00E2           01053         movwf   0x62                                        ; reg: 0x062
                      01054 
02E3                  01055 label_072:                                                  ; address: 0x02e3
                      01056 
02E3   2575           01057         call    function_048
02E4   1683           01058         bsf     STATUS, RP0                                 ; reg: 0x003, bit: 5
02E5   1303           01059         bcf     STATUS, RP1                                 ; reg: 0x003, bit: 6
                      01060 
02E6                  01061 label_073:                                                  ; address: 0x02e6
                      01062 
02E6   00A3           01063         movwf   0x23                                        ; reg: 0x023
02E7   01A4           01064         clrf    0x24                                        ; reg: 0x024
02E8   0823           01065         movf    0x23, W                                     ; reg: 0x023
02E9   07A5           01066         addwf   0x25, F                                     ; reg: 0x025
02EA   0824           01067         movf    0x24, W                                     ; reg: 0x024
02EB   1803           01068         btfsc   STATUS, C                                   ; reg: 0x003, bit: 0
02EC   0F24           01069         incfsz  0x24, W                                     ; reg: 0x024
02ED   07A6           01070         addwf   0x26, F                                     ; reg: 0x026
02EE   1283           01071         bcf     STATUS, RP0                                 ; reg: 0x003, bit: 5
                      01072 
02EF                  01073 label_074:                                                  ; address: 0x02ef
                      01074 
02EF   1303           01075         bcf     STATUS, RP1                                 ; reg: 0x003, bit: 6
                      01076 
02F0                  01077 label_075:                                                  ; address: 0x02f0
                      01078 
02F0   2A1A           01079         goto    label_048
                      01080 
02F1                  01081 function_022:                                               ; address: 0x02f1
                      01082 
02F1   1CA0           01083         btfss   0x20, 0x1                                   ; reg: 0x020
02F2   2B00           01084         goto    label_077
02F3   1F31           01085         btfss   0x31, 0x6                                   ; reg: 0x031
02F4   2B00           01086         goto    label_077
02F5   3008           01087         movlw   0x08
02F6   00F4           01088         movwf   (Common_RAM + 4)                            ; reg: 0x074
02F7   308B           01089         movlw   0x8b
                      01090 
02F8                  01091 label_076:                                                  ; address: 0x02f8
                      01092 
02F8   218E           01093         call    function_019
02F9   2575           01094         call    function_048
02FA   20A1           01095         call    function_002
02FB   21C3           01096         call    function_021
02FC   21C1           01097         call    function_020
02FD   21C1           01098         call    function_020
02FE   21C1           01099         call    function_020
02FF   0008           01100         return
                      01101 
0300                  01102 label_077:                                                  ; address: 0x0300
gpasm-1.5.0 #1285 (Jan 23 2020) unidds_v1_08.   27.01.2020  22:56:48        PAGE 22


LOC    OBJECT CODE    LINE  SOURCE TEXT
  VALUE

                      01103 
0300   3040           01104         movlw   0x40
                      01105 
0301                  01106 label_078:                                                  ; address: 0x0301
                      01107 
0301   218C           01108         call    function_018
0302   1EB2           01109         btfss   0x32, 0x5                                   ; reg: 0x032
0303   2B06           01110         goto    label_079
0304   3078           01111         movlw   0x78
0305   2B0E           01112         goto    label_081
                      01113 
0306                  01114 label_079:                                                  ; address: 0x0306
                      01115 
0306   3041           01116         movlw   0x41
0307   1C32           01117         btfss   0x32, 0x0                                   ; reg: 0x032
0308   3042           01118         movlw   0x42
0309   1DA0           01119         btfss   0x20, 0x3                                   ; reg: 0x020
                      01120 
030A                  01121 label_080:                                                  ; address: 0x030a
                      01122 
030A   2B0E           01123         goto    label_081
030B   3061           01124         movlw   0x61
030C   1C32           01125         btfss   0x32, 0x0                                   ; reg: 0x032
030D   3062           01126         movlw   0x62
                      01127 
030E                  01128 label_081:                                                  ; address: 0x030e
                      01129 
030E   2150           01130         call    function_013
030F   302C           01131         movlw   0x2c
0310   1C32           01132         btfss   0x32, 0x0                                   ; reg: 0x032
0311   3030           01133         movlw   0x30
0312   2B25           01134         goto    label_085
                      01135 
0313                  01136 function_023:                                               ; address: 0x0313
                      01137 
0313   0103           01138         clrw
0314   218C           01139         call    function_018
0315   1EB2           01140         btfss   0x32, 0x5                                   ; reg: 0x032
0316   2B19           01141         goto    label_082
0317   3072           01142         movlw   0x72
0318   2B21           01143         goto    label_084
                      01144 
0319                  01145 label_082:                                                  ; address: 0x0319
                      01146 
0319   3041           01147         movlw   0x41
031A   1832           01148         btfsc   0x32, 0x0                                   ; reg: 0x032
031B   3042           01149         movlw   0x42
                      01150 
031C                  01151 label_083:                                                  ; address: 0x031c
                      01152 
031C   1DA0           01153         btfss   0x20, 0x3                                   ; reg: 0x020
031D   2B21           01154         goto    label_084
031E   3061           01155         movlw   0x61
gpasm-1.5.0 #1285 (Jan 23 2020) unidds_v1_08.   27.01.2020  22:56:48        PAGE 23


LOC    OBJECT CODE    LINE  SOURCE TEXT
  VALUE

031F   1832           01156         btfsc   0x32, 0x0                                   ; reg: 0x032
0320   3062           01157         movlw   0x62
                      01158 
0321                  01159 label_084:                                                  ; address: 0x0321
                      01160 
0321   2150           01161         call    function_013
0322   302C           01162         movlw   0x2c
0323   1832           01163         btfsc   0x32, 0x0                                   ; reg: 0x032
0324   3030           01164         movlw   0x30
                      01165 
0325                  01166 label_085:                                                  ; address: 0x0325
                      01167 
0325   0084           01168         movwf   FSR                                         ; reg: 0x004
0326   1720           01169         bsf     0x20, 0x6                                   ; reg: 0x020
0327   0E00           01170         swapf   INDF, W                                     ; reg: 0x000
0328   2352           01171         call    function_024
0329   0800           01172         movf    INDF, W                                     ; reg: 0x000
032A   2352           01173         call    function_024
032B   302E           01174         movlw   0x2e
032C   2150           01175         call    function_013
032D   0384           01176         decf    FSR, F                                      ; reg: 0x004
032E   0E00           01177         swapf   INDF, W                                     ; reg: 0x000
032F   2352           01178         call    function_024
0330   0800           01179         movf    INDF, W                                     ; reg: 0x000
0331   2352           01180         call    function_024
0332   0384           01181         decf    FSR, F                                      ; reg: 0x004
0333   0E00           01182         swapf   INDF, W                                     ; reg: 0x000
0334   2352           01183         call    function_024
0335   302E           01184         movlw   0x2e
0336   2150           01185         call    function_013
0337   083D           01186         movf    0x3d, W                                     ; reg: 0x03d
0338   3A03           01187         xorlw   0x03
0339   1903           01188         btfsc   STATUS, Z                                   ; reg: 0x003, bit: 2
033A   2B4B           01189         goto    label_087
033B   0800           01190         movf    INDF, W                                     ; reg: 0x000
033C   2352           01191         call    function_024
033D   083D           01192         movf    0x3d, W                                     ; reg: 0x03d
033E   3A02           01193         xorlw   0x02
033F   1903           01194         btfsc   STATUS, Z                                   ; reg: 0x003, bit: 2
0340   2B4D           01195         goto    label_088
                      01196 
0341                  01197 label_086:                                                  ; address: 0x0341
                      01198 
0341   0384           01199         decf    FSR, F                                      ; reg: 0x004
0342   0E00           01200         swapf   INDF, W                                     ; reg: 0x000
0343   2352           01201         call    function_024
0344   083D           01202         movf    0x3d, W                                     ; reg: 0x03d
0345   3A01           01203         xorlw   0x01
0346   1903           01204         btfsc   STATUS, Z                                   ; reg: 0x003, bit: 2
0347   2B4F           01205         goto    label_089
0348   0800           01206         movf    INDF, W                                     ; reg: 0x000
0349   2352           01207         call    function_024
034A   2B51           01208         goto    label_090
gpasm-1.5.0 #1285 (Jan 23 2020) unidds_v1_08.   27.01.2020  22:56:48        PAGE 24


LOC    OBJECT CODE    LINE  SOURCE TEXT
  VALUE

                      01209 
034B                  01210 label_087:                                                  ; address: 0x034b
                      01211 
034B   3020           01212         movlw   0x20
034C   2150           01213         call    function_013
                      01214 
034D                  01215 label_088:                                                  ; address: 0x034d
                      01216 
034D   3020           01217         movlw   0x20
034E   2150           01218         call    function_013
                      01219 
034F                  01220 label_089:                                                  ; address: 0x034f
                      01221 
034F   3020           01222         movlw   0x20
0350   2150           01223         call    function_013
                      01224 
0351                  01225 label_090:                                                  ; address: 0x0351
                      01226 
0351   0008           01227         return
                      01228 
0352                  01229 function_024:                                               ; address: 0x0352
                      01230 
0352   390F           01231         andlw   0x0f
0353   1D03           01232         btfss   STATUS, Z                                   ; reg: 0x003, bit: 2
0354   2B59           01233         goto    label_091
0355   1F20           01234         btfss   0x20, 0x6                                   ; reg: 0x020
0356   2B59           01235         goto    label_091
0357   3020           01236         movlw   0x20
0358   2B5B           01237         goto    label_092
                      01238 
0359                  01239 label_091:                                                  ; address: 0x0359
                      01240 
0359   3830           01241         iorlw   0x30
035A   1320           01242         bcf     0x20, 0x6                                   ; reg: 0x020
                      01243 
035B                  01244 label_092:                                                  ; address: 0x035b
                      01245 
035B   2950           01246         goto    function_013
                      01247 
035C                  01248 function_025:                                               ; address: 0x035c
                      01249 
035C   300A           01250         movlw   0x0a
                      01251 
035D                  01252 label_093:                                                  ; address: 0x035d
                      01253 
035D   00B8           01254         movwf   0x38                                        ; reg: 0x038
                      01255 
035E                  01256 label_094:                                                  ; address: 0x035e
                      01257 
035E   0806           01258         movf    PORTB, W                                    ; reg: 0x006
035F   3920           01259         andlw   0x20
0360   00B9           01260         movwf   0x39                                        ; reg: 0x039
0361   2129           01261         call    function_010
gpasm-1.5.0 #1285 (Jan 23 2020) unidds_v1_08.   27.01.2020  22:56:48        PAGE 25


LOC    OBJECT CODE    LINE  SOURCE TEXT
  VALUE

0362   0806           01262         movf    PORTB, W                                    ; reg: 0x006
0363   3920           01263         andlw   0x20
0364   0639           01264         xorwf   0x39, W                                     ; reg: 0x039
0365   1D03           01265         btfss   STATUS, Z                                   ; reg: 0x003, bit: 2
0366   2B5C           01266         goto    function_025
0367   0BB8           01267         decfsz  0x38, F                                     ; reg: 0x038
0368   2B5E           01268         goto    label_094
0369   0839           01269         movf    0x39, W                                     ; reg: 0x039
036A   3920           01270         andlw   0x20
036B   1D03           01271         btfss   STATUS, Z                                   ; reg: 0x003, bit: 2
036C   2B71           01272         goto    label_095
036D   3001           01273         movlw   0x01
036E   00BB           01274         movwf   0x3b                                        ; reg: 0x03b
036F   1403           01275         bsf     STATUS, C                                   ; reg: 0x003, bit: 0
0370   2B74           01276         goto    label_096
                      01277 
0371                  01278 label_095:                                                  ; address: 0x0371
                      01279 
0371   3000           01280         movlw   0x00
0372   00BB           01281         movwf   0x3b                                        ; reg: 0x03b
0373   1003           01282         bcf     STATUS, C                                   ; reg: 0x003, bit: 0
                      01283 
0374                  01284 label_096:                                                  ; address: 0x0374
                      01285 
0374   0008           01286         return
                      01287 
0375                  01288 function_026:                                               ; address: 0x0375
                      01289 
0375   01C3           01290         clrf    0x43                                        ; reg: 0x043
0376   01C4           01291         clrf    0x44                                        ; reg: 0x044
0377   01C5           01292         clrf    0x45                                        ; reg: 0x045
                      01293 
0378                  01294 label_097:                                                  ; address: 0x0378
                      01295 
0378   01C6           01296         clrf    0x46                                        ; reg: 0x046
0379   01C7           01297         clrf    0x47                                        ; reg: 0x047
037A   01C8           01298         clrf    0x48                                        ; reg: 0x048
                      01299 
037B                  01300 function_027:                                               ; address: 0x037b
                      01301 
037B   01BF           01302         clrf    0x3f                                        ; reg: 0x03f
037C   01C0           01303         clrf    0x40                                        ; reg: 0x040
037D   01C1           01304         clrf    0x41                                        ; reg: 0x041
037E   01C2           01305         clrf    0x42                                        ; reg: 0x042
037F   0008           01306         return
                      01307 
0380                  01308 function_028:                                               ; address: 0x0380
                      01309 
0380   083D           01310         movf    0x3d, W                                     ; reg: 0x03d
                      01311 
0381                  01312 label_098:                                                  ; address: 0x0381
                      01313 
0381   1903           01314         btfsc   STATUS, Z                                   ; reg: 0x003, bit: 2
gpasm-1.5.0 #1285 (Jan 23 2020) unidds_v1_08.   27.01.2020  22:56:48        PAGE 26


LOC    OBJECT CODE    LINE  SOURCE TEXT
  VALUE

0382   2B9E           01315         goto    label_103
0383   3A01           01316         xorlw   0x01
0384   1903           01317         btfsc   STATUS, Z                                   ; reg: 0x003, bit: 2
0385   2B99           01318         goto    label_102
0386   083D           01319         movf    0x3d, W                                     ; reg: 0x03d
0387   3A02           01320         xorlw   0x02
0388   1903           01321         btfsc   STATUS, Z                                   ; reg: 0x003, bit: 2
0389   2B94           01322         goto    label_101
                      01323 
038A                  01324 label_099:                                                  ; address: 0x038a
                      01325 
038A   24A6           01326         call    function_036
038B   237B           01327         call    function_027
038C   3010           01328         movlw   0x10
038D   00C0           01329         movwf   0x40                                        ; reg: 0x040
038E   2BA1           01330         goto    label_104
038F   24A6           01331         call    function_036
0390   237B           01332         call    function_027
0391   3001           01333         movlw   0x01
0392   00C0           01334         movwf   0x40                                        ; reg: 0x040
                      01335 
0393                  01336 label_100:                                                  ; address: 0x0393
                      01337 
0393   2BA1           01338         goto    label_104
                      01339 
0394                  01340 label_101:                                                  ; address: 0x0394
                      01341 
0394   24A6           01342         call    function_036
0395   237B           01343         call    function_027
0396   3050           01344         movlw   0x50
0397   00BF           01345         movwf   0x3f                                        ; reg: 0x03f
0398   2BA1           01346         goto    label_104
                      01347 
0399                  01348 label_102:                                                  ; address: 0x0399
                      01349 
0399   24A6           01350         call    function_036
039A   237B           01351         call    function_027
039B   3010           01352         movlw   0x10
039C   00BF           01353         movwf   0x3f                                        ; reg: 0x03f
039D   2BA1           01354         goto    label_104
                      01355 
039E                  01356 label_103:                                                  ; address: 0x039e
                      01357 
039E   24A6           01358         call    function_036
039F   237B           01359         call    function_027
03A0   0ABF           01360         incf    0x3f, F                                     ; reg: 0x03f
                      01361 
03A1                  01362 label_104:                                                  ; address: 0x03a1
                      01363 
03A1   3004           01364         movlw   0x04
03A2   00C3           01365         movwf   0x43                                        ; reg: 0x043
                      01366 
03A3                  01367 label_105:                                                  ; address: 0x03a3
gpasm-1.5.0 #1285 (Jan 23 2020) unidds_v1_08.   27.01.2020  22:56:48        PAGE 27


LOC    OBJECT CODE    LINE  SOURCE TEXT
  VALUE

                      01368 
03A3   0833           01369         movf    0x33, W                                     ; reg: 0x033
03A4   0084           01370         movwf   FSR                                         ; reg: 0x004
03A5   0800           01371         movf    INDF, W                                     ; reg: 0x000
03A6   00C4           01372         movwf   0x44                                        ; reg: 0x044
03A7   0834           01373         movf    0x34, W                                     ; reg: 0x034
03A8   0084           01374         movwf   FSR                                         ; reg: 0x004
03A9   0800           01375         movf    INDF, W                                     ; reg: 0x000
03AA   07C4           01376         addwf   0x44, F                                     ; reg: 0x044
03AB   3006           01377         movlw   0x06
03AC   0744           01378         addwf   0x44, W                                     ; reg: 0x044
03AD   1C83           01379         btfss   STATUS, DC                                  ; reg: 0x003, bit: 1
03AE   2BB0           01380         goto    label_107
                      01381 
03AF                  01382 label_106:                                                  ; address: 0x03af
                      01383 
03AF   00C4           01384         movwf   0x44                                        ; reg: 0x044
                      01385 
03B0                  01386 label_107:                                                  ; address: 0x03b0
                      01387 
03B0   3060           01388         movlw   0x60
03B1   0744           01389         addwf   0x44, W                                     ; reg: 0x044
03B2   1C03           01390         btfss   STATUS, C                                   ; reg: 0x003, bit: 0
03B3   2BBA           01391         goto    label_109
03B4   00C4           01392         movwf   0x44                                        ; reg: 0x044
03B5   0833           01393         movf    0x33, W                                     ; reg: 0x033
03B6   0084           01394         movwf   FSR                                         ; reg: 0x004
03B7   0A84           01395         incf    FSR, F                                      ; reg: 0x004
                      01396 
03B8                  01397 label_108:                                                  ; address: 0x03b8
                      01398 
03B8   0A80           01399         incf    INDF, F                                     ; reg: 0x000
03B9   0384           01400         decf    FSR, F                                      ; reg: 0x004
                      01401 
03BA                  01402 label_109:                                                  ; address: 0x03ba
                      01403 
03BA   0833           01404         movf    0x33, W                                     ; reg: 0x033
03BB   0084           01405         movwf   FSR                                         ; reg: 0x004
03BC   0844           01406         movf    0x44, W                                     ; reg: 0x044
03BD   0080           01407         movwf   INDF                                        ; reg: 0x000
03BE   0AB3           01408         incf    0x33, F                                     ; reg: 0x033
03BF   0AB4           01409         incf    0x34, F                                     ; reg: 0x034
03C0   0BC3           01410         decfsz  0x43, F                                     ; reg: 0x043
03C1   2BA3           01411         goto    label_105
03C2   0008           01412         return
                      01413 
03C3                  01414 function_029:                                               ; address: 0x03c3
                      01415 
03C3   083D           01416         movf    0x3d, W                                     ; reg: 0x03d
03C4   1903           01417         btfsc   STATUS, Z                                   ; reg: 0x003, bit: 2
03C5   2BE1           01418         goto    label_115
                      01419 
03C6                  01420 label_110:                                                  ; address: 0x03c6
gpasm-1.5.0 #1285 (Jan 23 2020) unidds_v1_08.   27.01.2020  22:56:48        PAGE 28


LOC    OBJECT CODE    LINE  SOURCE TEXT
  VALUE

                      01421 
03C6   3A01           01422         xorlw   0x01
03C7   1903           01423         btfsc   STATUS, Z                                   ; reg: 0x003, bit: 2
03C8   2BDC           01424         goto    label_113
03C9   083D           01425         movf    0x3d, W                                     ; reg: 0x03d
03CA   3A02           01426         xorlw   0x02
03CB   1903           01427         btfsc   STATUS, Z                                   ; reg: 0x003, bit: 2
03CC   2BD7           01428         goto    label_112
03CD   24A6           01429         call    function_036
03CE   237B           01430         call    function_027
03CF   3010           01431         movlw   0x10
03D0   00C0           01432         movwf   0x40                                        ; reg: 0x040
03D1   2BE4           01433         goto    label_116
03D2   24A6           01434         call    function_036
03D3   237B           01435         call    function_027
                      01436 
03D4                  01437 label_111:                                                  ; address: 0x03d4
                      01438 
03D4   3001           01439         movlw   0x01
03D5   00C0           01440         movwf   0x40                                        ; reg: 0x040
03D6   2BE4           01441         goto    label_116
                      01442 
03D7                  01443 label_112:                                                  ; address: 0x03d7
                      01444 
03D7   24A6           01445         call    function_036
03D8   237B           01446         call    function_027
03D9   3050           01447         movlw   0x50
03DA   00BF           01448         movwf   0x3f                                        ; reg: 0x03f
03DB   2BE4           01449         goto    label_116
                      01450 
03DC                  01451 label_113:                                                  ; address: 0x03dc
                      01452 
03DC   24A6           01453         call    function_036
                      01454 
03DD                  01455 label_114:                                                  ; address: 0x03dd
                      01456 
03DD   237B           01457         call    function_027
03DE   3010           01458         movlw   0x10
03DF   00BF           01459         movwf   0x3f                                        ; reg: 0x03f
03E0   2BE4           01460         goto    label_116
                      01461 
03E1                  01462 label_115:                                                  ; address: 0x03e1
                      01463 
03E1   24A6           01464         call    function_036
03E2   237B           01465         call    function_027
03E3   0ABF           01466         incf    0x3f, F                                     ; reg: 0x03f
                      01467 
03E4                  01468 label_116:                                                  ; address: 0x03e4
                      01469 
03E4   3004           01470         movlw   0x04
03E5   00C3           01471         movwf   0x43                                        ; reg: 0x043
                      01472 
03E6                  01473 label_117:                                                  ; address: 0x03e6
gpasm-1.5.0 #1285 (Jan 23 2020) unidds_v1_08.   27.01.2020  22:56:48        PAGE 29


LOC    OBJECT CODE    LINE  SOURCE TEXT
  VALUE

                      01474 
03E6   0833           01475         movf    0x33, W                                     ; reg: 0x033
03E7   0084           01476         movwf   FSR                                         ; reg: 0x004
03E8   0800           01477         movf    INDF, W                                     ; reg: 0x000
03E9   00C4           01478         movwf   0x44                                        ; reg: 0x044
03EA   0834           01479         movf    0x34, W                                     ; reg: 0x034
                      01480 
03EB                  01481 label_118:                                                  ; address: 0x03eb
                      01482 
03EB   0084           01483         movwf   FSR                                         ; reg: 0x004
03EC   0800           01484         movf    INDF, W                                     ; reg: 0x000
03ED   02C4           01485         subwf   0x44, F                                     ; reg: 0x044
03EE   0DC5           01486         rlf     0x45, F                                     ; reg: 0x045
03EF   1883           01487         btfsc   STATUS, DC                                  ; reg: 0x003, bit: 1
03F0   2BF3           01488         goto    label_119
03F1   3006           01489         movlw   0x06
03F2   02C4           01490         subwf   0x44, F                                     ; reg: 0x044
                      01491 
03F3                  01492 label_119:                                                  ; address: 0x03f3
                      01493 
03F3   1845           01494         btfsc   0x45, 0x0                                   ; reg: 0x045
03F4   2BFA           01495         goto    label_120
03F5   3060           01496         movlw   0x60
03F6   02C4           01497         subwf   0x44, F                                     ; reg: 0x044
03F7   0A84           01498         incf    FSR, F                                      ; reg: 0x004
03F8   0A80           01499         incf    INDF, F                                     ; reg: 0x000
03F9   0384           01500         decf    FSR, F                                      ; reg: 0x004
                      01501 
03FA                  01502 label_120:                                                  ; address: 0x03fa
                      01503 
03FA   0833           01504         movf    0x33, W                                     ; reg: 0x033
03FB   0084           01505         movwf   FSR                                         ; reg: 0x004
03FC   0844           01506         movf    0x44, W                                     ; reg: 0x044
03FD   0080           01507         movwf   INDF                                        ; reg: 0x000
03FE   0AB3           01508         incf    0x33, F                                     ; reg: 0x033
03FF   0AB4           01509         incf    0x34, F                                     ; reg: 0x034
0400   0BC3           01510         decfsz  0x43, F                                     ; reg: 0x043
0401   2BE6           01511         goto    label_117
0402   0008           01512         return
                      01513 
0403                  01514 function_030:                                               ; address: 0x0403
                      01515 
0403   2375           01516         call    function_026
0404   0833           01517         movf    0x33, W                                     ; reg: 0x033
0405   0084           01518         movwf   FSR                                         ; reg: 0x004
0406   0800           01519         movf    INDF, W                                     ; reg: 0x000
0407   00BF           01520         movwf   0x3f                                        ; reg: 0x03f
0408   0A84           01521         incf    FSR, F                                      ; reg: 0x004
0409   0800           01522         movf    INDF, W                                     ; reg: 0x000
040A   00C0           01523         movwf   0x40                                        ; reg: 0x040
040B   0A84           01524         incf    FSR, F                                      ; reg: 0x004
040C   0800           01525         movf    INDF, W                                     ; reg: 0x000
040D   00C1           01526         movwf   0x41                                        ; reg: 0x041
gpasm-1.5.0 #1285 (Jan 23 2020) unidds_v1_08.   27.01.2020  22:56:48        PAGE 30


LOC    OBJECT CODE    LINE  SOURCE TEXT
  VALUE

040E   0A84           01527         incf    FSR, F                                      ; reg: 0x004
040F   0800           01528         movf    INDF, W                                     ; reg: 0x000
0410   00C2           01529         movwf   0x42                                        ; reg: 0x042
0411   3020           01530         movlw   0x20
0412   00C7           01531         movwf   0x47                                        ; reg: 0x047
                      01532 
0413                  01533 label_121:                                                  ; address: 0x0413
                      01534 
0413   1003           01535         bcf     STATUS, C                                   ; reg: 0x003, bit: 0
0414   0CC2           01536         rrf     0x42, F                                     ; reg: 0x042
0415   0CC1           01537         rrf     0x41, F                                     ; reg: 0x041
0416   0CC0           01538         rrf     0x40, F                                     ; reg: 0x040
0417   0CBF           01539         rrf     0x3f, F                                     ; reg: 0x03f
0418   0CC6           01540         rrf     0x46, F                                     ; reg: 0x046
0419   0CC5           01541         rrf     0x45, F                                     ; reg: 0x045
041A   0CC4           01542         rrf     0x44, F                                     ; reg: 0x044
041B   0CC3           01543         rrf     0x43, F                                     ; reg: 0x043
041C   303F           01544         movlw   0x3f
041D   0084           01545         movwf   FSR                                         ; reg: 0x004
041E   3004           01546         movlw   0x04
041F   00C8           01547         movwf   0x48                                        ; reg: 0x048
                      01548 
0420                  01549 label_122:                                                  ; address: 0x0420
                      01550 
0420   1F80           01551         btfss   INDF, 0x7                                   ; reg: 0x000
0421   2C24           01552         goto    label_123
0422   3030           01553         movlw   0x30
0423   0280           01554         subwf   INDF, F                                     ; reg: 0x000
                      01555 
0424                  01556 label_123:                                                  ; address: 0x0424
                      01557 
0424   1D80           01558         btfss   INDF, 0x3                                   ; reg: 0x000
0425   2C28           01559         goto    label_124
0426   3003           01560         movlw   0x03
0427   0280           01561         subwf   INDF, F                                     ; reg: 0x000
                      01562 
0428                  01563 label_124:                                                  ; address: 0x0428
                      01564 
0428   0A84           01565         incf    FSR, F                                      ; reg: 0x004
0429   0BC8           01566         decfsz  0x48, F                                     ; reg: 0x048
042A   2C20           01567         goto    label_122
042B   0BC7           01568         decfsz  0x47, F                                     ; reg: 0x047
042C   2C13           01569         goto    label_121
042D   0008           01570         return
                      01571 
042E                  01572 function_031:                                               ; address: 0x042e
                      01573 
042E   0826           01574         movf    0x26, W                                     ; reg: 0x026
042F   00C0           01575         movwf   0x40                                        ; reg: 0x040
0430   0825           01576         movf    0x25, W                                     ; reg: 0x025
0431   00BF           01577         movwf   0x3f                                        ; reg: 0x03f
0432   0827           01578         movf    0x27, W                                     ; reg: 0x027
0433   00C1           01579         movwf   0x41                                        ; reg: 0x041
gpasm-1.5.0 #1285 (Jan 23 2020) unidds_v1_08.   27.01.2020  22:56:48        PAGE 31


LOC    OBJECT CODE    LINE  SOURCE TEXT
  VALUE

0434   0828           01580         movf    0x28, W                                     ; reg: 0x028
0435   00C2           01581         movwf   0x42                                        ; reg: 0x042
0436   083F           01582         movf    0x3f, W                                     ; reg: 0x03f
0437   07C3           01583         addwf   0x43, F                                     ; reg: 0x043
0438   0840           01584         movf    0x40, W                                     ; reg: 0x040
0439   1803           01585         btfsc   STATUS, C                                   ; reg: 0x003, bit: 0
043A   0F40           01586         incfsz  0x40, W                                     ; reg: 0x040
043B   07C4           01587         addwf   0x44, F                                     ; reg: 0x044
043C   0841           01588         movf    0x41, W                                     ; reg: 0x041
043D   1803           01589         btfsc   STATUS, C                                   ; reg: 0x003, bit: 0
043E   0F41           01590         incfsz  0x41, W                                     ; reg: 0x041
043F   07C5           01591         addwf   0x45, F                                     ; reg: 0x045
0440   0842           01592         movf    0x42, W                                     ; reg: 0x042
0441   1803           01593         btfsc   STATUS, C                                   ; reg: 0x003, bit: 0
0442   0F42           01594         incfsz  0x42, W                                     ; reg: 0x042
0443   07C6           01595         addwf   0x46, F                                     ; reg: 0x046
0444   0008           01596         return
                      01597 
0445                  01598 function_032:                                               ; address: 0x0445
                      01599 
0445   0826           01600         movf    0x26, W                                     ; reg: 0x026
0446   00C0           01601         movwf   0x40                                        ; reg: 0x040
0447   0825           01602         movf    0x25, W                                     ; reg: 0x025
0448   00BF           01603         movwf   0x3f                                        ; reg: 0x03f
0449   0827           01604         movf    0x27, W                                     ; reg: 0x027
044A   00C1           01605         movwf   0x41                                        ; reg: 0x041
044B   0828           01606         movf    0x28, W                                     ; reg: 0x028
044C   00C2           01607         movwf   0x42                                        ; reg: 0x042
044D   083F           01608         movf    0x3f, W                                     ; reg: 0x03f
044E   02C3           01609         subwf   0x43, F                                     ; reg: 0x043
044F   0840           01610         movf    0x40, W                                     ; reg: 0x040
0450   1C03           01611         btfss   STATUS, C                                   ; reg: 0x003, bit: 0
0451   0F40           01612         incfsz  0x40, W                                     ; reg: 0x040
0452   02C4           01613         subwf   0x44, F                                     ; reg: 0x044
0453   0841           01614         movf    0x41, W                                     ; reg: 0x041
0454   1C03           01615         btfss   STATUS, C                                   ; reg: 0x003, bit: 0
0455   0F41           01616         incfsz  0x41, W                                     ; reg: 0x041
0456   02C5           01617         subwf   0x45, F                                     ; reg: 0x045
0457   0842           01618         movf    0x42, W                                     ; reg: 0x042
0458   1C03           01619         btfss   STATUS, C                                   ; reg: 0x003, bit: 0
0459   0F42           01620         incfsz  0x42, W                                     ; reg: 0x042
045A   02C6           01621         subwf   0x46, F                                     ; reg: 0x046
045B   0008           01622         return
                      01623 
045C                  01624 function_033:                                               ; address: 0x045c
                      01625 
045C   0821           01626         movf    0x21, W                                     ; reg: 0x021
045D   00CF           01627         movwf   0x4f                                        ; reg: 0x04f
045E   0822           01628         movf    0x22, W                                     ; reg: 0x022
045F   00D0           01629         movwf   0x50                                        ; reg: 0x050
0460   0823           01630         movf    0x23, W                                     ; reg: 0x023
0461   00D1           01631         movwf   0x51                                        ; reg: 0x051
0462   0824           01632         movf    0x24, W                                     ; reg: 0x024
gpasm-1.5.0 #1285 (Jan 23 2020) unidds_v1_08.   27.01.2020  22:56:48        PAGE 32


LOC    OBJECT CODE    LINE  SOURCE TEXT
  VALUE

0463   00D2           01633         movwf   0x52                                        ; reg: 0x052
0464   3020           01634         movlw   0x20
0465   00C7           01635         movwf   0x47                                        ; reg: 0x047
                      01636 
0466                  01637 label_125:                                                  ; address: 0x0466
                      01638 
0466   304F           01639         movlw   0x4f
0467   00B3           01640         movwf   0x33                                        ; reg: 0x033
0468   3057           01641         movlw   0x57
0469   00B4           01642         movwf   0x34                                        ; reg: 0x034
046A   01C0           01643         clrf    0x40                                        ; reg: 0x040
046B   1003           01644         bcf     STATUS, C                                   ; reg: 0x003, bit: 0
046C   0CC6           01645         rrf     0x46, F                                     ; reg: 0x046
046D   0CC5           01646         rrf     0x45, F                                     ; reg: 0x045
046E   0CC4           01647         rrf     0x44, F                                     ; reg: 0x044
046F   0CC3           01648         rrf     0x43, F                                     ; reg: 0x043
0470   1C03           01649         btfss   STATUS, C                                   ; reg: 0x003, bit: 0
0471   2C8B           01650         goto    label_129
0472   3008           01651         movlw   0x08
0473   00C1           01652         movwf   0x41                                        ; reg: 0x041
                      01653 
0474                  01654 label_126:                                                  ; address: 0x0474
                      01655 
0474   0833           01656         movf    0x33, W                                     ; reg: 0x033
0475   0084           01657         movwf   FSR                                         ; reg: 0x004
0476   0800           01658         movf    INDF, W                                     ; reg: 0x000
0477   00BF           01659         movwf   0x3f                                        ; reg: 0x03f
0478   0834           01660         movf    0x34, W                                     ; reg: 0x034
0479   0084           01661         movwf   FSR                                         ; reg: 0x004
047A   0840           01662         movf    0x40, W                                     ; reg: 0x040
047B   01C0           01663         clrf    0x40                                        ; reg: 0x040
047C   0780           01664         addwf   INDF, F                                     ; reg: 0x000
047D   1C03           01665         btfss   STATUS, C                                   ; reg: 0x003, bit: 0
047E   2C81           01666         goto    label_127
047F   3001           01667         movlw   0x01
0480   00C0           01668         movwf   0x40                                        ; reg: 0x040
                      01669 
0481                  01670 label_127:                                                  ; address: 0x0481
                      01671 
0481   083F           01672         movf    0x3f, W                                     ; reg: 0x03f
0482   0780           01673         addwf   INDF, F                                     ; reg: 0x000
0483   1C03           01674         btfss   STATUS, C                                   ; reg: 0x003, bit: 0
0484   2C87           01675         goto    label_128
0485   3001           01676         movlw   0x01
0486   00C0           01677         movwf   0x40                                        ; reg: 0x040
                      01678 
0487                  01679 label_128:                                                  ; address: 0x0487
                      01680 
0487   0AB3           01681         incf    0x33, F                                     ; reg: 0x033
0488   0AB4           01682         incf    0x34, F                                     ; reg: 0x034
0489   0BC1           01683         decfsz  0x41, F                                     ; reg: 0x041
048A   2C74           01684         goto    label_126
                      01685 
gpasm-1.5.0 #1285 (Jan 23 2020) unidds_v1_08.   27.01.2020  22:56:48        PAGE 33


LOC    OBJECT CODE    LINE  SOURCE TEXT
  VALUE

048B                  01686 label_129:                                                  ; address: 0x048b
                      01687 
048B   1003           01688         bcf     STATUS, C                                   ; reg: 0x003, bit: 0
048C   0DCF           01689         rlf     0x4f, F                                     ; reg: 0x04f
048D   0DD0           01690         rlf     0x50, F                                     ; reg: 0x050
048E   0DD1           01691         rlf     0x51, F                                     ; reg: 0x051
048F   0DD2           01692         rlf     0x52, F                                     ; reg: 0x052
0490   0DD3           01693         rlf     0x53, F                                     ; reg: 0x053
0491   0DD4           01694         rlf     0x54, F                                     ; reg: 0x054
0492   0DD5           01695         rlf     0x55, F                                     ; reg: 0x055
0493   0DD6           01696         rlf     0x56, F                                     ; reg: 0x056
0494   0BC7           01697         decfsz  0x47, F                                     ; reg: 0x047
0495   2C66           01698         goto    label_125
0496   0008           01699         return
                      01700 
0497                  01701 function_034:                                               ; address: 0x0497
                      01702 
0497   303F           01703         movlw   0x3f
0498   0084           01704         movwf   FSR                                         ; reg: 0x004
                      01705 
0499                  01706 label_130:                                                  ; address: 0x0499
                      01707 
0499   0180           01708         clrf    INDF                                        ; reg: 0x000
049A   305E           01709         movlw   0x5e
049B   0204           01710         subwf   FSR, W                                      ; reg: 0x004
049C   1903           01711         btfsc   STATUS, Z                                   ; reg: 0x003, bit: 2
049D   2CA0           01712         goto    label_131
049E   0A84           01713         incf    FSR, F                                      ; reg: 0x004
049F   2C99           01714         goto    label_130
                      01715 
04A0                  01716 label_131:                                                  ; address: 0x04a0
                      01717 
04A0   0008           01718         return
                      01719 
04A1                  01720 function_035:                                               ; address: 0x04a1
                      01721 
04A1   19A0           01722         btfsc   0x20, 0x3                                   ; reg: 0x020
04A2   2CAE           01723         goto    label_132
04A3   1AB2           01724         btfsc   0x32, 0x5                                   ; reg: 0x032
04A4   2CAE           01725         goto    label_132
04A5   2CAA           01726         goto    function_037
                      01727 
04A6                  01728 function_036:                                               ; address: 0x04a6
                      01729 
04A6   303F           01730         movlw   0x3f
04A7   00B4           01731         movwf   0x34                                        ; reg: 0x034
04A8   1AB2           01732         btfsc   0x32, 0x5                                   ; reg: 0x032
04A9   2CAE           01733         goto    label_132
                      01734 
04AA                  01735 function_037:                                               ; address: 0x04aa
                      01736 
04AA   3029           01737         movlw   0x29
04AB   1832           01738         btfsc   0x32, 0x0                                   ; reg: 0x032
gpasm-1.5.0 #1285 (Jan 23 2020) unidds_v1_08.   27.01.2020  22:56:48        PAGE 34


LOC    OBJECT CODE    LINE  SOURCE TEXT
  VALUE

04AC   302D           01739         movlw   0x2d
04AD   2CB1           01740         goto    label_133
                      01741 
04AE                  01742 label_132:                                                  ; address: 0x04ae
                      01743 
04AE   3029           01744         movlw   0x29
04AF   1C32           01745         btfss   0x32, 0x0                                   ; reg: 0x032
04B0   302D           01746         movlw   0x2d
                      01747 
04B1                  01748 label_133:                                                  ; address: 0x04b1
                      01749 
04B1   00B3           01750         movwf   0x33                                        ; reg: 0x033
04B2   0008           01751         return
                      01752 
04B3                  01753 function_038:                                               ; address: 0x04b3
                      01754 
04B3   2497           01755         call    function_034
04B4   24AA           01756         call    function_037
04B5   2403           01757         call    function_030
04B6   1E20           01758         btfss   0x20, 0x4                                   ; reg: 0x020
04B7   2445           01759         call    function_032
04B8   1A20           01760         btfsc   0x20, 0x4                                   ; reg: 0x020
04B9   242E           01761         call    function_031
04BA   245C           01762         call    function_033
04BB   085B           01763         movf    0x5b, W                                     ; reg: 0x05b
04BC   00FB           01764         movwf   (Common_RAM + 11)                           ; reg: 0x07b
04BD   085A           01765         movf    0x5a, W                                     ; reg: 0x05a
04BE   00FA           01766         movwf   (Common_RAM + 10)                           ; reg: 0x07a
04BF   085C           01767         movf    0x5c, W                                     ; reg: 0x05c
04C0   00FC           01768         movwf   (Common_RAM + 12)                           ; reg: 0x07c
04C1   085D           01769         movf    0x5d, W                                     ; reg: 0x05d
04C2   00FD           01770         movwf   (Common_RAM + 13)                           ; reg: 0x07d
04C3   1683           01771         bsf     STATUS, RP0                                 ; reg: 0x003, bit: 5
04C4   1303           01772         bcf     STATUS, RP1                                 ; reg: 0x003, bit: 6
04C5   087B           01773         movf    0x7b, W                                     ; reg: 0x0fb
04C6   00C6           01774         movwf   0x46                                        ; reg: 0x0c6
04C7   087A           01775         movf    0x7a, W                                     ; reg: 0x0fa
04C8   00C5           01776         movwf   0x45                                        ; reg: 0x0c5
04C9   087C           01777         movf    0x7c, W                                     ; reg: 0x0fc
04CA   00C7           01778         movwf   0x47                                        ; reg: 0x0c7
04CB   087D           01779         movf    0x7d, W                                     ; reg: 0x0fd
04CC   00C8           01780         movwf   0x48                                        ; reg: 0x0c8
04CD   1283           01781         bcf     STATUS, RP0                                 ; reg: 0x003, bit: 5
04CE   1303           01782         bcf     STATUS, RP1                                 ; reg: 0x003, bit: 6
04CF   2497           01783         call    function_034
04D0   24A1           01784         call    function_035
04D1   2403           01785         call    function_030
04D2   1AA0           01786         btfsc   0x20, 0x5                                   ; reg: 0x020
04D3   2CD8           01787         goto    label_134
04D4   1E20           01788         btfss   0x20, 0x4                                   ; reg: 0x020
04D5   2445           01789         call    function_032
04D6   1A20           01790         btfsc   0x20, 0x4                                   ; reg: 0x020
04D7   242E           01791         call    function_031
gpasm-1.5.0 #1285 (Jan 23 2020) unidds_v1_08.   27.01.2020  22:56:48        PAGE 35


LOC    OBJECT CODE    LINE  SOURCE TEXT
  VALUE

                      01792 
04D8                  01793 label_134:                                                  ; address: 0x04d8
                      01794 
04D8   245C           01795         call    function_033
04D9   085B           01796         movf    0x5b, W                                     ; reg: 0x05b
04DA   00FB           01797         movwf   (Common_RAM + 11)                           ; reg: 0x07b
04DB   085A           01798         movf    0x5a, W                                     ; reg: 0x05a
04DC   00FA           01799         movwf   (Common_RAM + 10)                           ; reg: 0x07a
04DD   085C           01800         movf    0x5c, W                                     ; reg: 0x05c
04DE   00FC           01801         movwf   (Common_RAM + 12)                           ; reg: 0x07c
04DF   085D           01802         movf    0x5d, W                                     ; reg: 0x05d
04E0   00FD           01803         movwf   (Common_RAM + 13)                           ; reg: 0x07d
04E1   1683           01804         bsf     STATUS, RP0                                 ; reg: 0x003, bit: 5
04E2   1303           01805         bcf     STATUS, RP1                                 ; reg: 0x003, bit: 6
04E3   087B           01806         movf    0x7b, W                                     ; reg: 0x0fb
04E4   00CA           01807         movwf   0x4a                                        ; reg: 0x0ca
04E5   087A           01808         movf    0x7a, W                                     ; reg: 0x0fa
04E6   00C9           01809         movwf   0x49                                        ; reg: 0x0c9
04E7   087C           01810         movf    0x7c, W                                     ; reg: 0x0fc
04E8   00CB           01811         movwf   0x4b                                        ; reg: 0x0cb
04E9   087D           01812         movf    0x7d, W                                     ; reg: 0x0fd
04EA   00CC           01813         movwf   0x4c                                        ; reg: 0x0cc
04EB   1283           01814         bcf     STATUS, RP0                                 ; reg: 0x003, bit: 5
04EC   1303           01815         bcf     STATUS, RP1                                 ; reg: 0x003, bit: 6
04ED   0008           01816         return
                      01817 
04EE                  01818 function_039:                                               ; address: 0x04ee
                      01819 
04EE   1683           01820         bsf     STATUS, RP0                                 ; reg: 0x003, bit: 5
04EF   1303           01821         bcf     STATUS, RP1                                 ; reg: 0x003, bit: 6
04F0   084A           01822         movf    0x4a, W                                     ; reg: 0x0ca
04F1   00D0           01823         movwf   0x50                                        ; reg: 0x0d0
04F2   0849           01824         movf    0x49, W                                     ; reg: 0x0c9
04F3   00CF           01825         movwf   0x4f                                        ; reg: 0x0cf
04F4   084B           01826         movf    0x4b, W                                     ; reg: 0x0cb
04F5   00D1           01827         movwf   0x51                                        ; reg: 0x0d1
04F6   084C           01828         movf    0x4c, W                                     ; reg: 0x0cc
04F7   00D2           01829         movwf   0x52                                        ; reg: 0x0d2
04F8   2D03           01830         goto    label_135
                      01831 
04F9                  01832 function_040:                                               ; address: 0x04f9
                      01833 
04F9   1683           01834         bsf     STATUS, RP0                                 ; reg: 0x003, bit: 5
04FA   1303           01835         bcf     STATUS, RP1                                 ; reg: 0x003, bit: 6
04FB   0846           01836         movf    0x46, W                                     ; reg: 0x0c6
04FC   00D0           01837         movwf   0x50                                        ; reg: 0x0d0
04FD   0845           01838         movf    0x45, W                                     ; reg: 0x0c5
04FE   00CF           01839         movwf   0x4f                                        ; reg: 0x0cf
04FF   0847           01840         movf    0x47, W                                     ; reg: 0x0c7
0500   00D1           01841         movwf   0x51                                        ; reg: 0x0d1
0501   0848           01842         movf    0x48, W                                     ; reg: 0x0c8
0502   00D2           01843         movwf   0x52                                        ; reg: 0x0d2
                      01844 
gpasm-1.5.0 #1285 (Jan 23 2020) unidds_v1_08.   27.01.2020  22:56:48        PAGE 36


LOC    OBJECT CODE    LINE  SOURCE TEXT
  VALUE

0503                  01845 label_135:                                                  ; address: 0x0503
                      01846 
0503   1283           01847         bcf     STATUS, RP0                                 ; reg: 0x003, bit: 5
0504   1303           01848         bcf     STATUS, RP1                                 ; reg: 0x003, bit: 6
0505   253B           01849         call    function_042
0506   1683           01850         bsf     STATUS, RP0                                 ; reg: 0x003, bit: 5
0507   1303           01851         bcf     STATUS, RP1                                 ; reg: 0x003, bit: 6
0508   0850           01852         movf    0x50, W                                     ; reg: 0x0d0
0509   00CE           01853         movwf   0x4e                                        ; reg: 0x0ce
050A   084F           01854         movf    0x4f, W                                     ; reg: 0x0cf
050B   00CD           01855         movwf   0x4d                                        ; reg: 0x0cd
050C   13CE           01856         bcf     0x4e, 0x7                                   ; reg: 0x0ce
050D   174E           01857         bsf     0x4e, 0x6                                   ; reg: 0x0ce
050E   1283           01858         bcf     STATUS, RP0                                 ; reg: 0x003, bit: 5
050F   1303           01859         bcf     STATUS, RP1                                 ; reg: 0x003, bit: 6
0510   2541           01860         call    function_043
0511   1683           01861         bsf     STATUS, RP0                                 ; reg: 0x003, bit: 5
0512   1303           01862         bcf     STATUS, RP1                                 ; reg: 0x003, bit: 6
0513   0DCF           01863         rlf     0x4f, F                                     ; reg: 0x0cf
0514   0DD0           01864         rlf     0x50, F                                     ; reg: 0x0d0
0515   0DD1           01865         rlf     0x51, F                                     ; reg: 0x0d1
0516   0DD2           01866         rlf     0x52, F                                     ; reg: 0x0d2
0517   0DCF           01867         rlf     0x4f, F                                     ; reg: 0x0cf
0518   0DD0           01868         rlf     0x50, F                                     ; reg: 0x0d0
0519   0DD1           01869         rlf     0x51, F                                     ; reg: 0x0d1
051A   0DD2           01870         rlf     0x52, F                                     ; reg: 0x0d2
051B   0852           01871         movf    0x52, W                                     ; reg: 0x0d2
051C   00CE           01872         movwf   0x4e                                        ; reg: 0x0ce
051D   0851           01873         movf    0x51, W                                     ; reg: 0x0d1
051E   00CD           01874         movwf   0x4d                                        ; reg: 0x0cd
051F   13CE           01875         bcf     0x4e, 0x7                                   ; reg: 0x0ce
0520   174E           01876         bsf     0x4e, 0x6                                   ; reg: 0x0ce
0521   1283           01877         bcf     STATUS, RP0                                 ; reg: 0x003, bit: 5
0522   1303           01878         bcf     STATUS, RP1                                 ; reg: 0x003, bit: 6
0523   2541           01879         call    function_043
0524   0008           01880         return
                      01881 
0525                  01882 function_041:                                               ; address: 0x0525
                      01883 
0525   1283           01884         bcf     STATUS, RP0                                 ; reg: 0x003, bit: 5
0526   1303           01885         bcf     STATUS, RP1                                 ; reg: 0x003, bit: 6
0527   253B           01886         call    function_042
0528   1683           01887         bsf     STATUS, RP0                                 ; reg: 0x003, bit: 5
0529   1303           01888         bcf     STATUS, RP1                                 ; reg: 0x003, bit: 6
052A   3044           01889         movlw   0x44
052B   00CE           01890         movwf   0x4e                                        ; reg: 0x0ce
052C   30BB           01891         movlw   0xbb
052D   00CD           01892         movwf   0x4d                                        ; reg: 0x0cd
052E   1283           01893         bcf     STATUS, RP0                                 ; reg: 0x003, bit: 5
052F   1303           01894         bcf     STATUS, RP1                                 ; reg: 0x003, bit: 6
0530   2541           01895         call    function_043
0531   1683           01896         bsf     STATUS, RP0                                 ; reg: 0x003, bit: 5
0532   1303           01897         bcf     STATUS, RP1                                 ; reg: 0x003, bit: 6
gpasm-1.5.0 #1285 (Jan 23 2020) unidds_v1_08.   27.01.2020  22:56:48        PAGE 37


LOC    OBJECT CODE    LINE  SOURCE TEXT
  VALUE

0533   3047           01898         movlw   0x47
0534   00CE           01899         movwf   0x4e                                        ; reg: 0x0ce
0535   30AE           01900         movlw   0xae
0536   00CD           01901         movwf   0x4d                                        ; reg: 0x0cd
0537   1283           01902         bcf     STATUS, RP0                                 ; reg: 0x003, bit: 5
0538   1303           01903         bcf     STATUS, RP1                                 ; reg: 0x003, bit: 6
0539   2541           01904         call    function_043
053A   0008           01905         return
                      01906 
053B                  01907 function_042:                                               ; address: 0x053b
                      01908 
053B   1683           01909         bsf     STATUS, RP0                                 ; reg: 0x003, bit: 5
053C   1303           01910         bcf     STATUS, RP1                                 ; reg: 0x003, bit: 6
053D   3020           01911         movlw   0x20
053E   00CE           01912         movwf   0x4e                                        ; reg: 0x0ce
053F   3000           01913         movlw   0x00
0540   00CD           01914         movwf   0x4d                                        ; reg: 0x0cd
                      01915 
0541                  01916 function_043:                                               ; address: 0x0541
                      01917 
0541   1283           01918         bcf     STATUS, RP0                                 ; reg: 0x003, bit: 5
0542   1303           01919         bcf     STATUS, RP1                                 ; reg: 0x003, bit: 6
0543   1106           01920         bcf     PORTB, RB2                                  ; reg: 0x006, bit: 2
0544   1683           01921         bsf     STATUS, RP0                                 ; reg: 0x003, bit: 5
0545   1303           01922         bcf     STATUS, RP1                                 ; reg: 0x003, bit: 6
0546   084E           01923         movf    0x4e, W                                     ; reg: 0x0ce
0547   1283           01924         bcf     STATUS, RP0                                 ; reg: 0x003, bit: 5
0548   1303           01925         bcf     STATUS, RP1                                 ; reg: 0x003, bit: 6
0549   2552           01926         call    function_044
054A   1683           01927         bsf     STATUS, RP0                                 ; reg: 0x003, bit: 5
054B   1303           01928         bcf     STATUS, RP1                                 ; reg: 0x003, bit: 6
054C   084D           01929         movf    0x4d, W                                     ; reg: 0x0cd
054D   1283           01930         bcf     STATUS, RP0                                 ; reg: 0x003, bit: 5
054E   1303           01931         bcf     STATUS, RP1                                 ; reg: 0x003, bit: 6
054F   2552           01932         call    function_044
0550   1506           01933         bsf     PORTB, RB2                                  ; reg: 0x006, bit: 2
0551   0008           01934         return
                      01935 
0552                  01936 function_044:                                               ; address: 0x0552
                      01937 
0552   00BF           01938         movwf   0x3f                                        ; reg: 0x03f
0553   3008           01939         movlw   0x08
0554   00B8           01940         movwf   0x38                                        ; reg: 0x038
                      01941 
0555                  01942 label_136:                                                  ; address: 0x0555
                      01943 
0555   0DBF           01944         rlf     0x3f, F                                     ; reg: 0x03f
0556   1C03           01945         btfss   STATUS, C                                   ; reg: 0x003, bit: 0
0557   1206           01946         bcf     PORTB, RB4                                  ; reg: 0x006, bit: 4
0558   1803           01947         btfsc   STATUS, C                                   ; reg: 0x003, bit: 0
0559   1606           01948         bsf     PORTB, RB4                                  ; reg: 0x006, bit: 4
055A   1186           01949         bcf     PORTB, RB3                                  ; reg: 0x006, bit: 3
055B   1586           01950         bsf     PORTB, RB3                                  ; reg: 0x006, bit: 3
gpasm-1.5.0 #1285 (Jan 23 2020) unidds_v1_08.   27.01.2020  22:56:48        PAGE 38


LOC    OBJECT CODE    LINE  SOURCE TEXT
  VALUE

055C   0BB8           01951         decfsz  0x38, F                                     ; reg: 0x038
055D   2D55           01952         goto    label_136
055E   0008           01953         return
                      01954 
055F                  01955 function_045:                                               ; address: 0x055f
                      01956 
055F   1683           01957         bsf     STATUS, RP0                                 ; reg: 0x003, bit: 5
0560   1303           01958         bcf     STATUS, RP1                                 ; reg: 0x003, bit: 6
0561   179F           01959         bsf     ADCON1, ADFM                                ; reg: 0x09f, bit: 7
0562   1283           01960         bcf     STATUS, RP0                                 ; reg: 0x003, bit: 5
0563   1303           01961         bcf     STATUS, RP1                                 ; reg: 0x003, bit: 6
0564   3061           01962         movlw   0x61
0565   2576           01963         call    function_049
0566   1683           01964         bsf     STATUS, RP0                                 ; reg: 0x003, bit: 5
0567   1303           01965         bcf     STATUS, RP1                                 ; reg: 0x003, bit: 6
0568   00AD           01966         movwf   0x2d                                        ; reg: 0x0ad
0569   081E           01967         movf    ADRESL, W                                   ; reg: 0x09e
056A   00AC           01968         movwf   0x2c                                        ; reg: 0x0ac
056B   139F           01969         bcf     ADCON1, ADFM                                ; reg: 0x09f, bit: 7
056C   1283           01970         bcf     STATUS, RP0                                 ; reg: 0x003, bit: 5
056D   1303           01971         bcf     STATUS, RP1                                 ; reg: 0x003, bit: 6
                      01972 
056E                  01973 label_137:                                                  ; address: 0x056e
                      01974 
056E   0008           01975         return
                      01976 
056F                  01977 function_046:                                               ; address: 0x056f
                      01978 
056F   3059           01979         movlw   0x59
0570   2D76           01980         goto    function_049
0571   3051           01981         movlw   0x51
0572   2D76           01982         goto    function_049
                      01983 
0573                  01984 function_047:                                               ; address: 0x0573
                      01985 
0573   3049           01986         movlw   0x49
0574   2D76           01987         goto    function_049
                      01988 
0575                  01989 function_048:                                               ; address: 0x0575
                      01990 
0575   3041           01991         movlw   0x41
                      01992 
0576                  01993 function_049:                                               ; address: 0x0576
                      01994 
0576   009F           01995         movwf   ADCON0                                      ; reg: 0x01f
0577   3001           01996         movlw   0x01
0578   212A           01997         call    function_011
0579   151F           01998         bsf     ADCON0, GO                                  ; reg: 0x01f, bit: 2
                      01999 
057A                  02000 label_138:                                                  ; address: 0x057a
                      02001 
057A   191F           02002         btfsc   ADCON0, GO                                  ; reg: 0x01f, bit: 2
057B   2D7A           02003         goto    label_138
gpasm-1.5.0 #1285 (Jan 23 2020) unidds_v1_08.   27.01.2020  22:56:48        PAGE 39


LOC    OBJECT CODE    LINE  SOURCE TEXT
  VALUE

057C   081E           02004         movf    ADRESH, W                                   ; reg: 0x01e
057D   0008           02005         return
057E   00C8           02006         movwf   0x48                                        ; reg: 0x048
057F   309A           02007         movlw   0x9a
0580   00C7           02008         movwf   0x47                                        ; reg: 0x047
0581   0848           02009         movf    0x48, W                                     ; reg: 0x048
0582   01C8           02010         clrf    0x48                                        ; reg: 0x048
0583   15C8           02011         bsf     0x48, 0x3                                   ; reg: 0x048
0584   01C5           02012         clrf    0x45                                        ; reg: 0x045
0585   01C6           02013         clrf    0x46                                        ; reg: 0x046
                      02014 
0586                  02015 label_139:                                                  ; address: 0x0586
                      02016 
0586   1003           02017         bcf     STATUS, C                                   ; reg: 0x003, bit: 0
0587   0DC5           02018         rlf     0x45, F                                     ; reg: 0x045
0588   0DC6           02019         rlf     0x46, F                                     ; reg: 0x046
0589   0DC7           02020         rlf     0x47, F                                     ; reg: 0x047
058A   1C03           02021         btfss   STATUS, C                                   ; reg: 0x003, bit: 0
058B   2D8F           02022         goto    label_140
058C   07C5           02023         addwf   0x45, F                                     ; reg: 0x045
058D   1803           02024         btfsc   STATUS, C                                   ; reg: 0x003, bit: 0
058E   0AC6           02025         incf    0x46, F                                     ; reg: 0x046
                      02026 
058F                  02027 label_140:                                                  ; address: 0x058f
                      02028 
058F   0BC8           02029         decfsz  0x48, F                                     ; reg: 0x048
0590   2D86           02030         goto    label_139
0591   3000           02031         movlw   0x00
0592   1003           02032         bcf     STATUS, C                                   ; reg: 0x003, bit: 0
0593   0746           02033         addwf   0x46, W                                     ; reg: 0x046
0594   0008           02034         return
0595   00C7           02035         movwf   0x47                                        ; reg: 0x047
0596   3008           02036         movlw   0x08
0597   00C8           02037         movwf   0x48                                        ; reg: 0x048
0598   01C5           02038         clrf    0x45                                        ; reg: 0x045
0599   01C6           02039         clrf    0x46                                        ; reg: 0x046
                      02040 
059A                  02041 label_141:                                                  ; address: 0x059a
                      02042 
059A   0845           02043         movf    0x45, W                                     ; reg: 0x045
059B   390F           02044         andlw   0x0f
059C   00C4           02045         movwf   0x44                                        ; reg: 0x044
059D   3005           02046         movlw   0x05
059E   0244           02047         subwf   0x44, W                                     ; reg: 0x044
059F   1C03           02048         btfss   STATUS, C                                   ; reg: 0x003, bit: 0
05A0   2DA3           02049         goto    label_142
05A1   3003           02050         movlw   0x03
05A2   07C5           02051         addwf   0x45, F                                     ; reg: 0x045
                      02052 
05A3                  02053 label_142:                                                  ; address: 0x05a3
                      02054 
05A3   0845           02055         movf    0x45, W                                     ; reg: 0x045
05A4   39F0           02056         andlw   0xf0
gpasm-1.5.0 #1285 (Jan 23 2020) unidds_v1_08.   27.01.2020  22:56:48        PAGE 40


LOC    OBJECT CODE    LINE  SOURCE TEXT
  VALUE

05A5   00C4           02057         movwf   0x44                                        ; reg: 0x044
05A6   3050           02058         movlw   0x50
05A7   0244           02059         subwf   0x44, W                                     ; reg: 0x044
05A8   1C03           02060         btfss   STATUS, C                                   ; reg: 0x003, bit: 0
05A9   2DAC           02061         goto    label_143
05AA   3030           02062         movlw   0x30
05AB   07C5           02063         addwf   0x45, F                                     ; reg: 0x045
                      02064 
05AC                  02065 label_143:                                                  ; address: 0x05ac
                      02066 
05AC   1003           02067         bcf     STATUS, C                                   ; reg: 0x003, bit: 0
05AD   0DC7           02068         rlf     0x47, F                                     ; reg: 0x047
05AE   0DC5           02069         rlf     0x45, F                                     ; reg: 0x045
05AF   0DC6           02070         rlf     0x46, F                                     ; reg: 0x046
05B0   0BC8           02071         decfsz  0x48, F                                     ; reg: 0x048
05B1   2D9A           02072         goto    label_141
05B2   0845           02073         movf    0x45, W                                     ; reg: 0x045
05B3   0008           02074         return
                      02075 
05B4                  02076 function_050:                                               ; address: 0x05b4
                      02077 
05B4   2575           02078         call    function_048
05B5   1683           02079         bsf     STATUS, RP0                                 ; reg: 0x003, bit: 5
05B6   1303           02080         bcf     STATUS, RP1                                 ; reg: 0x003, bit: 6
05B7   00A8           02081         movwf   0x28                                        ; reg: 0x0a8
05B8   1283           02082         bcf     STATUS, RP0                                 ; reg: 0x003, bit: 5
05B9   1303           02083         bcf     STATUS, RP1                                 ; reg: 0x003, bit: 6
05BA   2076           02084         call    function_001
05BB   00E1           02085         movwf   0x61                                        ; reg: 0x061
05BC   30F2           02086         movlw   0xf2
05BD   1D87           02087         btfss   PORTC, RC3                                  ; reg: 0x007, bit: 3
05BE   30F2           02088         movlw   0xf2
05BF   1683           02089         bsf     STATUS, RP0                                 ; reg: 0x003, bit: 5
05C0   1303           02090         bcf     STATUS, RP1                                 ; reg: 0x003, bit: 6
05C1   0000           02091         nop
05C2   0092           02092         movwf   PR2                                         ; reg: 0x092
05C3   1283           02093         bcf     STATUS, RP0                                 ; reg: 0x003, bit: 5
05C4   1303           02094         bcf     STATUS, RP1                                 ; reg: 0x003, bit: 6
05C5   1512           02095         bsf     T2CON, TMR2ON                               ; reg: 0x012, bit: 2
                      02096 
05C6                  02097 label_144:                                                  ; address: 0x05c6
                      02098 
05C6   1F06           02099         btfss   PORTB, RB6                                  ; reg: 0x006, bit: 6
05C7   14B1           02100         bsf     0x31, 0x1                                   ; reg: 0x031
05C8   1F86           02101         btfss   PORTB, RB7                                  ; reg: 0x006, bit: 7
05C9   1531           02102         bsf     0x31, 0x2                                   ; reg: 0x031
05CA   08E1           02103         movf    0x61, F                                     ; reg: 0x061
05CB   1D03           02104         btfss   STATUS, Z                                   ; reg: 0x003, bit: 2
05CC   2DC6           02105         goto    label_144
05CD   1112           02106         bcf     T2CON, TMR2ON                               ; reg: 0x012, bit: 2
05CE   0008           02107         return
05CF   00C8           02108         movwf   0x48                                        ; reg: 0x048
05D0   302A           02109         movlw   0x2a
gpasm-1.5.0 #1285 (Jan 23 2020) unidds_v1_08.   27.01.2020  22:56:48        PAGE 41


LOC    OBJECT CODE    LINE  SOURCE TEXT
  VALUE

05D1   00C7           02110         movwf   0x47                                        ; reg: 0x047
05D2   0848           02111         movf    0x48, W                                     ; reg: 0x048
05D3   01C8           02112         clrf    0x48                                        ; reg: 0x048
05D4   15C8           02113         bsf     0x48, 0x3                                   ; reg: 0x048
05D5   01C5           02114         clrf    0x45                                        ; reg: 0x045
05D6   01C6           02115         clrf    0x46                                        ; reg: 0x046
                      02116 
05D7                  02117 label_145:                                                  ; address: 0x05d7
                      02118 
05D7   1003           02119         bcf     STATUS, C                                   ; reg: 0x003, bit: 0
05D8   0DC5           02120         rlf     0x45, F                                     ; reg: 0x045
05D9   0DC6           02121         rlf     0x46, F                                     ; reg: 0x046
05DA   0DC7           02122         rlf     0x47, F                                     ; reg: 0x047
05DB   1C03           02123         btfss   STATUS, C                                   ; reg: 0x003, bit: 0
05DC   2DE0           02124         goto    label_146
05DD   07C5           02125         addwf   0x45, F                                     ; reg: 0x045
05DE   1803           02126         btfsc   STATUS, C                                   ; reg: 0x003, bit: 0
05DF   0AC6           02127         incf    0x46, F                                     ; reg: 0x046
                      02128 
05E0                  02129 label_146:                                                  ; address: 0x05e0
                      02130 
05E0   0BC8           02131         decfsz  0x48, F                                     ; reg: 0x048
05E1   2DD7           02132         goto    label_145
05E2   3009           02133         movlw   0x09
05E3   1003           02134         bcf     STATUS, C                                   ; reg: 0x003, bit: 0
05E4   0746           02135         addwf   0x46, W                                     ; reg: 0x046
05E5   0008           02136         return
                      02137 
05E6                  02138 function_051:                                               ; address: 0x05e6
                      02139 
05E6   30C8           02140         movlw   0xc8
05E7   00DF           02141         movwf   0x5f                                        ; reg: 0x05f
05E8   0008           02142         return
                      02143 
05E9                  02144 function_052:                                               ; address: 0x05e9
                      02145 
05E9   1683           02146         bsf     STATUS, RP0                                 ; reg: 0x003, bit: 5
05EA   1703           02147         bsf     STATUS, RP1                                 ; reg: 0x003, bit: 6
                      02148 
05EB                  02149 label_147:                                                  ; address: 0x05eb
                      02150 
05EB   188C           02151         btfsc   PIR1, TMR2IF                                ; reg: 0x00c, bit: 1
05EC   2DEB           02152         goto    label_147
05ED   1283           02153         bcf     STATUS, RP0                                 ; reg: 0x003, bit: 5
05EE   1303           02154         bcf     STATUS, RP1                                 ; reg: 0x003, bit: 6
05EF   0878           02155         movf    (Common_RAM + 8), W                         ; reg: 0x078
05F0   1283           02156         bcf     STATUS, RP0                                 ; reg: 0x003, bit: 5
05F1   1703           02157         bsf     STATUS, RP1                                 ; reg: 0x003, bit: 6
05F2   008D           02158         movwf   EEADR                                       ; reg: 0x10d
05F3   1283           02159         bcf     STATUS, RP0                                 ; reg: 0x003, bit: 5
05F4   1303           02160         bcf     STATUS, RP1                                 ; reg: 0x003, bit: 6
05F5   0879           02161         movf    (Common_RAM + 9), W                         ; reg: 0x079
05F6   1283           02162         bcf     STATUS, RP0                                 ; reg: 0x003, bit: 5
gpasm-1.5.0 #1285 (Jan 23 2020) unidds_v1_08.   27.01.2020  22:56:48        PAGE 42


LOC    OBJECT CODE    LINE  SOURCE TEXT
  VALUE

05F7   1703           02163         bsf     STATUS, RP1                                 ; reg: 0x003, bit: 6
05F8   008C           02164         movwf   EEDATA                                      ; reg: 0x10c
05F9   1683           02165         bsf     STATUS, RP0                                 ; reg: 0x003, bit: 5
05FA   1703           02166         bsf     STATUS, RP1                                 ; reg: 0x003, bit: 6
05FB   138C           02167         bcf     EECON1, EEPGD                               ; reg: 0x18c, bit: 7
05FC   150C           02168         bsf     EECON1, WREN                                ; reg: 0x18c, bit: 2
                      02169 
05FD                  02170 label_148:                                                  ; address: 0x05fd
                      02171 
05FD   138B           02172         bcf     INTCON, GIE                                 ; reg: 0x00b, bit: 7
05FE   1B8B           02173         btfsc   INTCON, GIE                                 ; reg: 0x00b, bit: 7
05FF   2DFD           02174         goto    label_148
0600   3055           02175         movlw   0x55
0601   008D           02176         movwf   PIR2                                        ; reg: 0x00d
0602   30AA           02177         movlw   0xaa
0603   008D           02178         movwf   PIR2                                        ; reg: 0x00d
0604   148C           02179         bsf     PIR1, TMR2IF                                ; reg: 0x00c, bit: 1
                      02180 
0605                  02181 label_149:                                                  ; address: 0x0605
                      02182 
0605   188C           02183         btfsc   PIR1, TMR2IF                                ; reg: 0x00c, bit: 1
0606   2E05           02184         goto    label_149
0607   178B           02185         bsf     INTCON, GIE                                 ; reg: 0x00b, bit: 7
0608   110C           02186         bcf     PIR1, CCP1IF                                ; reg: 0x00c, bit: 2
0609   1283           02187         bcf     STATUS, RP0                                 ; reg: 0x003, bit: 5
060A   1303           02188         bcf     STATUS, RP1                                 ; reg: 0x003, bit: 6
060B   0008           02189         return
                      02190 
060C                  02191 function_053:                                               ; address: 0x060c
                      02192 
060C   0878           02193         movf    (Common_RAM + 8), W                         ; reg: 0x078
060D   1283           02194         bcf     STATUS, RP0                                 ; reg: 0x003, bit: 5
060E   1703           02195         bsf     STATUS, RP1                                 ; reg: 0x003, bit: 6
060F   008D           02196         movwf   EEADR                                       ; reg: 0x10d
0610   1683           02197         bsf     STATUS, RP0                                 ; reg: 0x003, bit: 5
0611   1703           02198         bsf     STATUS, RP1                                 ; reg: 0x003, bit: 6
0612   138C           02199         bcf     EECON1, EEPGD                               ; reg: 0x18c, bit: 7
0613   140C           02200         bsf     EECON1, RD                                  ; reg: 0x18c, bit: 0
0614   1283           02201         bcf     STATUS, RP0                                 ; reg: 0x003, bit: 5
0615   1703           02202         bsf     STATUS, RP1                                 ; reg: 0x003, bit: 6
                      02203 
0616                  02204 label_150:                                                  ; address: 0x0616
                      02205 
0616   080C           02206         movf    PIR1, W                                     ; reg: 0x00c
0617   1283           02207         bcf     STATUS, RP0                                 ; reg: 0x003, bit: 5
0618   1303           02208         bcf     STATUS, RP1                                 ; reg: 0x003, bit: 6
0619   0008           02209         return
                      02210 
061A                  02211 function_054:                                               ; address: 0x061a
                      02212 
061A   3011           02213         movlw   0x11
061B   00B8           02214         movwf   0x38                                        ; reg: 0x038
061C   3020           02215         movlw   0x20
gpasm-1.5.0 #1285 (Jan 23 2020) unidds_v1_08.   27.01.2020  22:56:48        PAGE 43


LOC    OBJECT CODE    LINE  SOURCE TEXT
  VALUE

061D   0084           02216         movwf   FSR                                         ; reg: 0x004
061E   01F8           02217         clrf    (Common_RAM + 8)                            ; reg: 0x078
061F   2634           02218         call    function_055
0620   3004           02219         movlw   0x04
0621   00B8           02220         movwf   0x38                                        ; reg: 0x038
0622   307A           02221         movlw   0x7a
0623   0084           02222         movwf   FSR                                         ; reg: 0x004
0624   3019           02223         movlw   0x19
0625   00F8           02224         movwf   (Common_RAM + 8)                            ; reg: 0x078
0626   2634           02225         call    function_055
0627   1683           02226         bsf     STATUS, RP0                                 ; reg: 0x003, bit: 5
0628   1303           02227         bcf     STATUS, RP1                                 ; reg: 0x003, bit: 6
0629   087B           02228         movf    0x7b, W                                     ; reg: 0x0fb
062A   00AF           02229         movwf   0x2f                                        ; reg: 0x0af
062B   087A           02230         movf    0x7a, W                                     ; reg: 0x0fa
062C   00AE           02231         movwf   0x2e                                        ; reg: 0x0ae
062D   087C           02232         movf    0x7c, W                                     ; reg: 0x0fc
062E   00B0           02233         movwf   0x30                                        ; reg: 0x0b0
062F   087D           02234         movf    0x7d, W                                     ; reg: 0x0fd
0630   00B1           02235         movwf   0x31                                        ; reg: 0x0b1
0631   1283           02236         bcf     STATUS, RP0                                 ; reg: 0x003, bit: 5
0632   1303           02237         bcf     STATUS, RP1                                 ; reg: 0x003, bit: 6
0633   0008           02238         return
                      02239 
0634                  02240 function_055:                                               ; address: 0x0634
                      02241 
0634   260C           02242         call    function_053
0635   0080           02243         movwf   INDF                                        ; reg: 0x000
0636   0A84           02244         incf    FSR, F                                      ; reg: 0x004
0637   0AF8           02245         incf    (Common_RAM + 8), F                         ; reg: 0x078
0638   0BB8           02246         decfsz  0x38, F                                     ; reg: 0x038
0639   2E34           02247         goto    function_055
063A   0008           02248         return
                      02249 
063B                  02250 function_056:                                               ; address: 0x063b
                      02251 
063B   0800           02252         movf    INDF, W                                     ; reg: 0x000
063C   00F9           02253         movwf   (Common_RAM + 9)                            ; reg: 0x079
063D   25E9           02254         call    function_052
063E   0A84           02255         incf    FSR, F                                      ; reg: 0x004
063F   0AF8           02256         incf    (Common_RAM + 8), F                         ; reg: 0x078
0640   0BB8           02257         decfsz  0x38, F                                     ; reg: 0x038
0641   2E3B           02258         goto    function_056
0642   0008           02259         return
                      02260 
                      02261         ; code
                      02262 
0800                  02263         org     0x0800
                      02264 
0800                  02265 function_057:                                               ; address: 0x0800
                      02266 
0800   393F           02267         andlw   0x3f
0801   0782           02268         addwf   PCL, F                                      ; reg: 0x002
gpasm-1.5.0 #1285 (Jan 23 2020) unidds_v1_08.   27.01.2020  22:56:48        PAGE 44


LOC    OBJECT CODE    LINE  SOURCE TEXT
  VALUE

0802   3400           02269         retlw   0x00
0803   3400           02270         retlw   0x00
0804   3400           02271         retlw   0x00
0805   3401           02272         retlw   0x01
0806   3401           02273         retlw   0x01
0807   3401           02274         retlw   0x01
0808   3402           02275         retlw   0x02
0809   3403           02276         retlw   0x03
080A   3403           02277         retlw   0x03
080B   3404           02278         retlw   0x04
080C   3405           02279         retlw   0x05
080D   3406           02280         retlw   0x06
080E   3406           02281         retlw   0x06
080F   3407           02282         retlw   0x07
0810   3408           02283         retlw   0x08
0811   3409           02284         retlw   0x09
0812   3410           02285         retlw   0x10
0813   3411           02286         retlw   0x11
0814   3412           02287         retlw   0x12
0815   3414           02288         retlw   0x14
0816   3415           02289         retlw   0x15
0817   3417           02290         retlw   0x17
0818   3418           02291         retlw   0x18
0819   3419           02292         retlw   0x19
081A   3420           02293         retlw   0x20
081B   3422           02294         retlw   0x22
081C   3424           02295         retlw   0x24
081D   3425           02296         retlw   0x25
081E   3427           02297         retlw   0x27
081F   3430           02298         retlw   0x30
0820   3432           02299         retlw   0x32
0821   3434           02300         retlw   0x34
0822   3435           02301         retlw   0x35
0823   3437           02302         retlw   0x37
0824   3439           02303         retlw   0x39
0825   3440           02304         retlw   0x40
0826   3443           02305         retlw   0x43
0827   3445           02306         retlw   0x45
0828   3447           02307         retlw   0x47
0829   3450           02308         retlw   0x50
082A   3452           02309         retlw   0x52
082B   3454           02310         retlw   0x54
082C   3456           02311         retlw   0x56
082D   3458           02312         retlw   0x58
082E   3460           02313         retlw   0x60
082F   3463           02314         retlw   0x63
0830   3465           02315         retlw   0x65
0831   3467           02316         retlw   0x67
0832   3469           02317         retlw   0x69
0833   3472           02318         retlw   0x72
0834   3474           02319         retlw   0x74
0835   3476           02320         retlw   0x76
0836   3478           02321         retlw   0x78
gpasm-1.5.0 #1285 (Jan 23 2020) unidds_v1_08.   27.01.2020  22:56:48        PAGE 45


LOC    OBJECT CODE    LINE  SOURCE TEXT
  VALUE

0837   3481           02322         retlw   0x81
0838   3483           02323         retlw   0x83
0839   3485           02324         retlw   0x85
083A   3487           02325         retlw   0x87
083B   3490           02326         retlw   0x90
083C   3492           02327         retlw   0x92
083D   3494           02328         retlw   0x94
083E   3496           02329         retlw   0x96
083F   3499           02330         retlw   0x99
0840   3499           02331         retlw   0x99
0841   3499           02332         retlw   0x99
0842   3440           02333         retlw   0x40
0843   3456           02334         retlw   0x56
0844   3431           02335         retlw   0x31
0845   342E           02336         retlw   0x2e
0846   3430           02337         retlw   0x30
0847   3438           02338         retlw   0x38
0848   3420           02339         retlw   0x20
0849   3469           02340         retlw   0x69
084A   346E           02341         retlw   0x6e
084B   3469           02342         retlw   0x69
084C   3474           02343         retlw   0x74
084D   3400           02344         retlw   0x00
084E   3440           02345         retlw   0x40
084F   3456           02346         retlw   0x56
0850   3431           02347         retlw   0x31
0851   342E           02348         retlw   0x2e
0852   3430           02349         retlw   0x30
0853   3438           02350         retlw   0x38
0854   3420           02351         retlw   0x20
0855   3420           02352         retlw   0x20
0856   3420           02353         retlw   0x20
0857   3431           02354         retlw   0x31
0858   3436           02355         retlw   0x36
0859   342E           02356         retlw   0x2e
085A   3430           02357         retlw   0x30
085B   3434           02358         retlw   0x34
085C   342E           02359         retlw   0x2e
085D   3430           02360         retlw   0x30
085E   3436           02361         retlw   0x36
085F   3400           02362         retlw   0x00
0860   3400           02363         retlw   0x00
0861   3444           02364         retlw   0x44
0862   344C           02365         retlw   0x4c
0863   342D           02366         retlw   0x2d
0864   3451           02367         retlw   0x51
0865   3452           02368         retlw   0x52
0866   3450           02369         retlw   0x50
0867   342D           02370         retlw   0x2d
0868   3441           02371         retlw   0x41
0869   3447           02372         retlw   0x47
086A   3420           02373         retlw   0x20
086B   3455           02374         retlw   0x55
gpasm-1.5.0 #1285 (Jan 23 2020) unidds_v1_08.   27.01.2020  22:56:48        PAGE 46


LOC    OBJECT CODE    LINE  SOURCE TEXT
  VALUE

086C   346E           02375         retlw   0x6e
086D   3469           02376         retlw   0x69
086E   3444           02377         retlw   0x44
086F   3444           02378         retlw   0x44
0870   3453           02379         retlw   0x53
0871   3400           02380         retlw   0x00
0872   3400           02381         retlw   0x00
0873   3444           02382         retlw   0x44
0874   3444           02383         retlw   0x44
0875   3453           02384         retlw   0x53
0876   342D           02385         retlw   0x2d
0877   3456           02386         retlw   0x56
0878   3446           02387         retlw   0x46
0879   344F           02388         retlw   0x4f
087A   3428           02389         retlw   0x28
087B   3463           02390         retlw   0x63
087C   3429           02391         retlw   0x29
087D   3444           02392         retlw   0x44
087E   344C           02393         retlw   0x4c
087F   3434           02394         retlw   0x34
0880   344A           02395         retlw   0x4a
0881   3441           02396         retlw   0x41
0882   344C           02397         retlw   0x4c
0883   3400           02398         retlw   0x00
0884   3400           02399         retlw   0x00
0885   3453           02400         retlw   0x53
0886   3457           02401         retlw   0x57
0887   3452           02402         retlw   0x52
0888   343A           02403         retlw   0x3a
0889   3420           02404         retlw   0x20
088A   3400           02405         retlw   0x00
088B   3440           02406         retlw   0x40
088C   3457           02407         retlw   0x57
088D   3470           02408         retlw   0x70
088E   344D           02409         retlw   0x4d
088F   343A           02410         retlw   0x3a
0890   3420           02411         retlw   0x20
0891   3400           02412         retlw   0x00
0892   3400           02413         retlw   0x00
0893   344D           02414         retlw   0x4d
0894   3465           02415         retlw   0x65
0895   346E           02416         retlw   0x6e
0896   3475           02417         retlw   0x75
0897   3400           02418         retlw   0x00
0898   3440           02419         retlw   0x40
0899   3473           02420         retlw   0x73
089A   3463           02421         retlw   0x63
089B   3461           02422         retlw   0x61
089C   346E           02423         retlw   0x6e
089D   346E           02424         retlw   0x6e
089E   3469           02425         retlw   0x69
089F   346E           02426         retlw   0x6e
08A0   3467           02427         retlw   0x67
gpasm-1.5.0 #1285 (Jan 23 2020) unidds_v1_08.   27.01.2020  22:56:48        PAGE 47


LOC    OBJECT CODE    LINE  SOURCE TEXT
  VALUE

08A1   3400           02428         retlw   0x00
08A2   3440           02429         retlw   0x40
08A3   3462           02430         retlw   0x62
08A4   3472           02431         retlw   0x72
08A5   3465           02432         retlw   0x65
08A6   3461           02433         retlw   0x61
08A7   346B           02434         retlw   0x6b
08A8   3420           02435         retlw   0x20
08A9   3420           02436         retlw   0x20
08AA   3420           02437         retlw   0x20
08AB   3400           02438         retlw   0x00
08AC   3409           02439         retlw   0x09
08AD   3473           02440         retlw   0x73
08AE   3461           02441         retlw   0x61
08AF   3476           02442         retlw   0x76
08B0   3465           02443         retlw   0x65
08B1   3420           02444         retlw   0x20
08B2   3420           02445         retlw   0x20
08B3   3420           02446         retlw   0x20
08B4   3400           02447         retlw   0x00
08B5   3409           02448         retlw   0x09
08B6   3463           02449         retlw   0x63
08B7   3461           02450         retlw   0x61
08B8   346E           02451         retlw   0x6e
08B9   3463           02452         retlw   0x63
08BA   3465           02453         retlw   0x65
08BB   346C           02454         retlw   0x6c
08BC   3420           02455         retlw   0x20
08BD   3400           02456         retlw   0x00
08BE   3400           02457         retlw   0x00
08BF   3453           02458         retlw   0x53
08C0   343D           02459         retlw   0x3d
08C1   3430           02460         retlw   0x30
08C2   3420           02461         retlw   0x20
08C3   3420           02462         retlw   0x20
08C4   3430           02463         retlw   0x30
08C5   3420           02464         retlw   0x20
08C6   3475           02465         retlw   0x75
08C7   3456           02466         retlw   0x56
08C8   3420           02467         retlw   0x20
08C9   3420           02468         retlw   0x20
08CA   3420           02469         retlw   0x20
08CB   3428           02470         retlw   0x28
08CC   346F           02471         retlw   0x6f
08CD   346B           02472         retlw   0x6b
08CE   3429           02473         retlw   0x29
08CF   3400           02474         retlw   0x00
08D0   3400           02475         retlw   0x00
08D1   3453           02476         retlw   0x53
08D2   343D           02477         retlw   0x3d
08D3   3439           02478         retlw   0x39
08D4   3420           02479         retlw   0x20
08D5   3435           02480         retlw   0x35
gpasm-1.5.0 #1285 (Jan 23 2020) unidds_v1_08.   27.01.2020  22:56:48        PAGE 48


LOC    OBJECT CODE    LINE  SOURCE TEXT
  VALUE

08D6   3430           02481         retlw   0x30
08D7   3420           02482         retlw   0x20
08D8   3475           02483         retlw   0x75
08D9   3456           02484         retlw   0x56
08DA   3420           02485         retlw   0x20
08DB   3420           02486         retlw   0x20
08DC   3420           02487         retlw   0x20
08DD   3428           02488         retlw   0x28
08DE   346F           02489         retlw   0x6f
08DF   346B           02490         retlw   0x6b
08E0   3429           02491         retlw   0x29
08E1   3400           02492         retlw   0x00
08E2   3440           02493         retlw   0x40
08E3   3420           02494         retlw   0x20
08E4   3420           02495         retlw   0x20
08E5   3420           02496         retlw   0x20
08E6   3456           02497         retlw   0x56
08E7   3446           02498         retlw   0x46
08E8   344F           02499         retlw   0x4f
08E9   342B           02500         retlw   0x2b
08EA   345A           02501         retlw   0x5a
08EB   3446           02502         retlw   0x46
08EC   3420           02503         retlw   0x20
08ED   3420           02504         retlw   0x20
08EE   3420           02505         retlw   0x20
08EF   3420           02506         retlw   0x20
08F0   3420           02507         retlw   0x20
08F1   3420           02508         retlw   0x20
08F2   3420           02509         retlw   0x20
08F3   3400           02510         retlw   0x00
08F4   3440           02511         retlw   0x40
08F5   3420           02512         retlw   0x20
08F6   3420           02513         retlw   0x20
08F7   3420           02514         retlw   0x20
08F8   3456           02515         retlw   0x56
08F9   3446           02516         retlw   0x46
08FA   344F           02517         retlw   0x4f
08FB   342D           02518         retlw   0x2d
08FC   345A           02519         retlw   0x5a
08FD   3446           02520         retlw   0x46
08FE   3420           02521         retlw   0x20
08FF   3420           02522         retlw   0x20
0900   3420           02523         retlw   0x20
0901   3420           02524         retlw   0x20
0902   3420           02525         retlw   0x20
0903   3420           02526         retlw   0x20
0904   3420           02527         retlw   0x20
0905   3400           02528         retlw   0x00
0906   3400           02529         retlw   0x00
0907   3466           02530         retlw   0x66
0908   3469           02531         retlw   0x69
0909   3472           02532         retlw   0x72
090A   3473           02533         retlw   0x73
gpasm-1.5.0 #1285 (Jan 23 2020) unidds_v1_08.   27.01.2020  22:56:48        PAGE 49


LOC    OBJECT CODE    LINE  SOURCE TEXT
  VALUE

090B   3474           02534         retlw   0x74
090C   3420           02535         retlw   0x20
090D   3469           02536         retlw   0x69
090E   346E           02537         retlw   0x6e
090F   3469           02538         retlw   0x69
0910   3474           02539         retlw   0x74
0911   3420           02540         retlw   0x20
0912   3420           02541         retlw   0x20
0913   3420           02542         retlw   0x20
0914   3420           02543         retlw   0x20
0915   3420           02544         retlw   0x20
0916   3420           02545         retlw   0x20
0917   3400           02546         retlw   0x00
0918   3440           02547         retlw   0x40
0919   3470           02548         retlw   0x70
091A   346C           02549         retlw   0x6c
091B   3465           02550         retlw   0x65
091C   3461           02551         retlw   0x61
091D   3473           02552         retlw   0x73
091E   3465           02553         retlw   0x65
091F   3420           02554         retlw   0x20
0920   3469           02555         retlw   0x69
0921   346E           02556         retlw   0x6e
0922   3470           02557         retlw   0x70
0923   3475           02558         retlw   0x75
0924   3474           02559         retlw   0x74
0925   3420           02560         retlw   0x20
0926   346E           02561         retlw   0x6e
0927   3472           02562         retlw   0x72
0928   3421           02563         retlw   0x21
0929   3400           02564         retlw   0x00
092A   3400           02565         retlw   0x00
092B   3474           02566         retlw   0x74
092C   3475           02567         retlw   0x75
092D   346E           02568         retlw   0x6e
092E   3469           02569         retlw   0x69
092F   346E           02570         retlw   0x6e
0930   3467           02571         retlw   0x67
0931   3420           02572         retlw   0x20
0932   3420           02573         retlw   0x20
0933   3420           02574         retlw   0x20
0934   3420           02575         retlw   0x20
0935   3420           02576         retlw   0x20
0936   3420           02577         retlw   0x20
0937   3420           02578         retlw   0x20
0938   3420           02579         retlw   0x20
0939   3420           02580         retlw   0x20
093A   3420           02581         retlw   0x20
093B   3400           02582         retlw   0x00
093C   3440           02583         retlw   0x40
093D   3420           02584         retlw   0x20
093E   3420           02585         retlw   0x20
093F   3420           02586         retlw   0x20
gpasm-1.5.0 #1285 (Jan 23 2020) unidds_v1_08.   27.01.2020  22:56:48        PAGE 50


LOC    OBJECT CODE    LINE  SOURCE TEXT
  VALUE

0940   346F           02587         retlw   0x6f
0941   346E           02588         retlw   0x6e
0942   3420           02589         retlw   0x20
0943   3420           02590         retlw   0x20
0944   3420           02591         retlw   0x20
0945   3420           02592         retlw   0x20
0946   3420           02593         retlw   0x20
0947   3420           02594         retlw   0x20
0948   3420           02595         retlw   0x20
0949   3420           02596         retlw   0x20
094A   3420           02597         retlw   0x20
094B   3420           02598         retlw   0x20
094C   3420           02599         retlw   0x20
094D   3400           02600         retlw   0x00
094E   3440           02601         retlw   0x40
094F   3420           02602         retlw   0x20
0950   3420           02603         retlw   0x20
0951   3420           02604         retlw   0x20
0952   346F           02605         retlw   0x6f
0953   3466           02606         retlw   0x66
0954   3466           02607         retlw   0x66
0955   3420           02608         retlw   0x20
0956   3420           02609         retlw   0x20
0957   3420           02610         retlw   0x20
0958   3420           02611         retlw   0x20
0959   3420           02612         retlw   0x20
095A   3420           02613         retlw   0x20
095B   3420           02614         retlw   0x20
095C   3420           02615         retlw   0x20
095D   3420           02616         retlw   0x20
095E   3420           02617         retlw   0x20
095F   3400           02618         retlw   0x00
0960   3400           02619         retlw   0x00
0961   3420           02620         retlw   0x20
0962   3430           02621         retlw   0x30
0963   3420           02622         retlw   0x20
0964   3462           02623         retlw   0x62
0965   3472           02624         retlw   0x72
0966   3465           02625         retlw   0x65
0967   3461           02626         retlw   0x61
0968   346B           02627         retlw   0x6b
0969   3420           02628         retlw   0x20
096A   3420           02629         retlw   0x20
096B   3420           02630         retlw   0x20
096C   3420           02631         retlw   0x20
096D   3420           02632         retlw   0x20
096E   3420           02633         retlw   0x20
096F   3420           02634         retlw   0x20
0970   3420           02635         retlw   0x20
0971   3400           02636         retlw   0x00
0972   3400           02637         retlw   0x00
0973   3420           02638         retlw   0x20
0974   3431           02639         retlw   0x31
gpasm-1.5.0 #1285 (Jan 23 2020) unidds_v1_08.   27.01.2020  22:56:48        PAGE 51


LOC    OBJECT CODE    LINE  SOURCE TEXT
  VALUE

0975   3420           02640         retlw   0x20
0976   3456           02641         retlw   0x56
0977   3446           02642         retlw   0x46
0978   344F           02643         retlw   0x4f
0979   3420           02644         retlw   0x20
097A   3441           02645         retlw   0x41
097B   342F           02646         retlw   0x2f
097C   3442           02647         retlw   0x42
097D   3420           02648         retlw   0x20
097E   3420           02649         retlw   0x20
097F   3420           02650         retlw   0x20
0980   3420           02651         retlw   0x20
0981   3420           02652         retlw   0x20
0982   3420           02653         retlw   0x20
0983   3400           02654         retlw   0x00
0984   3400           02655         retlw   0x00
0985   3420           02656         retlw   0x20
0986   3432           02657         retlw   0x32
0987   3420           02658         retlw   0x20
0988   346C           02659         retlw   0x6c
0989   3469           02660         retlw   0x69
098A   3467           02661         retlw   0x67
098B   3468           02662         retlw   0x68
098C   3474           02663         retlw   0x74
098D   3420           02664         retlw   0x20
098E   346F           02665         retlw   0x6f
098F   346E           02666         retlw   0x6e
0990   342F           02667         retlw   0x2f
0991   346F           02668         retlw   0x6f
0992   3466           02669         retlw   0x66
0993   3466           02670         retlw   0x66
0994   3420           02671         retlw   0x20
0995   3400           02672         retlw   0x00
0996   3400           02673         retlw   0x00
0997   3420           02674         retlw   0x20
0998   3433           02675         retlw   0x33
0999   3420           02676         retlw   0x20
099A   346C           02677         retlw   0x6c
099B   3469           02678         retlw   0x69
099C   3467           02679         retlw   0x67
099D   3468           02680         retlw   0x68
099E   3474           02681         retlw   0x74
099F   3420           02682         retlw   0x20
09A0   3461           02683         retlw   0x61
09A1   3475           02684         retlw   0x75
09A2   3474           02685         retlw   0x74
09A3   346F           02686         retlw   0x6f
09A4   3420           02687         retlw   0x20
09A5   3420           02688         retlw   0x20
09A6   3420           02689         retlw   0x20
09A7   3400           02690         retlw   0x00
09A8   3400           02691         retlw   0x00
09A9   3420           02692         retlw   0x20
gpasm-1.5.0 #1285 (Jan 23 2020) unidds_v1_08.   27.01.2020  22:56:48        PAGE 52


LOC    OBJECT CODE    LINE  SOURCE TEXT
  VALUE

09AA   3434           02693         retlw   0x34
09AB   3420           02694         retlw   0x20
09AC   3473           02695         retlw   0x73
09AD   3463           02696         retlw   0x63
09AE   3461           02697         retlw   0x61
09AF   346E           02698         retlw   0x6e
09B0   3420           02699         retlw   0x20
09B1   3420           02700         retlw   0x20
09B2   3420           02701         retlw   0x20
09B3   3420           02702         retlw   0x20
09B4   3420           02703         retlw   0x20
09B5   3420           02704         retlw   0x20
09B6   3420           02705         retlw   0x20
09B7   3420           02706         retlw   0x20
09B8   3420           02707         retlw   0x20
09B9   3400           02708         retlw   0x00
09BA   3400           02709         retlw   0x00
09BB   3420           02710         retlw   0x20
09BC   3435           02711         retlw   0x35
09BD   3420           02712         retlw   0x20
09BE   3453           02713         retlw   0x53
09BF   3445           02714         retlw   0x45
09C0   3454           02715         retlw   0x54
09C1   3455           02716         retlw   0x55
09C2   3450           02717         retlw   0x50
09C3   3420           02718         retlw   0x20
09C4   3420           02719         retlw   0x20
09C5   3420           02720         retlw   0x20
09C6   3420           02721         retlw   0x20
09C7   3420           02722         retlw   0x20
09C8   3420           02723         retlw   0x20
09C9   3420           02724         retlw   0x20
09CA   3420           02725         retlw   0x20
09CB   3400           02726         retlw   0x00
09CC   3400           02727         retlw   0x00
09CD   3420           02728         retlw   0x20
09CE   3436           02729         retlw   0x36
09CF   3420           02730         retlw   0x20
09D0   346B           02731         retlw   0x6b
09D1   3465           02732         retlw   0x65
09D2   3479           02733         retlw   0x79
09D3   3465           02734         retlw   0x65
09D4   3472           02735         retlw   0x72
09D5   3420           02736         retlw   0x20
09D6   3420           02737         retlw   0x20
09D7   3420           02738         retlw   0x20
09D8   3420           02739         retlw   0x20
09D9   3420           02740         retlw   0x20
09DA   3420           02741         retlw   0x20
09DB   3420           02742         retlw   0x20
09DC   3420           02743         retlw   0x20
09DD   3400           02744         retlw   0x00
09DE   3400           02745         retlw   0x00
gpasm-1.5.0 #1285 (Jan 23 2020) unidds_v1_08.   27.01.2020  22:56:48        PAGE 53


LOC    OBJECT CODE    LINE  SOURCE TEXT
  VALUE

09DF   3420           02746         retlw   0x20
09E0   3437           02747         retlw   0x37
09E1   3420           02748         retlw   0x20
09E2   3474           02749         retlw   0x74
09E3   3475           02750         retlw   0x75
09E4   346E           02751         retlw   0x6e
09E5   3465           02752         retlw   0x65
09E6   3420           02753         retlw   0x20
09E7   3420           02754         retlw   0x20
09E8   3420           02755         retlw   0x20
09E9   3420           02756         retlw   0x20
09EA   3420           02757         retlw   0x20
09EB   3420           02758         retlw   0x20
09EC   3420           02759         retlw   0x20
09ED   3420           02760         retlw   0x20
09EE   3420           02761         retlw   0x20
09EF   3400           02762         retlw   0x00
09F0   3400           02763         retlw   0x00
09F1   3420           02764         retlw   0x20
09F2   3438           02765         retlw   0x38
09F3   3420           02766         retlw   0x20
09F4   3478           02767         retlw   0x78
09F5   3469           02768         retlw   0x69
09F6   3474           02769         retlw   0x74
09F7   3420           02770         retlw   0x20
09F8   3431           02771         retlw   0x31
09F9   346B           02772         retlw   0x6b
09FA   3420           02773         retlw   0x20
09FB   3420           02774         retlw   0x20
09FC   3420           02775         retlw   0x20
09FD   3420           02776         retlw   0x20
09FE   3420           02777         retlw   0x20
09FF   3420           02778         retlw   0x20
0A00   3420           02779         retlw   0x20
0A01   3400           02780         retlw   0x00
0A02   3400           02781         retlw   0x00
0A03   3420           02782         retlw   0x20
0A04   3439           02783         retlw   0x39
0A05   3420           02784         retlw   0x20
0A06   3478           02785         retlw   0x78
0A07   3469           02786         retlw   0x69
0A08   3474           02787         retlw   0x74
0A09   3420           02788         retlw   0x20
0A0A   3432           02789         retlw   0x32
0A0B   346B           02790         retlw   0x6b
0A0C   3420           02791         retlw   0x20
0A0D   3420           02792         retlw   0x20
0A0E   3420           02793         retlw   0x20
0A0F   3420           02794         retlw   0x20
0A10   3420           02795         retlw   0x20
0A11   3420           02796         retlw   0x20
0A12   3420           02797         retlw   0x20
0A13   3400           02798         retlw   0x00
gpasm-1.5.0 #1285 (Jan 23 2020) unidds_v1_08.   27.01.2020  22:56:48        PAGE 54


LOC    OBJECT CODE    LINE  SOURCE TEXT
  VALUE

0A14   3400           02799         retlw   0x00
0A15   3431           02800         retlw   0x31
0A16   3430           02801         retlw   0x30
0A17   3420           02802         retlw   0x20
0A18   3472           02803         retlw   0x72
0A19   3469           02804         retlw   0x69
0A1A   3474           02805         retlw   0x74
0A1B   3420           02806         retlw   0x20
0A1C   3420           02807         retlw   0x20
0A1D   3420           02808         retlw   0x20
0A1E   3420           02809         retlw   0x20
0A1F   3420           02810         retlw   0x20
0A20   3420           02811         retlw   0x20
0A21   3420           02812         retlw   0x20
0A22   3420           02813         retlw   0x20
0A23   3420           02814         retlw   0x20
0A24   3420           02815         retlw   0x20
0A25   3400           02816         retlw   0x00
0A26   3400           02817         retlw   0x00
0A27   3420           02818         retlw   0x20
0A28   3430           02819         retlw   0x30
0A29   3420           02820         retlw   0x20
0A2A   3453           02821         retlw   0x53
0A2B   3465           02822         retlw   0x65
0A2C   3474           02823         retlw   0x74
0A2D   3475           02824         retlw   0x75
0A2E   3470           02825         retlw   0x70
0A2F   3420           02826         retlw   0x20
0A30   3462           02827         retlw   0x62
0A31   3472           02828         retlw   0x72
0A32   3465           02829         retlw   0x65
0A33   3461           02830         retlw   0x61
0A34   346B           02831         retlw   0x6b
0A35   3420           02832         retlw   0x20
0A36   3420           02833         retlw   0x20
0A37   3400           02834         retlw   0x00
0A38   3400           02835         retlw   0x00
0A39   3420           02836         retlw   0x20
0A3A   3431           02837         retlw   0x31
0A3B   3420           02838         retlw   0x20
0A3C   3444           02839         retlw   0x44
0A3D   3444           02840         retlw   0x44
0A3E   3453           02841         retlw   0x53
0A3F   342D           02842         retlw   0x2d
0A40   3454           02843         retlw   0x54
0A41   3461           02844         retlw   0x61
0A42   346B           02845         retlw   0x6b
0A43   3474           02846         retlw   0x74
0A44   3420           02847         retlw   0x20
0A45   3420           02848         retlw   0x20
0A46   3420           02849         retlw   0x20
0A47   3420           02850         retlw   0x20
0A48   3420           02851         retlw   0x20
gpasm-1.5.0 #1285 (Jan 23 2020) unidds_v1_08.   27.01.2020  22:56:48        PAGE 55


LOC    OBJECT CODE    LINE  SOURCE TEXT
  VALUE

0A49   3400           02852         retlw   0x00
0A4A   3400           02853         retlw   0x00
0A4B   3420           02854         retlw   0x20
0A4C   3432           02855         retlw   0x32
0A4D   3420           02856         retlw   0x20
0A4E   3456           02857         retlw   0x56
0A4F   3446           02858         retlw   0x46
0A50   344F           02859         retlw   0x4f
0A51   342D           02860         retlw   0x2d
0A52   3441           02861         retlw   0x41
0A53   3420           02862         retlw   0x20
0A54   3428           02863         retlw   0x28
0A55   3448           02864         retlw   0x48
0A56   347A           02865         retlw   0x7a
0A57   3429           02866         retlw   0x29
0A58   3420           02867         retlw   0x20
0A59   3420           02868         retlw   0x20
0A5A   3420           02869         retlw   0x20
0A5B   3400           02870         retlw   0x00
0A5C   3400           02871         retlw   0x00
0A5D   3420           02872         retlw   0x20
0A5E   3433           02873         retlw   0x33
0A5F   3420           02874         retlw   0x20
0A60   3456           02875         retlw   0x56
0A61   3446           02876         retlw   0x46
0A62   344F           02877         retlw   0x4f
0A63   342D           02878         retlw   0x2d
0A64   3442           02879         retlw   0x42
0A65   3420           02880         retlw   0x20
0A66   3428           02881         retlw   0x28
0A67   3448           02882         retlw   0x48
0A68   347A           02883         retlw   0x7a
0A69   3429           02884         retlw   0x29
0A6A   3420           02885         retlw   0x20
0A6B   3420           02886         retlw   0x20
0A6C   3420           02887         retlw   0x20
0A6D   3400           02888         retlw   0x00
0A6E   3400           02889         retlw   0x00
0A6F   3420           02890         retlw   0x20
0A70   3434           02891         retlw   0x34
0A71   3420           02892         retlw   0x20
0A72   345A           02893         retlw   0x5a
0A73   3446           02894         retlw   0x46
0A74   3420           02895         retlw   0x20
0A75   3428           02896         retlw   0x28
0A76   3448           02897         retlw   0x48
0A77   347A           02898         retlw   0x7a
0A78   3429           02899         retlw   0x29
0A79   3420           02900         retlw   0x20
0A7A   3420           02901         retlw   0x20
0A7B   3420           02902         retlw   0x20
0A7C   3420           02903         retlw   0x20
0A7D   3420           02904         retlw   0x20
gpasm-1.5.0 #1285 (Jan 23 2020) unidds_v1_08.   27.01.2020  22:56:48        PAGE 56


LOC    OBJECT CODE    LINE  SOURCE TEXT
  VALUE

0A7E   3420           02905         retlw   0x20
0A7F   3400           02906         retlw   0x00
0A80   3400           02907         retlw   0x00
0A81   3420           02908         retlw   0x20
0A82   3435           02909         retlw   0x35
0A83   3420           02910         retlw   0x20
0A84   3473           02911         retlw   0x73
0A85   3463           02912         retlw   0x63
0A86   3461           02913         retlw   0x61
0A87   346E           02914         retlw   0x6e
0A88   342D           02915         retlw   0x2d
0A89   3462           02916         retlw   0x62
0A8A   3465           02917         retlw   0x65
0A8B   3467           02918         retlw   0x67
0A8C   3469           02919         retlw   0x69
0A8D   346E           02920         retlw   0x6e
0A8E   3420           02921         retlw   0x20
0A8F   3420           02922         retlw   0x20
0A90   3420           02923         retlw   0x20
0A91   3400           02924         retlw   0x00
0A92   3400           02925         retlw   0x00
0A93   3420           02926         retlw   0x20
0A94   3436           02927         retlw   0x36
0A95   3420           02928         retlw   0x20
0A96   3473           02929         retlw   0x73
0A97   3463           02930         retlw   0x63
0A98   3461           02931         retlw   0x61
0A99   346E           02932         retlw   0x6e
0A9A   342D           02933         retlw   0x2d
0A9B   3465           02934         retlw   0x65
0A9C   346E           02935         retlw   0x6e
0A9D   3464           02936         retlw   0x64
0A9E   3420           02937         retlw   0x20
0A9F   3420           02938         retlw   0x20
0AA0   3420           02939         retlw   0x20
0AA1   3420           02940         retlw   0x20
0AA2   3420           02941         retlw   0x20
0AA3   3400           02942         retlw   0x00
0AA4   3400           02943         retlw   0x00
0AA5   3420           02944         retlw   0x20
0AA6   3437           02945         retlw   0x37
0AA7   3420           02946         retlw   0x20
0AA8   3453           02947         retlw   0x53
0AA9   342D           02948         retlw   0x2d
0AAA   344D           02949         retlw   0x4d
0AAB   3465           02950         retlw   0x65
0AAC   3474           02951         retlw   0x74
0AAD   3465           02952         retlw   0x65
0AAE   3472           02953         retlw   0x72
0AAF   3420           02954         retlw   0x20
0AB0   3465           02955         retlw   0x65
0AB1   3469           02956         retlw   0x69
0AB2   3463           02957         retlw   0x63
gpasm-1.5.0 #1285 (Jan 23 2020) unidds_v1_08.   27.01.2020  22:56:48        PAGE 57


LOC    OBJECT CODE    LINE  SOURCE TEXT
  VALUE

0AB3   3468           02958         retlw   0x68
0AB4   342E           02959         retlw   0x2e
0AB5   3400           02960         retlw   0x00
0AB6   3400           02961         retlw   0x00
0AB7   3420           02962         retlw   0x20
0AB8   3438           02963         retlw   0x38
0AB9   3420           02964         retlw   0x20
0ABA   3456           02965         retlw   0x56
0ABB   3446           02966         retlw   0x46
0ABC   344F           02967         retlw   0x4f
0ABD   3420           02968         retlw   0x20
0ABE   342B           02969         retlw   0x2b
0ABF   342F           02970         retlw   0x2f
0AC0   342D           02971         retlw   0x2d
0AC1   3420           02972         retlw   0x20
0AC2   345A           02973         retlw   0x5a
0AC3   3446           02974         retlw   0x46
0AC4   3420           02975         retlw   0x20
0AC5   3420           02976         retlw   0x20
0AC6   3420           02977         retlw   0x20
0AC7   3400           02978         retlw   0x00
0AC8   3400           02979         retlw   0x00
0AC9   3420           02980         retlw   0x20
0ACA   3439           02981         retlw   0x39
0ACB   3420           02982         retlw   0x20
0ACC   3454           02983         retlw   0x54
0ACD   3458           02984         retlw   0x58
0ACE   3420           02985         retlw   0x20
0ACF   342B           02986         retlw   0x2b
0AD0   342F           02987         retlw   0x2f
0AD1   342D           02988         retlw   0x2d
0AD2   3420           02989         retlw   0x20
0AD3   345A           02990         retlw   0x5a
0AD4   3446           02991         retlw   0x46
0AD5   3420           02992         retlw   0x20
0AD6   3420           02993         retlw   0x20
0AD7   3420           02994         retlw   0x20
0AD8   3420           02995         retlw   0x20
0AD9   3400           02996         retlw   0x00
0ADA   3400           02997         retlw   0x00
0ADB   3431           02998         retlw   0x31
0ADC   3430           02999         retlw   0x30
0ADD   3420           03000         retlw   0x20
0ADE   3464           03001         retlw   0x64
0ADF   3465           03002         retlw   0x65
0AE0   3466           03003         retlw   0x66
0AE1   342E           03004         retlw   0x2e
0AE2   3420           03005         retlw   0x20
0AE3   3463           03006         retlw   0x63
0AE4   346F           03007         retlw   0x6f
0AE5   346E           03008         retlw   0x6e
0AE6   3466           03009         retlw   0x66
0AE7   3469           03010         retlw   0x69
gpasm-1.5.0 #1285 (Jan 23 2020) unidds_v1_08.   27.01.2020  22:56:48        PAGE 58


LOC    OBJECT CODE    LINE  SOURCE TEXT
  VALUE

0AE8   3467           03011         retlw   0x67
0AE9   3420           03012         retlw   0x20
0AEA   3420           03013         retlw   0x20
0AEB   3400           03014         retlw   0x00
                      03015 
                      03016         ; code
                      03017 
1000                  03018         org     0x1000
                      03019 
1000                  03020 function_058:                                               ; address: 0x1000
                      03021 
1000   390F           03022         andlw   0x0f
1001   0782           03023         addwf   PCL, F                                      ; reg: 0x002
1002   2ADD           03024         goto    label_070
1003   2AE6           03025         goto    label_073
1004   2AEF           03026         goto    label_074
1005   2AF8           03027         goto    label_076
1006   2B01           03028         goto    label_078
1007   2B0A           03029         goto    label_080
1008   2B13           03030         goto    function_023
                      03031 
1009                  03032 function_059:                                               ; address: 0x1009
                      03033 
1009   2B1C           03034         goto    label_083
100A   2B25           03035         goto    label_085
100B   2B41           03036         goto    label_086
100C   2B5D           03037         goto    label_093
100D   2B78           03038         goto    label_097
100E   2B78           03039         goto    label_097
100F   2B78           03040         goto    label_097
1010   2B78           03041         goto    label_097
1011   2B78           03042         goto    label_097
                      03043 
1012                  03044 function_060:                                               ; address: 0x1012
                      03045 
1012   390F           03046         andlw   0x0f
1013   0782           03047         addwf   PCL, F                                      ; reg: 0x002
1014   2B78           03048         goto    label_097
1015   2BAF           03049         goto    label_106
1016   2BB8           03050         goto    label_108
1017   2BC6           03051         goto    label_110
1018   2B81           03052         goto    label_098
1019   2B8A           03053         goto    label_099
101A   2B93           03054         goto    label_100
101B   2BD4           03055         goto    label_111
101C   2BDD           03056         goto    label_114
101D   2BEB           03057         goto    label_118
101E   2BA1           03058         goto    label_104
101F   2B78           03059         goto    label_097
1020   2B78           03060         goto    label_097
1021   2B78           03061         goto    label_097
1022   2B78           03062         goto    label_097
1023   2B78           03063         goto    label_097
gpasm-1.5.0 #1285 (Jan 23 2020) unidds_v1_08.   27.01.2020  22:56:48        PAGE 59


LOC    OBJECT CODE    LINE  SOURCE TEXT
  VALUE

1024   2B78           03064         goto    label_097
                      03065 
1025                  03066 function_061:                                               ; address: 0x1025
                      03067 
1025   390F           03068         andlw   0x0f
1026   0782           03069         addwf   PCL, F                                      ; reg: 0x002
1027   295C           03070         goto    label_033
1028   2960           03071         goto    label_034
1029   2963           03072         goto    label_035
102A   2965           03073         goto    label_036
102B   2967           03074         goto    function_016
102C   296A           03075         goto    label_037
102D   296C           03076         goto    label_038
102E   285B           03077         goto    label_012
102F   2956           03078         goto    label_032
1030   2950           03079         goto    function_013
1031   296E           03080         goto    label_039
1032   28C3           03081         goto    label_013
1033   28C3           03082         goto    label_013
1034   28C3           03083         goto    label_013
1035   28C3           03084         goto    label_013
                      03085 
1036                  03086 function_062:                                               ; address: 0x1036
                      03087 
1036   390F           03088         andlw   0x0f
1037   0782           03089         addwf   PCL, F                                      ; reg: 0x002
1038   28C3           03090         goto    label_013
1039   28D2           03091         goto    label_015
103A   28EF           03092         goto    label_020
103B   2941           03093         goto    label_031
103C   2D6E           03094         goto    label_137
103D   2E16           03095         goto    label_150
103E   28E9           03096         goto    label_019
103F   28F9           03097         goto    label_021
1040   290D           03098         goto    label_024
1041   2927           03099         goto    label_025
1042   28D8           03100         goto    label_017
1043   28C3           03101         goto    label_013
1044   28C3           03102         goto    label_013
1045   28C3           03103         goto    label_013
1046   28C3           03104         goto    label_013
1047   28C3           03105         goto    label_013
1048   28C3           03106         goto    label_013
                      03107 
1049                  03108 function_063:                                               ; address: 0x1049
                      03109 
1049   390F           03110         andlw   0x0f
104A   0782           03111         addwf   PCL, F                                      ; reg: 0x002
104B   3430           03112         retlw   0x30
104C   3431           03113         retlw   0x31
104D   3432           03114         retlw   0x32
104E   3433           03115         retlw   0x33
104F   3434           03116         retlw   0x34
gpasm-1.5.0 #1285 (Jan 23 2020) unidds_v1_08.   27.01.2020  22:56:48        PAGE 60


LOC    OBJECT CODE    LINE  SOURCE TEXT
  VALUE

1050   3435           03117         retlw   0x35
1051   3436           03118         retlw   0x36
1052   3437           03119         retlw   0x37
1053   3438           03120         retlw   0x38
1054   3439           03121         retlw   0x39
1055   342B           03122         retlw   0x2b
1056   342B           03123         retlw   0x2b
1057   342B           03124         retlw   0x2b
1058   342B           03125         retlw   0x2b
1059   342B           03126         retlw   0x2b
105A   342B           03127         retlw   0x2b
105B   158A           03128         bsf     PCLATH, 0x3                                 ; reg: 0x00a
105C   160A           03129         bsf     PCLATH, 0x4                                 ; reg: 0x00a
105D   2945           03130         goto    label_279
                      03131 
105E                  03132 label_151:                                                  ; address: 0x105e
                      03133 
105E   295C           03134         goto    label_282
                      03135 
105F                  03136 function_064:                                               ; address: 0x105f
                      03137 
105F   01BE           03138         clrf    0x3e                                        ; reg: 0x03e
1060   118A           03139         bcf     PCLATH, 0x3                                 ; reg: 0x00a
1061   120A           03140         bcf     PCLATH, 0x4                                 ; reg: 0x00a
1062   2184           03141         call    function_017
1063   118A           03142         bcf     PCLATH, 0x3                                 ; reg: 0x00a
1064   160A           03143         bsf     PCLATH, 0x4                                 ; reg: 0x00a
                      03144 
1065                  03145 label_152:                                                  ; address: 0x1065
                      03146 
1065   118A           03147         bcf     PCLATH, 0x3                                 ; reg: 0x00a
1066   120A           03148         bcf     PCLATH, 0x4                                 ; reg: 0x00a
1067   235C           03149         call    function_025
1068   118A           03150         bcf     PCLATH, 0x3                                 ; reg: 0x00a
1069   160A           03151         bsf     PCLATH, 0x4                                 ; reg: 0x00a
106A   1803           03152         btfsc   STATUS, C                                   ; reg: 0x003, bit: 0
106B   2865           03153         goto    label_152
106C   083C           03154         movf    0x3c, W                                     ; reg: 0x03c
106D   2012           03155         call    function_060
                      03156 
106E                  03157 label_153:                                                  ; address: 0x106e
                      03158 
106E   083E           03159         movf    0x3e, W                                     ; reg: 0x03e
106F   1903           03160         btfsc   STATUS, Z                                   ; reg: 0x003, bit: 2
1070   288D           03161         goto    label_156
1071   118A           03162         bcf     PCLATH, 0x3                                 ; reg: 0x00a
1072   120A           03163         bcf     PCLATH, 0x4                                 ; reg: 0x00a
1073   25E6           03164         call    function_051
1074   118A           03165         bcf     PCLATH, 0x3                                 ; reg: 0x00a
1075   160A           03166         bsf     PCLATH, 0x4                                 ; reg: 0x00a
1076   1BBE           03167         btfsc   0x3e, 0x7                                   ; reg: 0x03e
1077   287E           03168         goto    label_154
1078   0ABC           03169         incf    0x3c, F                                     ; reg: 0x03c
gpasm-1.5.0 #1285 (Jan 23 2020) unidds_v1_08.   27.01.2020  22:56:48        PAGE 61


LOC    OBJECT CODE    LINE  SOURCE TEXT
  VALUE

1079   083C           03170         movf    0x3c, W                                     ; reg: 0x03c
107A   3A0B           03171         xorlw   0x0b
107B   1903           03172         btfsc   STATUS, Z                                   ; reg: 0x003, bit: 2
107C   01BC           03173         clrf    0x3c                                        ; reg: 0x03c
107D   2885           03174         goto    label_155
                      03175 
107E                  03176 label_154:                                                  ; address: 0x107e
                      03177 
107E   03BC           03178         decf    0x3c, F                                     ; reg: 0x03c
107F   083C           03179         movf    0x3c, W                                     ; reg: 0x03c
1080   3AFF           03180         xorlw   0xff
1081   1D03           03181         btfss   STATUS, Z                                   ; reg: 0x003, bit: 2
1082   2885           03182         goto    label_155
1083   300A           03183         movlw   0x0a
1084   00BC           03184         movwf   0x3c                                        ; reg: 0x03c
                      03185 
1085                  03186 label_155:                                                  ; address: 0x1085
                      03187 
1085   118A           03188         bcf     PCLATH, 0x3                                 ; reg: 0x00a
1086   120A           03189         bcf     PCLATH, 0x4                                 ; reg: 0x00a
1087   2184           03190         call    function_017
1088   118A           03191         bcf     PCLATH, 0x3                                 ; reg: 0x00a
1089   160A           03192         bsf     PCLATH, 0x4                                 ; reg: 0x00a
108A   083C           03193         movf    0x3c, W                                     ; reg: 0x03c
108B   2012           03194         call    function_060
108C   01BE           03195         clrf    0x3e                                        ; reg: 0x03e
                      03196 
108D                  03197 label_156:                                                  ; address: 0x108d
                      03198 
108D   118A           03199         bcf     PCLATH, 0x3                                 ; reg: 0x00a
108E   120A           03200         bcf     PCLATH, 0x4                                 ; reg: 0x00a
108F   235C           03201         call    function_025
1090   118A           03202         bcf     PCLATH, 0x3                                 ; reg: 0x00a
1091   160A           03203         bsf     PCLATH, 0x4                                 ; reg: 0x00a
1092   1803           03204         btfsc   STATUS, C                                   ; reg: 0x003, bit: 0
1093   28A9           03205         goto    label_158
1094   1B86           03206         btfsc   PORTB, RB7                                  ; reg: 0x006, bit: 7
1095   286E           03207         goto    label_153
1096   118A           03208         bcf     PCLATH, 0x3                                 ; reg: 0x00a
1097   120A           03209         bcf     PCLATH, 0x4                                 ; reg: 0x00a
1098   3009           03210         movlw   0x09
1099   00F4           03211         movwf   (Common_RAM + 4)                            ; reg: 0x074
109A   302A           03212         movlw   0x2a
109B   218E           03213         call    function_019
109C   118A           03214         bcf     PCLATH, 0x3                                 ; reg: 0x00a
109D   160A           03215         bsf     PCLATH, 0x4                                 ; reg: 0x00a
                      03216 
109E                  03217 label_157:                                                  ; address: 0x109e
                      03218 
109E   1F86           03219         btfss   PORTB, RB7                                  ; reg: 0x006, bit: 7
109F   289E           03220         goto    label_157
10A0   118A           03221         bcf     PCLATH, 0x3                                 ; reg: 0x00a
10A1   120A           03222         bcf     PCLATH, 0x4                                 ; reg: 0x00a
gpasm-1.5.0 #1285 (Jan 23 2020) unidds_v1_08.   27.01.2020  22:56:48        PAGE 62


LOC    OBJECT CODE    LINE  SOURCE TEXT
  VALUE

10A2   211F           03223         call    function_008
10A3   118A           03224         bcf     PCLATH, 0x3                                 ; reg: 0x00a
10A4   160A           03225         bsf     PCLATH, 0x4                                 ; reg: 0x00a
10A5   1F86           03226         btfss   PORTB, RB7                                  ; reg: 0x006, bit: 7
10A6   289E           03227         goto    label_157
10A7   2472           03228         call    function_074
10A8   28B2           03229         goto    label_159
                      03230 
10A9                  03231 label_158:                                                  ; address: 0x10a9
                      03232 
10A9   118A           03233         bcf     PCLATH, 0x3                                 ; reg: 0x00a
10AA   120A           03234         bcf     PCLATH, 0x4                                 ; reg: 0x00a
10AB   235C           03235         call    function_025
10AC   118A           03236         bcf     PCLATH, 0x3                                 ; reg: 0x00a
10AD   160A           03237         bsf     PCLATH, 0x4                                 ; reg: 0x00a
10AE   1803           03238         btfsc   STATUS, C                                   ; reg: 0x003, bit: 0
10AF   28A9           03239         goto    label_158
10B0   083C           03240         movf    0x3c, W                                     ; reg: 0x03c
10B1   2036           03241         call    function_062
                      03242 
10B2                  03243 label_159:                                                  ; address: 0x10b2
                      03244 
10B2   1683           03245         bsf     STATUS, RP0                                 ; reg: 0x003, bit: 5
10B3   1303           03246         bcf     STATUS, RP1                                 ; reg: 0x003, bit: 6
10B4   30FF           03247         movlw   0xff
10B5   00D7           03248         movwf   0x57                                        ; reg: 0x0d7
10B6   00D5           03249         movwf   0x55                                        ; reg: 0x0d5
10B7   1283           03250         bcf     STATUS, RP0                                 ; reg: 0x003, bit: 5
10B8   1303           03251         bcf     STATUS, RP1                                 ; reg: 0x003, bit: 6
10B9   0008           03252         return
                      03253 
10BA                  03254 label_160:                                                  ; address: 0x10ba
                      03255 
10BA   0820           03256         movf    0x20, W                                     ; reg: 0x020
10BB   00F9           03257         movwf   (Common_RAM + 9)                            ; reg: 0x079
10BC   3000           03258         movlw   0x00
10BD   00F8           03259         movwf   (Common_RAM + 8)                            ; reg: 0x078
10BE   118A           03260         bcf     PCLATH, 0x3                                 ; reg: 0x00a
10BF   120A           03261         bcf     PCLATH, 0x4                                 ; reg: 0x00a
10C0   25E9           03262         call    function_052
10C1   118A           03263         bcf     PCLATH, 0x3                                 ; reg: 0x00a
10C2   160A           03264         bsf     PCLATH, 0x4                                 ; reg: 0x00a
                      03265 
10C3                  03266 label_161:                                                  ; address: 0x10c3
                      03267 
10C3   118A           03268         bcf     PCLATH, 0x3                                 ; reg: 0x00a
10C4   120A           03269         bcf     PCLATH, 0x4                                 ; reg: 0x00a
10C5   2184           03270         call    function_017
10C6   118A           03271         bcf     PCLATH, 0x3                                 ; reg: 0x00a
10C7   160A           03272         bsf     PCLATH, 0x4                                 ; reg: 0x00a
10C8   1532           03273         bsf     0x32, 0x2                                   ; reg: 0x032
10C9   14B2           03274         bsf     0x32, 0x1                                   ; reg: 0x032
10CA   1683           03275         bsf     STATUS, RP0                                 ; reg: 0x003, bit: 5
gpasm-1.5.0 #1285 (Jan 23 2020) unidds_v1_08.   27.01.2020  22:56:48        PAGE 63


LOC    OBJECT CODE    LINE  SOURCE TEXT
  VALUE

10CB   1303           03276         bcf     STATUS, RP1                                 ; reg: 0x003, bit: 6
10CC   30FF           03277         movlw   0xff
10CD   00D7           03278         movwf   0x57                                        ; reg: 0x0d7
10CE   00D5           03279         movwf   0x55                                        ; reg: 0x0d5
10CF   1283           03280         bcf     STATUS, RP0                                 ; reg: 0x003, bit: 5
10D0   1303           03281         bcf     STATUS, RP1                                 ; reg: 0x003, bit: 6
10D1   0008           03282         return
10D2   1C32           03283         btfss   0x32, 0x0                                   ; reg: 0x032
10D3   28D6           03284         goto    label_162
10D4   1032           03285         bcf     0x32, 0x0                                   ; reg: 0x032
10D5   28D7           03286         goto    label_163
                      03287 
10D6                  03288 label_162:                                                  ; address: 0x10d6
                      03289 
10D6   1432           03290         bsf     0x32, 0x0                                   ; reg: 0x032
                      03291 
10D7                  03292 label_163:                                                  ; address: 0x10d7
                      03293 
10D7   28C3           03294         goto    label_161
10D8   12B2           03295         bcf     0x32, 0x5                                   ; reg: 0x032
10D9   1DA0           03296         btfss   0x20, 0x3                                   ; reg: 0x020
10DA   28E2           03297         goto    label_165
10DB   11A0           03298         bcf     0x20, 0x3                                   ; reg: 0x020
10DC   1832           03299         btfsc   0x32, 0x0                                   ; reg: 0x032
10DD   28E0           03300         goto    label_164
10DE   2104           03301         call    function_066
10DF   28E8           03302         goto    label_167
                      03303 
10E0                  03304 label_164:                                                  ; address: 0x10e0
                      03305 
10E0   20FB           03306         call    function_065
10E1   28E8           03307         goto    label_167
                      03308 
10E2                  03309 label_165:                                                  ; address: 0x10e2
                      03310 
10E2   15A0           03311         bsf     0x20, 0x3                                   ; reg: 0x020
10E3   1C32           03312         btfss   0x32, 0x0                                   ; reg: 0x032
10E4   28E7           03313         goto    label_166
10E5   2104           03314         call    function_066
10E6   28E8           03315         goto    label_167
                      03316 
10E7                  03317 label_166:                                                  ; address: 0x10e7
                      03318 
10E7   20FB           03319         call    function_065
                      03320 
10E8                  03321 label_167:                                                  ; address: 0x10e8
                      03322 
10E8   28C3           03323         goto    label_161
10E9   1CA0           03324         btfss   0x20, 0x1                                   ; reg: 0x020
10EA   28ED           03325         goto    label_168
10EB   10A0           03326         bcf     0x20, 0x1                                   ; reg: 0x020
10EC   28EE           03327         goto    label_169
                      03328 
gpasm-1.5.0 #1285 (Jan 23 2020) unidds_v1_08.   27.01.2020  22:56:48        PAGE 64


LOC    OBJECT CODE    LINE  SOURCE TEXT
  VALUE

10ED                  03329 label_168:                                                  ; address: 0x10ed
                      03330 
10ED   14A0           03331         bsf     0x20, 0x1                                   ; reg: 0x020
                      03332 
10EE                  03333 label_169:                                                  ; address: 0x10ee
                      03334 
10EE   28BA           03335         goto    label_160
10EF   1920           03336         btfsc   0x20, 0x2                                   ; reg: 0x020
10F0   28F5           03337         goto    label_170
10F1   1520           03338         bsf     0x20, 0x2                                   ; reg: 0x020
10F2   1605           03339         bsf     PORTA, RA4                                  ; reg: 0x005, bit: 4
10F3   1020           03340         bcf     0x20, 0x0                                   ; reg: 0x020
10F4   28BA           03341         goto    label_160
                      03342 
10F5                  03343 label_170:                                                  ; address: 0x10f5
                      03344 
10F5   1120           03345         bcf     0x20, 0x2                                   ; reg: 0x020
10F6   1205           03346         bcf     PORTA, RA4                                  ; reg: 0x005, bit: 4
10F7   1420           03347         bsf     0x20, 0x0                                   ; reg: 0x020
10F8   28BA           03348         goto    label_160
10F9   2472           03349         call    function_074
10FA   28C3           03350         goto    label_161
                      03351 
10FB                  03352 function_065:                                               ; address: 0x10fb
                      03353 
10FB   082A           03354         movf    0x2a, W                                     ; reg: 0x02a
10FC   00AE           03355         movwf   0x2e                                        ; reg: 0x02e
10FD   0829           03356         movf    0x29, W                                     ; reg: 0x029
10FE   00AD           03357         movwf   0x2d                                        ; reg: 0x02d
10FF   082B           03358         movf    0x2b, W                                     ; reg: 0x02b
1100   00AF           03359         movwf   0x2f                                        ; reg: 0x02f
1101   082C           03360         movf    0x2c, W                                     ; reg: 0x02c
1102   00B0           03361         movwf   0x30                                        ; reg: 0x030
1103   0008           03362         return
                      03363 
1104                  03364 function_066:                                               ; address: 0x1104
                      03365 
1104   082E           03366         movf    0x2e, W                                     ; reg: 0x02e
1105   00AA           03367         movwf   0x2a                                        ; reg: 0x02a
1106   082D           03368         movf    0x2d, W                                     ; reg: 0x02d
1107   00A9           03369         movwf   0x29                                        ; reg: 0x029
1108   082F           03370         movf    0x2f, W                                     ; reg: 0x02f
1109   00AB           03371         movwf   0x2b                                        ; reg: 0x02b
110A   0830           03372         movf    0x30, W                                     ; reg: 0x030
110B   00AC           03373         movwf   0x2c                                        ; reg: 0x02c
110C   0008           03374         return
110D   1AB2           03375         btfsc   0x32, 0x5                                   ; reg: 0x032
110E   2925           03376         goto    label_173
110F   1C32           03377         btfss   0x32, 0x0                                   ; reg: 0x032
1110   2913           03378         goto    label_171
1111   2104           03379         call    function_066
1112   2914           03380         goto    label_172
                      03381 
gpasm-1.5.0 #1285 (Jan 23 2020) unidds_v1_08.   27.01.2020  22:56:48        PAGE 65


LOC    OBJECT CODE    LINE  SOURCE TEXT
  VALUE

1113                  03382 label_171:                                                  ; address: 0x1113
                      03383 
1113   20FB           03384         call    function_065
                      03385 
1114                  03386 label_172:                                                  ; address: 0x1114
                      03387 
1114   11A0           03388         bcf     0x20, 0x3                                   ; reg: 0x020
1115   16B2           03389         bsf     0x32, 0x5                                   ; reg: 0x032
1116   303F           03390         movlw   0x3f
1117   00B4           03391         movwf   0x34                                        ; reg: 0x034
1118   3029           03392         movlw   0x29
1119   1C32           03393         btfss   0x32, 0x0                                   ; reg: 0x032
111A   302D           03394         movlw   0x2d
111B   00B3           03395         movwf   0x33                                        ; reg: 0x033
111C   118A           03396         bcf     PCLATH, 0x3                                 ; reg: 0x00a
111D   120A           03397         bcf     PCLATH, 0x4                                 ; reg: 0x00a
111E   237B           03398         call    function_027
111F   3010           03399         movlw   0x10
1120   00C0           03400         movwf   0x40                                        ; reg: 0x040
1121   23A1           03401         call    0x03a1
1122   118A           03402         bcf     PCLATH, 0x3                                 ; reg: 0x00a
1123   160A           03403         bsf     PCLATH, 0x4                                 ; reg: 0x00a
1124   2926           03404         goto    label_174
                      03405 
1125                  03406 label_173:                                                  ; address: 0x1125
                      03407 
1125   12B2           03408         bcf     0x32, 0x5                                   ; reg: 0x032
                      03409 
1126                  03410 label_174:                                                  ; address: 0x1126
                      03411 
1126   28C3           03412         goto    label_161
1127   1AB2           03413         btfsc   0x32, 0x5                                   ; reg: 0x032
1128   293F           03414         goto    label_177
1129   1C32           03415         btfss   0x32, 0x0                                   ; reg: 0x032
112A   292D           03416         goto    label_175
112B   2104           03417         call    function_066
112C   292E           03418         goto    label_176
                      03419 
112D                  03420 label_175:                                                  ; address: 0x112d
                      03421 
112D   20FB           03422         call    function_065
                      03423 
112E                  03424 label_176:                                                  ; address: 0x112e
                      03425 
112E   11A0           03426         bcf     0x20, 0x3                                   ; reg: 0x020
112F   16B2           03427         bsf     0x32, 0x5                                   ; reg: 0x032
1130   303F           03428         movlw   0x3f
1131   00B4           03429         movwf   0x34                                        ; reg: 0x034
1132   3029           03430         movlw   0x29
1133   1C32           03431         btfss   0x32, 0x0                                   ; reg: 0x032
1134   302D           03432         movlw   0x2d
1135   00B3           03433         movwf   0x33                                        ; reg: 0x033
1136   118A           03434         bcf     PCLATH, 0x3                                 ; reg: 0x00a
gpasm-1.5.0 #1285 (Jan 23 2020) unidds_v1_08.   27.01.2020  22:56:48        PAGE 66


LOC    OBJECT CODE    LINE  SOURCE TEXT
  VALUE

1137   120A           03435         bcf     PCLATH, 0x4                                 ; reg: 0x00a
1138   237B           03436         call    function_027
1139   3020           03437         movlw   0x20
113A   00C0           03438         movwf   0x40                                        ; reg: 0x040
113B   23A1           03439         call    0x03a1
113C   118A           03440         bcf     PCLATH, 0x3                                 ; reg: 0x00a
113D   160A           03441         bsf     PCLATH, 0x4                                 ; reg: 0x00a
113E   2940           03442         goto    label_178
                      03443 
113F                  03444 label_177:                                                  ; address: 0x113f
                      03445 
113F   12B2           03446         bcf     0x32, 0x5                                   ; reg: 0x032
                      03447 
1140                  03448 label_178:                                                  ; address: 0x1140
                      03449 
1140   28C3           03450         goto    label_161
1141   1C20           03451         btfss   0x20, 0x0                                   ; reg: 0x020
1142   2947           03452         goto    label_179
1143   1020           03453         bcf     0x20, 0x0                                   ; reg: 0x020
1144   1205           03454         bcf     PORTA, RA4                                  ; reg: 0x005, bit: 4
1145   1120           03455         bcf     0x20, 0x2                                   ; reg: 0x020
1146   294F           03456         goto    label_180
                      03457 
1147                  03458 label_179:                                                  ; address: 0x1147
                      03459 
1147   118A           03460         bcf     PCLATH, 0x3                                 ; reg: 0x00a
1148   120A           03461         bcf     PCLATH, 0x4                                 ; reg: 0x00a
1149   25E6           03462         call    function_051
114A   118A           03463         bcf     PCLATH, 0x3                                 ; reg: 0x00a
114B   160A           03464         bsf     PCLATH, 0x4                                 ; reg: 0x00a
114C   1420           03465         bsf     0x20, 0x0                                   ; reg: 0x020
114D   1120           03466         bcf     0x20, 0x2                                   ; reg: 0x020
114E   1605           03467         bsf     PORTA, RA4                                  ; reg: 0x005, bit: 4
                      03468 
114F                  03469 label_180:                                                  ; address: 0x114f
                      03470 
114F   28BA           03471         goto    label_160
1150   1EA0           03472         btfss   0x20, 0x5                                   ; reg: 0x020
1151   2954           03473         goto    label_181
1152   12A0           03474         bcf     0x20, 0x5                                   ; reg: 0x020
1153   28BA           03475         goto    label_160
                      03476 
1154                  03477 label_181:                                                  ; address: 0x1154
                      03478 
1154   16A0           03479         bsf     0x20, 0x5                                   ; reg: 0x020
1155   28BA           03480         goto    label_160
1156   1E20           03481         btfss   0x20, 0x4                                   ; reg: 0x020
1157   295A           03482         goto    label_182
1158   1220           03483         bcf     0x20, 0x4                                   ; reg: 0x020
1159   28BA           03484         goto    label_160
                      03485 
115A                  03486 label_182:                                                  ; address: 0x115a
                      03487 
gpasm-1.5.0 #1285 (Jan 23 2020) unidds_v1_08.   27.01.2020  22:56:48        PAGE 67


LOC    OBJECT CODE    LINE  SOURCE TEXT
  VALUE

115A   1620           03488         bsf     0x20, 0x4                                   ; reg: 0x020
115B   28BA           03489         goto    label_160
115C   118A           03490         bcf     PCLATH, 0x3                                 ; reg: 0x00a
115D   120A           03491         bcf     PCLATH, 0x4                                 ; reg: 0x00a
115E   2184           03492         call    function_017
115F   2800           03493         goto    0x0000
1160   3001           03494         movlw   0x01
1161   1632           03495         bsf     0x32, 0x4                                   ; reg: 0x032
1162   2980           03496         goto    0x0180
1163   3009           03497         movlw   0x09
1164   2982           03498         goto    0x0182
1165   300D           03499         movlw   0x0d
1166   2982           03500         goto    0x0182
1167   3005           03501         movlw   0x05
1168   15B2           03502         bsf     0x32, 0x3                                   ; reg: 0x032
1169   2985           03503         goto    0x0185
116A   3011           03504         movlw   0x11
116B   2982           03505         goto    0x0182
116C   3015           03506         movlw   0x15
116D   2982           03507         goto    0x0182
                      03508 
116E                  03509 label_183:                                                  ; address: 0x116e
                      03510 
116E   118A           03511         bcf     PCLATH, 0x3                                 ; reg: 0x00a
116F   120A           03512         bcf     PCLATH, 0x4                                 ; reg: 0x00a
1170   2184           03513         call    function_017
1171   300A           03514         movlw   0x0a
1172   00F4           03515         movwf   (Common_RAM + 4)                            ; reg: 0x074
1173   30DA           03516         movlw   0xda
1174   218E           03517         call    0x018e
1175   2117           03518         call    0x0117
1176   118A           03519         bcf     PCLATH, 0x3                                 ; reg: 0x00a
1177   160A           03520         bsf     PCLATH, 0x4                                 ; reg: 0x00a
1178   300F           03521         movlw   0x0f
1179   00C7           03522         movwf   0x47                                        ; reg: 0x047
117A   2188           03523         call    function_068
117B   158A           03524         bsf     PCLATH, 0x3                                 ; reg: 0x00a
117C   160A           03525         bsf     PCLATH, 0x4                                 ; reg: 0x00a
117D   20BA           03526         call    function_081
117E   118A           03527         bcf     PCLATH, 0x3                                 ; reg: 0x00a
117F   160A           03528         bsf     PCLATH, 0x4                                 ; reg: 0x00a
1180   01C7           03529         clrf    0x47                                        ; reg: 0x047
1181   2988           03530         goto    function_068
1182   01C7           03531         clrf    0x47                                        ; reg: 0x047
1183   1447           03532         bsf     0x47, 0x0                                   ; reg: 0x047
                      03533 
1184                  03534 function_067:                                               ; address: 0x1184
                      03535 
1184   2988           03536         goto    function_068
1185   01C7           03537         clrf    0x47                                        ; reg: 0x047
1186   1447           03538         bsf     0x47, 0x0                                   ; reg: 0x047
1187   14C7           03539         bsf     0x47, 0x1                                   ; reg: 0x047
                      03540 
gpasm-1.5.0 #1285 (Jan 23 2020) unidds_v1_08.   27.01.2020  22:56:48        PAGE 68


LOC    OBJECT CODE    LINE  SOURCE TEXT
  VALUE

1188                  03541 function_068:                                               ; address: 0x1188
                      03542 
1188   00C6           03543         movwf   0x46                                        ; reg: 0x046
1189   00F8           03544         movwf   (Common_RAM + 8)                            ; reg: 0x078
118A   01BF           03545         clrf    0x3f                                        ; reg: 0x03f
118B   01C0           03546         clrf    0x40                                        ; reg: 0x040
118C   01C1           03547         clrf    0x41                                        ; reg: 0x041
118D   01C2           03548         clrf    0x42                                        ; reg: 0x042
118E   01C3           03549         clrf    0x43                                        ; reg: 0x043
118F   1947           03550         btfsc   0x47, 0x2                                   ; reg: 0x047
1190   299A           03551         goto    label_184
1191   3004           03552         movlw   0x04
1192   00B8           03553         movwf   0x38                                        ; reg: 0x038
1193   3040           03554         movlw   0x40
1194   0084           03555         movwf   FSR                                         ; reg: 0x004
1195   118A           03556         bcf     PCLATH, 0x3                                 ; reg: 0x00a
1196   120A           03557         bcf     PCLATH, 0x4                                 ; reg: 0x00a
1197   2634           03558         call    function_055
1198   118A           03559         bcf     PCLATH, 0x3                                 ; reg: 0x00a
1199   160A           03560         bsf     PCLATH, 0x4                                 ; reg: 0x00a
                      03561 
119A                  03562 label_184:                                                  ; address: 0x119a
                      03563 
119A   18C7           03564         btfsc   0x47, 0x1                                   ; reg: 0x047
119B   2656           03565         call    function_076
119C   01C4           03566         clrf    0x44                                        ; reg: 0x044
119D   19C7           03567         btfsc   0x47, 0x3                                   ; reg: 0x047
119E   14C4           03568         bsf     0x44, 0x1                                   ; reg: 0x044
119F   2206           03569         call    function_069
11A0   01BE           03570         clrf    0x3e                                        ; reg: 0x03e
                      03571 
11A1                  03572 label_185:                                                  ; address: 0x11a1
                      03573 
11A1   1A86           03574         btfsc   PORTB, RB5                                  ; reg: 0x006, bit: 5
11A2   29CE           03575         goto    label_190
                      03576 
11A3                  03577 label_186:                                                  ; address: 0x11a3
                      03578 
11A3   118A           03579         bcf     PCLATH, 0x3                                 ; reg: 0x00a
11A4   120A           03580         bcf     PCLATH, 0x4                                 ; reg: 0x00a
11A5   235C           03581         call    function_025
11A6   118A           03582         bcf     PCLATH, 0x3                                 ; reg: 0x00a
11A7   160A           03583         bsf     PCLATH, 0x4                                 ; reg: 0x00a
11A8   1803           03584         btfsc   STATUS, C                                   ; reg: 0x003, bit: 0
11A9   29A3           03585         goto    label_186
11AA   083F           03586         movf    0x3f, W                                     ; reg: 0x03f
11AB   1903           03587         btfsc   STATUS, Z                                   ; reg: 0x003, bit: 2
11AC   29C8           03588         goto    label_189
11AD   083F           03589         movf    0x3f, W                                     ; reg: 0x03f
11AE   3A01           03590         xorlw   0x01
11AF   1D03           03591         btfss   STATUS, Z                                   ; reg: 0x003, bit: 2
11B0   29C1           03592         goto    label_188
11B1   18C7           03593         btfsc   0x47, 0x1                                   ; reg: 0x047
gpasm-1.5.0 #1285 (Jan 23 2020) unidds_v1_08.   27.01.2020  22:56:48        PAGE 69


LOC    OBJECT CODE    LINE  SOURCE TEXT
  VALUE

11B2   2689           03594         call    function_077
11B3   1947           03595         btfsc   0x47, 0x2                                   ; reg: 0x047
11B4   29C0           03596         goto    label_187
11B5   3004           03597         movlw   0x04
11B6   00B8           03598         movwf   0x38                                        ; reg: 0x038
11B7   3040           03599         movlw   0x40
11B8   0084           03600         movwf   FSR                                         ; reg: 0x004
11B9   0846           03601         movf    0x46, W                                     ; reg: 0x046
11BA   00F8           03602         movwf   (Common_RAM + 8)                            ; reg: 0x078
11BB   118A           03603         bcf     PCLATH, 0x3                                 ; reg: 0x00a
11BC   120A           03604         bcf     PCLATH, 0x4                                 ; reg: 0x00a
11BD   263B           03605         call    function_056
11BE   118A           03606         bcf     PCLATH, 0x3                                 ; reg: 0x00a
11BF   160A           03607         bsf     PCLATH, 0x4                                 ; reg: 0x00a
                      03608 
11C0                  03609 label_187:                                                  ; address: 0x11c0
                      03610 
11C0   2A05           03611         goto    label_196
                      03612 
11C1                  03613 label_188:                                                  ; address: 0x11c1
                      03614 
11C1   083F           03615         movf    0x3f, W                                     ; reg: 0x03f
11C2   3A02           03616         xorlw   0x02
11C3   1D03           03617         btfss   STATUS, Z                                   ; reg: 0x003, bit: 2
11C4   29C8           03618         goto    label_189
11C5   18C7           03619         btfsc   0x47, 0x1                                   ; reg: 0x047
11C6   2689           03620         call    function_077
11C7   2A05           03621         goto    label_196
                      03622 
11C8                  03623 label_189:                                                  ; address: 0x11c8
                      03624 
11C8   0AC4           03625         incf    0x44, F                                     ; reg: 0x044
11C9   0844           03626         movf    0x44, W                                     ; reg: 0x044
11CA   3A05           03627         xorlw   0x05
11CB   1903           03628         btfsc   STATUS, Z                                   ; reg: 0x003, bit: 2
11CC   01C4           03629         clrf    0x44                                        ; reg: 0x044
11CD   2206           03630         call    function_069
                      03631 
11CE                  03632 label_190:                                                  ; address: 0x11ce
                      03633 
11CE   08BE           03634         movf    0x3e, F                                     ; reg: 0x03e
11CF   1903           03635         btfsc   STATUS, Z                                   ; reg: 0x003, bit: 2
11D0   29A1           03636         goto    label_185
11D1   3043           03637         movlw   0x43
11D2   0084           03638         movwf   FSR                                         ; reg: 0x004
11D3   0844           03639         movf    0x44, W                                     ; reg: 0x044
11D4   0284           03640         subwf   FSR, F                                      ; reg: 0x004
11D5   1BBE           03641         btfsc   0x3e, 0x7                                   ; reg: 0x03e
11D6   29E9           03642         goto    label_192
11D7   3001           03643         movlw   0x01
11D8   0780           03644         addwf   INDF, F                                     ; reg: 0x000
11D9   1C47           03645         btfss   0x47, 0x0                                   ; reg: 0x047
11DA   29E9           03646         goto    label_192
gpasm-1.5.0 #1285 (Jan 23 2020) unidds_v1_08.   27.01.2020  22:56:48        PAGE 70


LOC    OBJECT CODE    LINE  SOURCE TEXT
  VALUE

11DB   0800           03647         movf    INDF, W                                     ; reg: 0x000
11DC   00CF           03648         movwf   0x4f                                        ; reg: 0x04f
11DD   3006           03649         movlw   0x06
11DE   074F           03650         addwf   0x4f, W                                     ; reg: 0x04f
11DF   1C83           03651         btfss   STATUS, DC                                  ; reg: 0x003, bit: 1
11E0   29E2           03652         goto    label_191
11E1   0080           03653         movwf   INDF                                        ; reg: 0x000
                      03654 
11E2                  03655 label_191:                                                  ; address: 0x11e2
                      03656 
11E2   0800           03657         movf    INDF, W                                     ; reg: 0x000
11E3   00CF           03658         movwf   0x4f                                        ; reg: 0x04f
11E4   3060           03659         movlw   0x60
11E5   074F           03660         addwf   0x4f, W                                     ; reg: 0x04f
11E6   1C03           03661         btfss   STATUS, C                                   ; reg: 0x003, bit: 0
11E7   29E9           03662         goto    label_192
11E8   0080           03663         movwf   INDF                                        ; reg: 0x000
                      03664 
11E9                  03665 label_192:                                                  ; address: 0x11e9
                      03666 
11E9   1FBE           03667         btfss   0x3e, 0x7                                   ; reg: 0x03e
11EA   29F8           03668         goto    label_194
11EB   3001           03669         movlw   0x01
11EC   0280           03670         subwf   INDF, F                                     ; reg: 0x000
11ED   1C47           03671         btfss   0x47, 0x0                                   ; reg: 0x047
11EE   29F8           03672         goto    label_194
11EF   0DC8           03673         rlf     0x48, F                                     ; reg: 0x048
11F0   1883           03674         btfsc   STATUS, DC                                  ; reg: 0x003, bit: 1
11F1   29F4           03675         goto    label_193
11F2   3006           03676         movlw   0x06
11F3   0280           03677         subwf   INDF, F                                     ; reg: 0x000
                      03678 
11F4                  03679 label_193:                                                  ; address: 0x11f4
                      03680 
11F4   1848           03681         btfsc   0x48, 0x0                                   ; reg: 0x048
11F5   29F8           03682         goto    label_194
11F6   3060           03683         movlw   0x60
11F7   0280           03684         subwf   INDF, F                                     ; reg: 0x000
                      03685 
11F8                  03686 label_194:                                                  ; address: 0x11f8
                      03687 
11F8   083F           03688         movf    0x3f, W                                     ; reg: 0x03f
11F9   3A03           03689         xorlw   0x03
11FA   1903           03690         btfsc   STATUS, Z                                   ; reg: 0x003, bit: 2
11FB   01BF           03691         clrf    0x3f                                        ; reg: 0x03f
11FC   083F           03692         movf    0x3f, W                                     ; reg: 0x03f
11FD   3AFF           03693         xorlw   0xff
11FE   1D03           03694         btfss   STATUS, Z                                   ; reg: 0x003, bit: 2
11FF   2A02           03695         goto    label_195
1200   3002           03696         movlw   0x02
1201   00BF           03697         movwf   0x3f                                        ; reg: 0x03f
                      03698 
1202                  03699 label_195:                                                  ; address: 0x1202
gpasm-1.5.0 #1285 (Jan 23 2020) unidds_v1_08.   27.01.2020  22:56:48        PAGE 71


LOC    OBJECT CODE    LINE  SOURCE TEXT
  VALUE

                      03700 
1202   2206           03701         call    function_069
1203   01BE           03702         clrf    0x3e                                        ; reg: 0x03e
1204   29A1           03703         goto    label_185
                      03704 
1205                  03705 label_196:                                                  ; address: 0x1205
                      03706 
1205   0008           03707         return
                      03708 
1206                  03709 function_069:                                               ; address: 0x1206
                      03710 
1206   0840           03711         movf    0x40, W                                     ; reg: 0x040
1207   00FB           03712         movwf   (Common_RAM + 11)                           ; reg: 0x07b
1208   083F           03713         movf    0x3f, W                                     ; reg: 0x03f
1209   00FA           03714         movwf   (Common_RAM + 10)                           ; reg: 0x07a
120A   0841           03715         movf    0x41, W                                     ; reg: 0x041
120B   00FC           03716         movwf   (Common_RAM + 12)                           ; reg: 0x07c
120C   0842           03717         movf    0x42, W                                     ; reg: 0x042
120D   00FD           03718         movwf   (Common_RAM + 13)                           ; reg: 0x07d
                      03719 
120E                  03720 label_197:                                                  ; address: 0x120e
                      03721 
120E   1683           03722         bsf     STATUS, RP0                                 ; reg: 0x003, bit: 5
120F   1303           03723         bcf     STATUS, RP1                                 ; reg: 0x003, bit: 6
1210   087B           03724         movf    0x7b, W                                     ; reg: 0x0fb
1211   00B4           03725         movwf   0x34                                        ; reg: 0x0b4
1212   087A           03726         movf    0x7a, W                                     ; reg: 0x0fa
1213   00B3           03727         movwf   0x33                                        ; reg: 0x0b3
1214   087C           03728         movf    0x7c, W                                     ; reg: 0x0fc
1215   00B5           03729         movwf   0x35                                        ; reg: 0x0b5
1216   087D           03730         movf    0x7d, W                                     ; reg: 0x0fd
1217   00B6           03731         movwf   0x36                                        ; reg: 0x0b6
1218   1283           03732         bcf     STATUS, RP0                                 ; reg: 0x003, bit: 5
1219   1303           03733         bcf     STATUS, RP1                                 ; reg: 0x003, bit: 6
121A   0844           03734         movf    0x44, W                                     ; reg: 0x044
121B   00FB           03735         movwf   (Common_RAM + 11)                           ; reg: 0x07b
121C   0843           03736         movf    0x43, W                                     ; reg: 0x043
121D   00FA           03737         movwf   (Common_RAM + 10)                           ; reg: 0x07a
121E   0845           03738         movf    0x45, W                                     ; reg: 0x045
121F   00FC           03739         movwf   (Common_RAM + 12)                           ; reg: 0x07c
1220   0846           03740         movf    0x46, W                                     ; reg: 0x046
1221   00FD           03741         movwf   (Common_RAM + 13)                           ; reg: 0x07d
1222   1683           03742         bsf     STATUS, RP0                                 ; reg: 0x003, bit: 5
1223   1303           03743         bcf     STATUS, RP1                                 ; reg: 0x003, bit: 6
1224   087B           03744         movf    0x7b, W                                     ; reg: 0x0fb
1225   00B8           03745         movwf   0x38                                        ; reg: 0x0b8
1226   087A           03746         movf    0x7a, W                                     ; reg: 0x0fa
1227   00B7           03747         movwf   0x37                                        ; reg: 0x0b7
1228   087C           03748         movf    0x7c, W                                     ; reg: 0x0fc
1229   00B9           03749         movwf   0x39                                        ; reg: 0x0b9
122A   087D           03750         movf    0x7d, W                                     ; reg: 0x0fd
122B   00BA           03751         movwf   0x3a                                        ; reg: 0x0ba
122C   1283           03752         bcf     STATUS, RP0                                 ; reg: 0x003, bit: 5
gpasm-1.5.0 #1285 (Jan 23 2020) unidds_v1_08.   27.01.2020  22:56:48        PAGE 72


LOC    OBJECT CODE    LINE  SOURCE TEXT
  VALUE

122D   1303           03753         bcf     STATUS, RP1                                 ; reg: 0x003, bit: 6
122E   0848           03754         movf    0x48, W                                     ; reg: 0x048
122F   00FB           03755         movwf   (Common_RAM + 11)                           ; reg: 0x07b
1230   0847           03756         movf    0x47, W                                     ; reg: 0x047
1231   00FA           03757         movwf   (Common_RAM + 10)                           ; reg: 0x07a
1232   0849           03758         movf    0x49, W                                     ; reg: 0x049
1233   00FC           03759         movwf   (Common_RAM + 12)                           ; reg: 0x07c
1234   084A           03760         movf    0x4a, W                                     ; reg: 0x04a
1235   00FD           03761         movwf   (Common_RAM + 13)                           ; reg: 0x07d
1236   1683           03762         bsf     STATUS, RP0                                 ; reg: 0x003, bit: 5
1237   1303           03763         bcf     STATUS, RP1                                 ; reg: 0x003, bit: 6
1238   087B           03764         movf    0x7b, W                                     ; reg: 0x0fb
1239   00BC           03765         movwf   0x3c                                        ; reg: 0x0bc
123A   087A           03766         movf    0x7a, W                                     ; reg: 0x0fa
123B   00BB           03767         movwf   0x3b                                        ; reg: 0x0bb
123C   087C           03768         movf    0x7c, W                                     ; reg: 0x0fc
123D   00BD           03769         movwf   0x3d                                        ; reg: 0x0bd
123E   087D           03770         movf    0x7d, W                                     ; reg: 0x0fd
123F   00BE           03771         movwf   0x3e                                        ; reg: 0x0be
1240   1283           03772         bcf     STATUS, RP0                                 ; reg: 0x003, bit: 5
1241   1303           03773         bcf     STATUS, RP1                                 ; reg: 0x003, bit: 6
1242   1E32           03774         btfss   0x32, 0x4                                   ; reg: 0x032
1243   2A55           03775         goto    label_198
1244   0841           03776         movf    0x41, W                                     ; reg: 0x041
1245   00A2           03777         movwf   0x22                                        ; reg: 0x022
1246   0840           03778         movf    0x40, W                                     ; reg: 0x040
1247   00A1           03779         movwf   0x21                                        ; reg: 0x021
1248   0842           03780         movf    0x42, W                                     ; reg: 0x042
1249   00A3           03781         movwf   0x23                                        ; reg: 0x023
124A   0843           03782         movf    0x43, W                                     ; reg: 0x043
124B   00A4           03783         movwf   0x24                                        ; reg: 0x024
124C   3006           03784         movlw   0x06
124D   00AC           03785         movwf   0x2c                                        ; reg: 0x02c
124E   3007           03786         movlw   0x07
124F   00AB           03787         movwf   0x2b                                        ; reg: 0x02b
1250   3050           03788         movlw   0x50
1251   00AA           03789         movwf   0x2a                                        ; reg: 0x02a
1252   3000           03790         movlw   0x00
1253   00A9           03791         movwf   0x29                                        ; reg: 0x029
1254   2A5F           03792         goto    label_199
                      03793 
1255                  03794 label_198:                                                  ; address: 0x1255
                      03795 
1255   1DB2           03796         btfss   0x32, 0x3                                   ; reg: 0x032
1256   2A67           03797         goto    label_200
1257   0841           03798         movf    0x41, W                                     ; reg: 0x041
1258   00AA           03799         movwf   0x2a                                        ; reg: 0x02a
1259   0840           03800         movf    0x40, W                                     ; reg: 0x040
125A   00A9           03801         movwf   0x29                                        ; reg: 0x029
125B   0842           03802         movf    0x42, W                                     ; reg: 0x042
125C   00AB           03803         movwf   0x2b                                        ; reg: 0x02b
125D   0843           03804         movf    0x43, W                                     ; reg: 0x043
125E   00AC           03805         movwf   0x2c                                        ; reg: 0x02c
gpasm-1.5.0 #1285 (Jan 23 2020) unidds_v1_08.   27.01.2020  22:56:48        PAGE 73


LOC    OBJECT CODE    LINE  SOURCE TEXT
  VALUE

                      03806 
125F                  03807 label_199:                                                  ; address: 0x125f
                      03808 
125F   16A0           03809         bsf     0x20, 0x5                                   ; reg: 0x020
1260   1032           03810         bcf     0x32, 0x0                                   ; reg: 0x032
1261   118A           03811         bcf     PCLATH, 0x3                                 ; reg: 0x00a
1262   120A           03812         bcf     PCLATH, 0x4                                 ; reg: 0x00a
1263   24B3           03813         call    function_038
1264   24EE           03814         call    0x04ee
1265   118A           03815         bcf     PCLATH, 0x3                                 ; reg: 0x00a
1266   160A           03816         bsf     PCLATH, 0x4                                 ; reg: 0x00a
                      03817 
1267                  03818 label_200:                                                  ; address: 0x1267
                      03819 
1267   1683           03820         bsf     STATUS, RP0                                 ; reg: 0x003, bit: 5
1268   1303           03821         bcf     STATUS, RP1                                 ; reg: 0x003, bit: 6
1269   0834           03822         movf    0x34, W                                     ; reg: 0x0b4
126A   00FB           03823         movwf   0x7b                                        ; reg: 0x0fb
126B   0833           03824         movf    0x33, W                                     ; reg: 0x0b3
126C   00FA           03825         movwf   0x7a                                        ; reg: 0x0fa
126D   0835           03826         movf    0x35, W                                     ; reg: 0x0b5
126E   00FC           03827         movwf   0x7c                                        ; reg: 0x0fc
126F   0836           03828         movf    0x36, W                                     ; reg: 0x0b6
1270   00FD           03829         movwf   0x7d                                        ; reg: 0x0fd
1271   1283           03830         bcf     STATUS, RP0                                 ; reg: 0x003, bit: 5
1272   1303           03831         bcf     STATUS, RP1                                 ; reg: 0x003, bit: 6
1273   087B           03832         movf    (Common_RAM + 11), W                        ; reg: 0x07b
1274   00C0           03833         movwf   0x40                                        ; reg: 0x040
1275   087A           03834         movf    (Common_RAM + 10), W                        ; reg: 0x07a
1276   00BF           03835         movwf   0x3f                                        ; reg: 0x03f
1277   087C           03836         movf    (Common_RAM + 12), W                        ; reg: 0x07c
1278   00C1           03837         movwf   0x41                                        ; reg: 0x041
1279   087D           03838         movf    (Common_RAM + 13), W                        ; reg: 0x07d
127A   00C2           03839         movwf   0x42                                        ; reg: 0x042
127B   1683           03840         bsf     STATUS, RP0                                 ; reg: 0x003, bit: 5
127C   1303           03841         bcf     STATUS, RP1                                 ; reg: 0x003, bit: 6
127D   0838           03842         movf    0x38, W                                     ; reg: 0x0b8
127E   00FB           03843         movwf   0x7b                                        ; reg: 0x0fb
127F   0837           03844         movf    0x37, W                                     ; reg: 0x0b7
1280   00FA           03845         movwf   0x7a                                        ; reg: 0x0fa
1281   0839           03846         movf    0x39, W                                     ; reg: 0x0b9
1282   00FC           03847         movwf   0x7c                                        ; reg: 0x0fc
1283   083A           03848         movf    0x3a, W                                     ; reg: 0x0ba
1284   00FD           03849         movwf   0x7d                                        ; reg: 0x0fd
1285   1283           03850         bcf     STATUS, RP0                                 ; reg: 0x003, bit: 5
1286   1303           03851         bcf     STATUS, RP1                                 ; reg: 0x003, bit: 6
1287   087B           03852         movf    (Common_RAM + 11), W                        ; reg: 0x07b
1288   00C4           03853         movwf   0x44                                        ; reg: 0x044
1289   087A           03854         movf    (Common_RAM + 10), W                        ; reg: 0x07a
128A   00C3           03855         movwf   0x43                                        ; reg: 0x043
128B   087C           03856         movf    (Common_RAM + 12), W                        ; reg: 0x07c
128C   00C5           03857         movwf   0x45                                        ; reg: 0x045
128D   087D           03858         movf    (Common_RAM + 13), W                        ; reg: 0x07d
gpasm-1.5.0 #1285 (Jan 23 2020) unidds_v1_08.   27.01.2020  22:56:48        PAGE 74


LOC    OBJECT CODE    LINE  SOURCE TEXT
  VALUE

128E   00C6           03859         movwf   0x46                                        ; reg: 0x046
128F   1683           03860         bsf     STATUS, RP0                                 ; reg: 0x003, bit: 5
1290   1303           03861         bcf     STATUS, RP1                                 ; reg: 0x003, bit: 6
1291   083C           03862         movf    0x3c, W                                     ; reg: 0x0bc
1292   00FB           03863         movwf   0x7b                                        ; reg: 0x0fb
1293   083B           03864         movf    0x3b, W                                     ; reg: 0x0bb
1294   00FA           03865         movwf   0x7a                                        ; reg: 0x0fa
1295   083D           03866         movf    0x3d, W                                     ; reg: 0x0bd
1296   00FC           03867         movwf   0x7c                                        ; reg: 0x0fc
1297   083E           03868         movf    0x3e, W                                     ; reg: 0x0be
1298   00FD           03869         movwf   0x7d                                        ; reg: 0x0fd
1299   1283           03870         bcf     STATUS, RP0                                 ; reg: 0x003, bit: 5
129A   1303           03871         bcf     STATUS, RP1                                 ; reg: 0x003, bit: 6
129B   087B           03872         movf    (Common_RAM + 11), W                        ; reg: 0x07b
129C   00C8           03873         movwf   0x48                                        ; reg: 0x048
129D   087A           03874         movf    (Common_RAM + 10), W                        ; reg: 0x07a
129E   00C7           03875         movwf   0x47                                        ; reg: 0x047
129F   087C           03876         movf    (Common_RAM + 12), W                        ; reg: 0x07c
12A0   00C9           03877         movwf   0x49                                        ; reg: 0x049
12A1   087D           03878         movf    (Common_RAM + 13), W                        ; reg: 0x07d
12A2   00CA           03879         movwf   0x4a                                        ; reg: 0x04a
12A3   3043           03880         movlw   0x43
12A4   0084           03881         movwf   FSR                                         ; reg: 0x004
12A5   3004           03882         movlw   0x04
12A6   00B8           03883         movwf   0x38                                        ; reg: 0x038
12A7   118A           03884         bcf     PCLATH, 0x3                                 ; reg: 0x00a
12A8   120A           03885         bcf     PCLATH, 0x4                                 ; reg: 0x00a
12A9   2184           03886         call    function_017
12AA   300F           03887         movlw   0x0f
12AB   215A           03888         call    0x015a
12AC   118A           03889         bcf     PCLATH, 0x3                                 ; reg: 0x00a
12AD   160A           03890         bsf     PCLATH, 0x4                                 ; reg: 0x00a
                      03891 
12AE                  03892 label_201:                                                  ; address: 0x12ae
                      03893 
12AE   0800           03894         movf    INDF, W                                     ; reg: 0x000
12AF   118A           03895         bcf     PCLATH, 0x3                                 ; reg: 0x00a
12B0   120A           03896         bcf     PCLATH, 0x4                                 ; reg: 0x00a
12B1   21C3           03897         call    function_021
12B2   118A           03898         bcf     PCLATH, 0x3                                 ; reg: 0x00a
12B3   160A           03899         bsf     PCLATH, 0x4                                 ; reg: 0x00a
12B4   0384           03900         decf    FSR, F                                      ; reg: 0x004
12B5   0BB8           03901         decfsz  0x38, F                                     ; reg: 0x038
12B6   2AAE           03902         goto    label_201
12B7   083F           03903         movf    0x3f, W                                     ; reg: 0x03f
12B8   1903           03904         btfsc   STATUS, Z                                   ; reg: 0x003, bit: 2
12B9   2AD1           03905         goto    label_203
12BA   3A01           03906         xorlw   0x01
12BB   1D03           03907         btfss   STATUS, Z                                   ; reg: 0x003, bit: 2
12BC   2AC5           03908         goto    label_202
12BD   118A           03909         bcf     PCLATH, 0x3                                 ; reg: 0x00a
12BE   120A           03910         bcf     PCLATH, 0x4                                 ; reg: 0x00a
12BF   3008           03911         movlw   0x08
gpasm-1.5.0 #1285 (Jan 23 2020) unidds_v1_08.   27.01.2020  22:56:48        PAGE 75


LOC    OBJECT CODE    LINE  SOURCE TEXT
  VALUE

12C0   00F4           03912         movwf   (Common_RAM + 4)                            ; reg: 0x074
12C1   30AC           03913         movlw   0xac
12C2   218E           03914         call    function_019
12C3   118A           03915         bcf     PCLATH, 0x3                                 ; reg: 0x00a
12C4   160A           03916         bsf     PCLATH, 0x4                                 ; reg: 0x00a
                      03917 
12C5                  03918 label_202:                                                  ; address: 0x12c5
                      03919 
12C5   083F           03920         movf    0x3f, W                                     ; reg: 0x03f
12C6   3A02           03921         xorlw   0x02
12C7   1D03           03922         btfss   STATUS, Z                                   ; reg: 0x003, bit: 2
12C8   2AD1           03923         goto    label_203
12C9   118A           03924         bcf     PCLATH, 0x3                                 ; reg: 0x00a
12CA   120A           03925         bcf     PCLATH, 0x4                                 ; reg: 0x00a
12CB   3008           03926         movlw   0x08
12CC   00F4           03927         movwf   (Common_RAM + 4)                            ; reg: 0x074
12CD   30B5           03928         movlw   0xb5
12CE   218E           03929         call    function_019
12CF   118A           03930         bcf     PCLATH, 0x3                                 ; reg: 0x00a
12D0   160A           03931         bsf     PCLATH, 0x4                                 ; reg: 0x00a
                      03932 
12D1                  03933 label_203:                                                  ; address: 0x12d1
                      03934 
12D1   0844           03935         movf    0x44, W                                     ; reg: 0x044
12D2   00C5           03936         movwf   0x45                                        ; reg: 0x045
12D3   1003           03937         bcf     STATUS, C                                   ; reg: 0x003, bit: 0
12D4   0DC5           03938         rlf     0x45, F                                     ; reg: 0x045
12D5   0A45           03939         incf    0x45, W                                     ; reg: 0x045
12D6   3840           03940         iorlw   0x40
12D7   118A           03941         bcf     PCLATH, 0x3                                 ; reg: 0x00a
12D8   120A           03942         bcf     PCLATH, 0x4                                 ; reg: 0x00a
12D9   218C           03943         call    function_018
12DA   118A           03944         bcf     PCLATH, 0x3                                 ; reg: 0x00a
12DB   160A           03945         bsf     PCLATH, 0x4                                 ; reg: 0x00a
12DC   0008           03946         return
12DD   118A           03947         bcf     PCLATH, 0x3                                 ; reg: 0x00a
12DE   120A           03948         bcf     PCLATH, 0x4                                 ; reg: 0x00a
12DF   300A           03949         movlw   0x0a
12E0   00F4           03950         movwf   (Common_RAM + 4)                            ; reg: 0x074
12E1   3026           03951         movlw   0x26
12E2   218E           03952         call    function_019
12E3   118A           03953         bcf     PCLATH, 0x3                                 ; reg: 0x00a
12E4   160A           03954         bsf     PCLATH, 0x4                                 ; reg: 0x00a
12E5   0008           03955         return
12E6   118A           03956         bcf     PCLATH, 0x3                                 ; reg: 0x00a
12E7   120A           03957         bcf     PCLATH, 0x4                                 ; reg: 0x00a
12E8   300A           03958         movlw   0x0a
12E9   00F4           03959         movwf   (Common_RAM + 4)                            ; reg: 0x074
12EA   3038           03960         movlw   0x38
12EB   218E           03961         call    function_019
12EC   118A           03962         bcf     PCLATH, 0x3                                 ; reg: 0x00a
12ED   160A           03963         bsf     PCLATH, 0x4                                 ; reg: 0x00a
12EE   0008           03964         return
gpasm-1.5.0 #1285 (Jan 23 2020) unidds_v1_08.   27.01.2020  22:56:48        PAGE 76


LOC    OBJECT CODE    LINE  SOURCE TEXT
  VALUE

12EF   118A           03965         bcf     PCLATH, 0x3                                 ; reg: 0x00a
12F0   120A           03966         bcf     PCLATH, 0x4                                 ; reg: 0x00a
12F1   300A           03967         movlw   0x0a
12F2   00F4           03968         movwf   (Common_RAM + 4)                            ; reg: 0x074
12F3   304A           03969         movlw   0x4a
12F4   218E           03970         call    function_019
12F5   118A           03971         bcf     PCLATH, 0x3                                 ; reg: 0x00a
12F6   160A           03972         bsf     PCLATH, 0x4                                 ; reg: 0x00a
12F7   0008           03973         return
12F8   118A           03974         bcf     PCLATH, 0x3                                 ; reg: 0x00a
12F9   120A           03975         bcf     PCLATH, 0x4                                 ; reg: 0x00a
12FA   300A           03976         movlw   0x0a
12FB   00F4           03977         movwf   (Common_RAM + 4)                            ; reg: 0x074
12FC   305C           03978         movlw   0x5c
12FD   218E           03979         call    function_019
12FE   118A           03980         bcf     PCLATH, 0x3                                 ; reg: 0x00a
12FF   160A           03981         bsf     PCLATH, 0x4                                 ; reg: 0x00a
1300   0008           03982         return
1301   118A           03983         bcf     PCLATH, 0x3                                 ; reg: 0x00a
1302   120A           03984         bcf     PCLATH, 0x4                                 ; reg: 0x00a
1303   300A           03985         movlw   0x0a
1304   00F4           03986         movwf   (Common_RAM + 4)                            ; reg: 0x074
1305   306E           03987         movlw   0x6e
1306   218E           03988         call    function_019
1307   118A           03989         bcf     PCLATH, 0x3                                 ; reg: 0x00a
1308   160A           03990         bsf     PCLATH, 0x4                                 ; reg: 0x00a
1309   0008           03991         return
130A   118A           03992         bcf     PCLATH, 0x3                                 ; reg: 0x00a
130B   120A           03993         bcf     PCLATH, 0x4                                 ; reg: 0x00a
130C   300A           03994         movlw   0x0a
130D   00F4           03995         movwf   (Common_RAM + 4)                            ; reg: 0x074
130E   3080           03996         movlw   0x80
130F   218E           03997         call    function_019
1310   118A           03998         bcf     PCLATH, 0x3                                 ; reg: 0x00a
1311   160A           03999         bsf     PCLATH, 0x4                                 ; reg: 0x00a
1312   0008           04000         return
1313   118A           04001         bcf     PCLATH, 0x3                                 ; reg: 0x00a
1314   120A           04002         bcf     PCLATH, 0x4                                 ; reg: 0x00a
1315   300A           04003         movlw   0x0a
1316   00F4           04004         movwf   (Common_RAM + 4)                            ; reg: 0x074
1317   3092           04005         movlw   0x92
1318   218E           04006         call    function_019
1319   118A           04007         bcf     PCLATH, 0x3                                 ; reg: 0x00a
131A   160A           04008         bsf     PCLATH, 0x4                                 ; reg: 0x00a
131B   0008           04009         return
131C   118A           04010         bcf     PCLATH, 0x3                                 ; reg: 0x00a
131D   120A           04011         bcf     PCLATH, 0x4                                 ; reg: 0x00a
131E   300A           04012         movlw   0x0a
131F   00F4           04013         movwf   (Common_RAM + 4)                            ; reg: 0x074
1320   30A4           04014         movlw   0xa4
1321   218E           04015         call    function_019
1322   118A           04016         bcf     PCLATH, 0x3                                 ; reg: 0x00a
1323   160A           04017         bsf     PCLATH, 0x4                                 ; reg: 0x00a
gpasm-1.5.0 #1285 (Jan 23 2020) unidds_v1_08.   27.01.2020  22:56:48        PAGE 77


LOC    OBJECT CODE    LINE  SOURCE TEXT
  VALUE

1324   0008           04018         return
1325   118A           04019         bcf     PCLATH, 0x3                                 ; reg: 0x00a
1326   120A           04020         bcf     PCLATH, 0x4                                 ; reg: 0x00a
1327   300A           04021         movlw   0x0a
1328   00F4           04022         movwf   (Common_RAM + 4)                            ; reg: 0x074
1329   30B6           04023         movlw   0xb6
132A   218E           04024         call    function_019
132B   118A           04025         bcf     PCLATH, 0x3                                 ; reg: 0x00a
132C   160A           04026         bsf     PCLATH, 0x4                                 ; reg: 0x00a
132D   1E20           04027         btfss   0x20, 0x4                                   ; reg: 0x020
132E   2B38           04028         goto    label_204
132F   118A           04029         bcf     PCLATH, 0x3                                 ; reg: 0x00a
1330   120A           04030         bcf     PCLATH, 0x4                                 ; reg: 0x00a
1331   3008           04031         movlw   0x08
1332   00F4           04032         movwf   (Common_RAM + 4)                            ; reg: 0x074
1333   30F4           04033         movlw   0xf4
1334   218E           04034         call    function_019
1335   118A           04035         bcf     PCLATH, 0x3                                 ; reg: 0x00a
1336   160A           04036         bsf     PCLATH, 0x4                                 ; reg: 0x00a
1337   0008           04037         return
                      04038 
1338                  04039 label_204:                                                  ; address: 0x1338
                      04040 
1338   118A           04041         bcf     PCLATH, 0x3                                 ; reg: 0x00a
1339   120A           04042         bcf     PCLATH, 0x4                                 ; reg: 0x00a
133A   3008           04043         movlw   0x08
133B   00F4           04044         movwf   (Common_RAM + 4)                            ; reg: 0x074
133C   30E2           04045         movlw   0xe2
133D   218E           04046         call    function_019
133E   118A           04047         bcf     PCLATH, 0x3                                 ; reg: 0x00a
133F   160A           04048         bsf     PCLATH, 0x4                                 ; reg: 0x00a
1340   0008           04049         return
1341   118A           04050         bcf     PCLATH, 0x3                                 ; reg: 0x00a
1342   120A           04051         bcf     PCLATH, 0x4                                 ; reg: 0x00a
1343   300A           04052         movlw   0x0a
1344   00F4           04053         movwf   (Common_RAM + 4)                            ; reg: 0x074
1345   30C8           04054         movlw   0xc8
1346   218E           04055         call    function_019
1347   118A           04056         bcf     PCLATH, 0x3                                 ; reg: 0x00a
1348   160A           04057         bsf     PCLATH, 0x4                                 ; reg: 0x00a
1349   1AA0           04058         btfsc   0x20, 0x5                                   ; reg: 0x020
134A   2B54           04059         goto    label_205
134B   118A           04060         bcf     PCLATH, 0x3                                 ; reg: 0x00a
134C   120A           04061         bcf     PCLATH, 0x4                                 ; reg: 0x00a
134D   3009           04062         movlw   0x09
134E   00F4           04063         movwf   (Common_RAM + 4)                            ; reg: 0x074
134F   304E           04064         movlw   0x4e
1350   218E           04065         call    function_019
1351   118A           04066         bcf     PCLATH, 0x3                                 ; reg: 0x00a
1352   160A           04067         bsf     PCLATH, 0x4                                 ; reg: 0x00a
1353   0008           04068         return
                      04069 
1354                  04070 label_205:                                                  ; address: 0x1354
gpasm-1.5.0 #1285 (Jan 23 2020) unidds_v1_08.   27.01.2020  22:56:48        PAGE 78


LOC    OBJECT CODE    LINE  SOURCE TEXT
  VALUE

                      04071 
1354   118A           04072         bcf     PCLATH, 0x3                                 ; reg: 0x00a
1355   120A           04073         bcf     PCLATH, 0x4                                 ; reg: 0x00a
1356   3009           04074         movlw   0x09
1357   00F4           04075         movwf   (Common_RAM + 4)                            ; reg: 0x074
1358   303C           04076         movlw   0x3c
1359   218E           04077         call    function_019
135A   118A           04078         bcf     PCLATH, 0x3                                 ; reg: 0x00a
135B   160A           04079         bsf     PCLATH, 0x4                                 ; reg: 0x00a
135C   0008           04080         return
135D   118A           04081         bcf     PCLATH, 0x3                                 ; reg: 0x00a
135E   120A           04082         bcf     PCLATH, 0x4                                 ; reg: 0x00a
135F   300A           04083         movlw   0x0a
1360   00F4           04084         movwf   (Common_RAM + 4)                            ; reg: 0x074
1361   30DA           04085         movlw   0xda
1362   218E           04086         call    function_019
1363   118A           04087         bcf     PCLATH, 0x3                                 ; reg: 0x00a
1364   160A           04088         bsf     PCLATH, 0x4                                 ; reg: 0x00a
1365   0008           04089         return
                      04090 
1366                  04091 function_070:                                               ; address: 0x1366
                      04092 
1366   118A           04093         bcf     PCLATH, 0x3                                 ; reg: 0x00a
1367   120A           04094         bcf     PCLATH, 0x4                                 ; reg: 0x00a
1368   3009           04095         movlw   0x09
1369   00F4           04096         movwf   (Common_RAM + 4)                            ; reg: 0x074
136A   303C           04097         movlw   0x3c
136B   218E           04098         call    function_019
136C   118A           04099         bcf     PCLATH, 0x3                                 ; reg: 0x00a
136D   160A           04100         bsf     PCLATH, 0x4                                 ; reg: 0x00a
136E   0008           04101         return
                      04102 
136F                  04103 function_071:                                               ; address: 0x136f
                      04104 
136F   118A           04105         bcf     PCLATH, 0x3                                 ; reg: 0x00a
1370   120A           04106         bcf     PCLATH, 0x4                                 ; reg: 0x00a
1371   3009           04107         movlw   0x09
1372   00F4           04108         movwf   (Common_RAM + 4)                            ; reg: 0x074
1373   304E           04109         movlw   0x4e
1374   218E           04110         call    function_019
1375   118A           04111         bcf     PCLATH, 0x3                                 ; reg: 0x00a
1376   160A           04112         bsf     PCLATH, 0x4                                 ; reg: 0x00a
1377   0008           04113         return
1378   118A           04114         bcf     PCLATH, 0x3                                 ; reg: 0x00a
1379   120A           04115         bcf     PCLATH, 0x4                                 ; reg: 0x00a
137A   3009           04116         movlw   0x09
137B   00F4           04117         movwf   (Common_RAM + 4)                            ; reg: 0x074
137C   3060           04118         movlw   0x60
137D   218E           04119         call    function_019
137E   118A           04120         bcf     PCLATH, 0x3                                 ; reg: 0x00a
137F   160A           04121         bsf     PCLATH, 0x4                                 ; reg: 0x00a
1380   0008           04122         return
1381   118A           04123         bcf     PCLATH, 0x3                                 ; reg: 0x00a
gpasm-1.5.0 #1285 (Jan 23 2020) unidds_v1_08.   27.01.2020  22:56:48        PAGE 79


LOC    OBJECT CODE    LINE  SOURCE TEXT
  VALUE

1382   120A           04124         bcf     PCLATH, 0x4                                 ; reg: 0x00a
1383   3009           04125         movlw   0x09
1384   00F4           04126         movwf   (Common_RAM + 4)                            ; reg: 0x074
1385   30A8           04127         movlw   0xa8
1386   218E           04128         call    function_019
1387   118A           04129         bcf     PCLATH, 0x3                                 ; reg: 0x00a
1388   160A           04130         bsf     PCLATH, 0x4                                 ; reg: 0x00a
1389   0008           04131         return
138A   118A           04132         bcf     PCLATH, 0x3                                 ; reg: 0x00a
138B   120A           04133         bcf     PCLATH, 0x4                                 ; reg: 0x00a
138C   3009           04134         movlw   0x09
138D   00F4           04135         movwf   (Common_RAM + 4)                            ; reg: 0x074
138E   30BA           04136         movlw   0xba
138F   218E           04137         call    function_019
1390   118A           04138         bcf     PCLATH, 0x3                                 ; reg: 0x00a
1391   160A           04139         bsf     PCLATH, 0x4                                 ; reg: 0x00a
1392   0008           04140         return
1393   1CA0           04141         btfss   0x20, 0x1                                   ; reg: 0x020
1394   2B97           04142         goto    label_206
1395   236F           04143         call    function_071
1396   2B98           04144         goto    label_207
                      04145 
1397                  04146 label_206:                                                  ; address: 0x1397
                      04147 
1397   2366           04148         call    function_070
                      04149 
1398                  04150 label_207:                                                  ; address: 0x1398
                      04151 
1398   118A           04152         bcf     PCLATH, 0x3                                 ; reg: 0x00a
1399   120A           04153         bcf     PCLATH, 0x4                                 ; reg: 0x00a
139A   3009           04154         movlw   0x09
139B   00F4           04155         movwf   (Common_RAM + 4)                            ; reg: 0x074
139C   30CC           04156         movlw   0xcc
139D   218E           04157         call    function_019
139E   118A           04158         bcf     PCLATH, 0x3                                 ; reg: 0x00a
139F   160A           04159         bsf     PCLATH, 0x4                                 ; reg: 0x00a
13A0   0008           04160         return
13A1   1DA0           04161         btfss   0x20, 0x3                                   ; reg: 0x020
13A2   2BA5           04162         goto    label_208
13A3   236F           04163         call    function_071
13A4   2BA6           04164         goto    label_209
                      04165 
13A5                  04166 label_208:                                                  ; address: 0x13a5
                      04167 
13A5   2366           04168         call    function_070
                      04169 
13A6                  04170 label_209:                                                  ; address: 0x13a6
                      04171 
13A6   118A           04172         bcf     PCLATH, 0x3                                 ; reg: 0x00a
13A7   120A           04173         bcf     PCLATH, 0x4                                 ; reg: 0x00a
13A8   300A           04174         movlw   0x0a
13A9   00F4           04175         movwf   (Common_RAM + 4)                            ; reg: 0x074
13AA   3014           04176         movlw   0x14
gpasm-1.5.0 #1285 (Jan 23 2020) unidds_v1_08.   27.01.2020  22:56:48        PAGE 80


LOC    OBJECT CODE    LINE  SOURCE TEXT
  VALUE

13AB   218E           04177         call    function_019
13AC   118A           04178         bcf     PCLATH, 0x3                                 ; reg: 0x00a
13AD   160A           04179         bsf     PCLATH, 0x4                                 ; reg: 0x00a
13AE   0008           04180         return
13AF   118A           04181         bcf     PCLATH, 0x3                                 ; reg: 0x00a
13B0   120A           04182         bcf     PCLATH, 0x4                                 ; reg: 0x00a
13B1   3009           04183         movlw   0x09
13B2   00F4           04184         movwf   (Common_RAM + 4)                            ; reg: 0x074
13B3   3072           04185         movlw   0x72
13B4   218E           04186         call    function_019
13B5   118A           04187         bcf     PCLATH, 0x3                                 ; reg: 0x00a
13B6   160A           04188         bsf     PCLATH, 0x4                                 ; reg: 0x00a
13B7   0008           04189         return
13B8   1D20           04190         btfss   0x20, 0x2                                   ; reg: 0x020
13B9   2BBC           04191         goto    label_210
13BA   236F           04192         call    function_071
13BB   2BBD           04193         goto    label_211
                      04194 
13BC                  04195 label_210:                                                  ; address: 0x13bc
                      04196 
13BC   2366           04197         call    function_070
                      04198 
13BD                  04199 label_211:                                                  ; address: 0x13bd
                      04200 
13BD   118A           04201         bcf     PCLATH, 0x3                                 ; reg: 0x00a
13BE   120A           04202         bcf     PCLATH, 0x4                                 ; reg: 0x00a
13BF   3009           04203         movlw   0x09
13C0   00F4           04204         movwf   (Common_RAM + 4)                            ; reg: 0x074
13C1   3084           04205         movlw   0x84
13C2   218E           04206         call    function_019
13C3   118A           04207         bcf     PCLATH, 0x3                                 ; reg: 0x00a
13C4   160A           04208         bsf     PCLATH, 0x4                                 ; reg: 0x00a
13C5   0008           04209         return
13C6   1C20           04210         btfss   0x20, 0x0                                   ; reg: 0x020
13C7   2BCA           04211         goto    label_212
13C8   236F           04212         call    function_071
13C9   2BCB           04213         goto    label_213
                      04214 
13CA                  04215 label_212:                                                  ; address: 0x13ca
                      04216 
13CA   2366           04217         call    function_070
                      04218 
13CB                  04219 label_213:                                                  ; address: 0x13cb
                      04220 
13CB   118A           04221         bcf     PCLATH, 0x3                                 ; reg: 0x00a
13CC   120A           04222         bcf     PCLATH, 0x4                                 ; reg: 0x00a
13CD   3009           04223         movlw   0x09
13CE   00F4           04224         movwf   (Common_RAM + 4)                            ; reg: 0x074
13CF   3096           04225         movlw   0x96
13D0   218E           04226         call    function_019
13D1   118A           04227         bcf     PCLATH, 0x3                                 ; reg: 0x00a
13D2   160A           04228         bsf     PCLATH, 0x4                                 ; reg: 0x00a
13D3   0008           04229         return
gpasm-1.5.0 #1285 (Jan 23 2020) unidds_v1_08.   27.01.2020  22:56:48        PAGE 81


LOC    OBJECT CODE    LINE  SOURCE TEXT
  VALUE

13D4   118A           04230         bcf     PCLATH, 0x3                                 ; reg: 0x00a
13D5   120A           04231         bcf     PCLATH, 0x4                                 ; reg: 0x00a
13D6   3009           04232         movlw   0x09
13D7   00F4           04233         movwf   (Common_RAM + 4)                            ; reg: 0x074
13D8   30DE           04234         movlw   0xde
13D9   218E           04235         call    function_019
13DA   118A           04236         bcf     PCLATH, 0x3                                 ; reg: 0x00a
13DB   160A           04237         bsf     PCLATH, 0x4                                 ; reg: 0x00a
13DC   0008           04238         return
13DD   1EB2           04239         btfss   0x32, 0x5                                   ; reg: 0x032
13DE   2BE1           04240         goto    label_214
13DF   236F           04241         call    function_071
13E0   2BE2           04242         goto    label_215
                      04243 
13E1                  04244 label_214:                                                  ; address: 0x13e1
                      04245 
13E1   2366           04246         call    function_070
                      04247 
13E2                  04248 label_215:                                                  ; address: 0x13e2
                      04249 
13E2   118A           04250         bcf     PCLATH, 0x3                                 ; reg: 0x00a
13E3   120A           04251         bcf     PCLATH, 0x4                                 ; reg: 0x00a
13E4   3009           04252         movlw   0x09
13E5   00F4           04253         movwf   (Common_RAM + 4)                            ; reg: 0x074
13E6   30F0           04254         movlw   0xf0
13E7   218E           04255         call    function_019
13E8   118A           04256         bcf     PCLATH, 0x3                                 ; reg: 0x00a
13E9   160A           04257         bsf     PCLATH, 0x4                                 ; reg: 0x00a
13EA   0008           04258         return
13EB   1EB2           04259         btfss   0x32, 0x5                                   ; reg: 0x032
13EC   2BEF           04260         goto    label_216
13ED   236F           04261         call    function_071
13EE   2BF0           04262         goto    label_217
                      04263 
13EF                  04264 label_216:                                                  ; address: 0x13ef
                      04265 
13EF   2366           04266         call    function_070
                      04267 
13F0                  04268 label_217:                                                  ; address: 0x13f0
                      04269 
13F0   118A           04270         bcf     PCLATH, 0x3                                 ; reg: 0x00a
13F1   120A           04271         bcf     PCLATH, 0x4                                 ; reg: 0x00a
13F2   300A           04272         movlw   0x0a
13F3   00F4           04273         movwf   (Common_RAM + 4)                            ; reg: 0x074
13F4   3002           04274         movlw   0x02
13F5   218E           04275         call    function_019
13F6   118A           04276         bcf     PCLATH, 0x3                                 ; reg: 0x00a
13F7   160A           04277         bsf     PCLATH, 0x4                                 ; reg: 0x00a
13F8   0008           04278         return
                      04279 
13F9                  04280 function_072:                                               ; address: 0x13f9
                      04281 
13F9   118A           04282         bcf     PCLATH, 0x3                                 ; reg: 0x00a
gpasm-1.5.0 #1285 (Jan 23 2020) unidds_v1_08.   27.01.2020  22:56:48        PAGE 82


LOC    OBJECT CODE    LINE  SOURCE TEXT
  VALUE

13FA   120A           04283         bcf     PCLATH, 0x4                                 ; reg: 0x00a
13FB   255F           04284         call    function_045
13FC   118A           04285         bcf     PCLATH, 0x3                                 ; reg: 0x00a
13FD   160A           04286         bsf     PCLATH, 0x4                                 ; reg: 0x00a
13FE   270A           04287         call    function_080
13FF   1683           04288         bsf     STATUS, RP0                                 ; reg: 0x003, bit: 5
1400   1303           04289         bcf     STATUS, RP1                                 ; reg: 0x003, bit: 6
1401   00D4           04290         movwf   0x54                                        ; reg: 0x0d4
1402   0253           04291         subwf   0x53, W                                     ; reg: 0x0d3
1403   1283           04292         bcf     STATUS, RP0                                 ; reg: 0x003, bit: 5
1404   1303           04293         bcf     STATUS, RP1                                 ; reg: 0x003, bit: 6
1405   1803           04294         btfsc   STATUS, C                                   ; reg: 0x003, bit: 0
1406   2C0F           04295         goto    label_218
1407   3064           04296         movlw   0x64
1408   00E0           04297         movwf   0x60                                        ; reg: 0x060
1409   1683           04298         bsf     STATUS, RP0                                 ; reg: 0x003, bit: 5
140A   1303           04299         bcf     STATUS, RP1                                 ; reg: 0x003, bit: 6
140B   0854           04300         movf    0x54, W                                     ; reg: 0x0d4
140C   00D3           04301         movwf   0x53                                        ; reg: 0x0d3
140D   1283           04302         bcf     STATUS, RP0                                 ; reg: 0x003, bit: 5
140E   1303           04303         bcf     STATUS, RP1                                 ; reg: 0x003, bit: 6
                      04304 
140F                  04305 label_218:                                                  ; address: 0x140f
                      04306 
140F   08E0           04307         movf    0x60, F                                     ; reg: 0x060
1410   1D03           04308         btfss   STATUS, Z                                   ; reg: 0x003, bit: 2
1411   2C18           04309         goto    label_219
1412   1683           04310         bsf     STATUS, RP0                                 ; reg: 0x003, bit: 5
1413   1303           04311         bcf     STATUS, RP1                                 ; reg: 0x003, bit: 6
1414   0854           04312         movf    0x54, W                                     ; reg: 0x0d4
1415   00D3           04313         movwf   0x53                                        ; reg: 0x0d3
1416   1283           04314         bcf     STATUS, RP0                                 ; reg: 0x003, bit: 5
1417   1303           04315         bcf     STATUS, RP1                                 ; reg: 0x003, bit: 6
                      04316 
1418                  04317 label_219:                                                  ; address: 0x1418
                      04318 
1418   1683           04319         bsf     STATUS, RP0                                 ; reg: 0x003, bit: 5
1419   1303           04320         bcf     STATUS, RP1                                 ; reg: 0x003, bit: 6
141A   0853           04321         movf    0x53, W                                     ; reg: 0x0d3
141B   0255           04322         subwf   0x55, W                                     ; reg: 0x0d5
141C   1283           04323         bcf     STATUS, RP0                                 ; reg: 0x003, bit: 5
141D   1303           04324         bcf     STATUS, RP1                                 ; reg: 0x003, bit: 6
141E   1903           04325         btfsc   STATUS, Z                                   ; reg: 0x003, bit: 2
141F   2C34           04326         goto    label_220
1420   118A           04327         bcf     PCLATH, 0x3                                 ; reg: 0x00a
1421   120A           04328         bcf     PCLATH, 0x4                                 ; reg: 0x00a
1422   304E           04329         movlw   0x4e
1423   218C           04330         call    function_018
1424   3053           04331         movlw   0x53
1425   2150           04332         call    0x0150
1426   118A           04333         bcf     PCLATH, 0x3                                 ; reg: 0x00a
1427   160A           04334         bsf     PCLATH, 0x4                                 ; reg: 0x00a
1428   1683           04335         bsf     STATUS, RP0                                 ; reg: 0x003, bit: 5
gpasm-1.5.0 #1285 (Jan 23 2020) unidds_v1_08.   27.01.2020  22:56:48        PAGE 83


LOC    OBJECT CODE    LINE  SOURCE TEXT
  VALUE

1429   1303           04336         bcf     STATUS, RP1                                 ; reg: 0x003, bit: 6
142A   0853           04337         movf    0x53, W                                     ; reg: 0x0d3
142B   00D5           04338         movwf   0x55                                        ; reg: 0x0d5
142C   1283           04339         bcf     STATUS, RP0                                 ; reg: 0x003, bit: 5
142D   1303           04340         bcf     STATUS, RP1                                 ; reg: 0x003, bit: 6
142E   2049           04341         call    function_063
142F   118A           04342         bcf     PCLATH, 0x3                                 ; reg: 0x00a
1430   120A           04343         bcf     PCLATH, 0x4                                 ; reg: 0x00a
1431   2150           04344         call    function_013
1432   118A           04345         bcf     PCLATH, 0x3                                 ; reg: 0x00a
1433   160A           04346         bsf     PCLATH, 0x4                                 ; reg: 0x00a
                      04347 
1434                  04348 label_220:                                                  ; address: 0x1434
                      04349 
1434   0008           04350         return
                      04351 
1435                  04352 function_073:                                               ; address: 0x1435
                      04353 
1435   118A           04354         bcf     PCLATH, 0x3                                 ; reg: 0x00a
1436   120A           04355         bcf     PCLATH, 0x4                                 ; reg: 0x00a
1437   256F           04356         call    function_046
1438   257E           04357         call    0x057e
1439   118A           04358         bcf     PCLATH, 0x3                                 ; reg: 0x00a
143A   160A           04359         bsf     PCLATH, 0x4                                 ; reg: 0x00a
143B   1683           04360         bsf     STATUS, RP0                                 ; reg: 0x003, bit: 5
143C   1303           04361         bcf     STATUS, RP1                                 ; reg: 0x003, bit: 6
143D   00D6           04362         movwf   0x56                                        ; reg: 0x0d6
143E   0257           04363         subwf   0x57, W                                     ; reg: 0x0d7
143F   1283           04364         bcf     STATUS, RP0                                 ; reg: 0x003, bit: 5
1440   1303           04365         bcf     STATUS, RP1                                 ; reg: 0x003, bit: 6
1441   1903           04366         btfsc   STATUS, Z                                   ; reg: 0x003, bit: 2
1442   2C71           04367         goto    label_223
1443   118A           04368         bcf     PCLATH, 0x3                                 ; reg: 0x00a
1444   120A           04369         bcf     PCLATH, 0x4                                 ; reg: 0x00a
1445   300B           04370         movlw   0x0b
1446   218C           04371         call    function_018
1447   1683           04372         bsf     STATUS, RP0                                 ; reg: 0x003, bit: 5
1448   1303           04373         bcf     STATUS, RP1                                 ; reg: 0x003, bit: 6
1449   0856           04374         movf    0x56, W                                     ; reg: 0x0d6
144A   00D7           04375         movwf   0x57                                        ; reg: 0x0d7
144B   1283           04376         bcf     STATUS, RP0                                 ; reg: 0x003, bit: 5
144C   1303           04377         bcf     STATUS, RP1                                 ; reg: 0x003, bit: 6
144D   2595           04378         call    0x0595
144E   118A           04379         bcf     PCLATH, 0x3                                 ; reg: 0x00a
144F   160A           04380         bsf     PCLATH, 0x4                                 ; reg: 0x00a
1450   0846           04381         movf    0x46, W                                     ; reg: 0x046
1451   390F           04382         andlw   0x0f
1452   1D03           04383         btfss   STATUS, Z                                   ; reg: 0x003, bit: 2
1453   2C5A           04384         goto    label_221
1454   118A           04385         bcf     PCLATH, 0x3                                 ; reg: 0x00a
1455   120A           04386         bcf     PCLATH, 0x4                                 ; reg: 0x00a
1456   21C1           04387         call    function_020
1457   118A           04388         bcf     PCLATH, 0x3                                 ; reg: 0x00a
gpasm-1.5.0 #1285 (Jan 23 2020) unidds_v1_08.   27.01.2020  22:56:48        PAGE 84


LOC    OBJECT CODE    LINE  SOURCE TEXT
  VALUE

1458   160A           04389         bsf     PCLATH, 0x4                                 ; reg: 0x00a
1459   2C61           04390         goto    label_222
                      04391 
145A                  04392 label_221:                                                  ; address: 0x145a
                      04393 
145A   0846           04394         movf    0x46, W                                     ; reg: 0x046
145B   118A           04395         bcf     PCLATH, 0x3                                 ; reg: 0x00a
145C   120A           04396         bcf     PCLATH, 0x4                                 ; reg: 0x00a
145D   2052           04397         call    function_000
145E   2150           04398         call    0x0150
145F   118A           04399         bcf     PCLATH, 0x3                                 ; reg: 0x00a
1460   160A           04400         bsf     PCLATH, 0x4                                 ; reg: 0x00a
                      04401 
1461                  04402 label_222:                                                  ; address: 0x1461
                      04403 
1461   118A           04404         bcf     PCLATH, 0x3                                 ; reg: 0x00a
1462   120A           04405         bcf     PCLATH, 0x4                                 ; reg: 0x00a
1463   0845           04406         movf    0x45, W                                     ; reg: 0x045
1464   00F7           04407         movwf   (Common_RAM + 7)                            ; reg: 0x077
1465   0E77           04408         swapf   (Common_RAM + 7), W                         ; reg: 0x077
1466   2052           04409         call    function_000
1467   2150           04410         call    0x0150
1468   302E           04411         movlw   0x2e
1469   2150           04412         call    0x0150
146A   0877           04413         movf    (Common_RAM + 7), W                         ; reg: 0x077
146B   2052           04414         call    0x0052
146C   2150           04415         call    0x0150
146D   3056           04416         movlw   0x56
146E   2150           04417         call    0x0150
146F   118A           04418         bcf     PCLATH, 0x3                                 ; reg: 0x00a
1470   160A           04419         bsf     PCLATH, 0x4                                 ; reg: 0x00a
                      04420 
1471                  04421 label_223:                                                  ; address: 0x1471
                      04422 
1471   0008           04423         return
                      04424 
1472                  04425 function_074:                                               ; address: 0x1472
                      04426 
1472   118A           04427         bcf     PCLATH, 0x3                                 ; reg: 0x00a
1473   120A           04428         bcf     PCLATH, 0x4                                 ; reg: 0x00a
1474   24EE           04429         call    function_039
1475   1587           04430         bsf     PORTC, RC3                                  ; reg: 0x007, bit: 3
1476   2184           04431         call    0x0184
1477   118A           04432         bcf     PCLATH, 0x3                                 ; reg: 0x00a
1478   160A           04433         bsf     PCLATH, 0x4                                 ; reg: 0x00a
                      04434 
1479                  04435 label_224:                                                  ; address: 0x1479
                      04436 
1479   118A           04437         bcf     PCLATH, 0x3                                 ; reg: 0x00a
147A   120A           04438         bcf     PCLATH, 0x4                                 ; reg: 0x00a
147B   235C           04439         call    function_025
147C   118A           04440         bcf     PCLATH, 0x3                                 ; reg: 0x00a
147D   160A           04441         bsf     PCLATH, 0x4                                 ; reg: 0x00a
gpasm-1.5.0 #1285 (Jan 23 2020) unidds_v1_08.   27.01.2020  22:56:48        PAGE 85


LOC    OBJECT CODE    LINE  SOURCE TEXT
  VALUE

147E   1803           04442         btfsc   STATUS, C                                   ; reg: 0x003, bit: 0
147F   2CE1           04443         goto    label_226
1480   1F86           04444         btfss   PORTB, RB7                                  ; reg: 0x006, bit: 7
1481   2CE1           04445         goto    label_226
1482   1F06           04446         btfss   PORTB, RB6                                  ; reg: 0x006, bit: 6
1483   2CE1           04447         goto    label_226
1484   118A           04448         bcf     PCLATH, 0x3                                 ; reg: 0x00a
1485   120A           04449         bcf     PCLATH, 0x4                                 ; reg: 0x00a
1486   2573           04450         call    function_047
1487   00E3           04451         movwf   0x63                                        ; reg: 0x063
1488   2571           04452         call    0x0571
1489   00E4           04453         movwf   0x64                                        ; reg: 0x064
148A   118A           04454         bcf     PCLATH, 0x3                                 ; reg: 0x00a
148B   160A           04455         bsf     PCLATH, 0x4                                 ; reg: 0x00a
148C   24F1           04456         call    function_075
148D   118A           04457         bcf     PCLATH, 0x3                                 ; reg: 0x00a
148E   120A           04458         bcf     PCLATH, 0x4                                 ; reg: 0x00a
148F   3008           04459         movlw   0x08
1490   00F4           04460         movwf   (Common_RAM + 4)                            ; reg: 0x074
1491   3084           04461         movlw   0x84
1492   218E           04462         call    function_019
1493   118A           04463         bcf     PCLATH, 0x3                                 ; reg: 0x00a
1494   160A           04464         bsf     PCLATH, 0x4                                 ; reg: 0x00a
1495   1683           04465         bsf     STATUS, RP0                                 ; reg: 0x003, bit: 5
1496   1303           04466         bcf     STATUS, RP1                                 ; reg: 0x003, bit: 6
1497   0822           04467         movf    0x22, W                                     ; reg: 0x0a2
1498   1283           04468         bcf     STATUS, RP0                                 ; reg: 0x003, bit: 5
1499   1303           04469         bcf     STATUS, RP1                                 ; reg: 0x003, bit: 6
149A   3830           04470         iorlw   0x30
149B   118A           04471         bcf     PCLATH, 0x3                                 ; reg: 0x00a
149C   120A           04472         bcf     PCLATH, 0x4                                 ; reg: 0x00a
149D   2150           04473         call    function_013
149E   302E           04474         movlw   0x2e
149F   2150           04475         call    0x0150
14A0   1683           04476         bsf     STATUS, RP0                                 ; reg: 0x003, bit: 5
14A1   1303           04477         bcf     STATUS, RP1                                 ; reg: 0x003, bit: 6
14A2   0821           04478         movf    0x21, W                                     ; reg: 0x0a1
14A3   1283           04479         bcf     STATUS, RP0                                 ; reg: 0x003, bit: 5
14A4   1303           04480         bcf     STATUS, RP1                                 ; reg: 0x003, bit: 6
14A5   3830           04481         iorlw   0x30
14A6   2150           04482         call    0x0150
14A7   21C1           04483         call    0x01c1
14A8   3050           04484         movlw   0x50
14A9   2150           04485         call    0x0150
14AA   303A           04486         movlw   0x3a
14AB   2150           04487         call    0x0150
14AC   118A           04488         bcf     PCLATH, 0x3                                 ; reg: 0x00a
14AD   160A           04489         bsf     PCLATH, 0x4                                 ; reg: 0x00a
14AE   0863           04490         movf    0x63, W                                     ; reg: 0x063
14AF   00BF           04491         movwf   0x3f                                        ; reg: 0x03f
14B0   1003           04492         bcf     STATUS, C                                   ; reg: 0x003, bit: 0
14B1   0CBF           04493         rrf     0x3f, F                                     ; reg: 0x03f
14B2   0C3F           04494         rrf     0x3f, W                                     ; reg: 0x03f
gpasm-1.5.0 #1285 (Jan 23 2020) unidds_v1_08.   27.01.2020  22:56:48        PAGE 86


LOC    OBJECT CODE    LINE  SOURCE TEXT
  VALUE

14B3   158A           04495         bsf     PCLATH, 0x3                                 ; reg: 0x00a
14B4   120A           04496         bcf     PCLATH, 0x4                                 ; reg: 0x00a
14B5   2000           04497         call    function_057
14B6   00BF           04498         movwf   0x3f                                        ; reg: 0x03f
14B7   0E3F           04499         swapf   0x3f, W                                     ; reg: 0x03f
14B8   390F           04500         andlw   0x0f
14B9   3830           04501         iorlw   0x30
14BA   118A           04502         bcf     PCLATH, 0x3                                 ; reg: 0x00a
14BB   120A           04503         bcf     PCLATH, 0x4                                 ; reg: 0x00a
14BC   2150           04504         call    function_013
14BD   302E           04505         movlw   0x2e
14BE   2150           04506         call    0x0150
14BF   083F           04507         movf    0x3f, W                                     ; reg: 0x03f
14C0   390F           04508         andlw   0x0f
14C1   3830           04509         iorlw   0x30
14C2   2150           04510         call    0x0150
14C3   3057           04511         movlw   0x57
14C4   2150           04512         call    0x0150
14C5   118A           04513         bcf     PCLATH, 0x3                                 ; reg: 0x00a
14C6   160A           04514         bsf     PCLATH, 0x4                                 ; reg: 0x00a
14C7   3040           04515         movlw   0x40
14C8   118A           04516         bcf     PCLATH, 0x3                                 ; reg: 0x00a
14C9   120A           04517         bcf     PCLATH, 0x4                                 ; reg: 0x00a
14CA   218C           04518         call    function_018
14CB   118A           04519         bcf     PCLATH, 0x3                                 ; reg: 0x00a
14CC   160A           04520         bsf     PCLATH, 0x4                                 ; reg: 0x00a
14CD   1683           04521         bsf     STATUS, RP0                                 ; reg: 0x003, bit: 5
14CE   1303           04522         bcf     STATUS, RP1                                 ; reg: 0x003, bit: 6
14CF   0820           04523         movf    0x20, W                                     ; reg: 0x0a0
14D0   1283           04524         bcf     STATUS, RP0                                 ; reg: 0x003, bit: 5
14D1   1303           04525         bcf     STATUS, RP1                                 ; reg: 0x003, bit: 6
14D2   00B8           04526         movwf   0x38                                        ; reg: 0x038
14D3   3010           04527         movlw   0x10
14D4   00B9           04528         movwf   0x39                                        ; reg: 0x039
                      04529 
14D5                  04530 label_225:                                                  ; address: 0x14d5
                      04531 
14D5   30FF           04532         movlw   0xff
14D6   03B8           04533         decf    0x38, F                                     ; reg: 0x038
14D7   1BB8           04534         btfsc   0x38, 0x7                                   ; reg: 0x038
14D8   3020           04535         movlw   0x20
14D9   118A           04536         bcf     PCLATH, 0x3                                 ; reg: 0x00a
14DA   120A           04537         bcf     PCLATH, 0x4                                 ; reg: 0x00a
14DB   2150           04538         call    function_013
14DC   118A           04539         bcf     PCLATH, 0x3                                 ; reg: 0x00a
14DD   160A           04540         bsf     PCLATH, 0x4                                 ; reg: 0x00a
14DE   0BB9           04541         decfsz  0x39, F                                     ; reg: 0x039
14DF   2CD5           04542         goto    label_225
14E0   2C79           04543         goto    label_224
                      04544 
14E1                  04545 label_226:                                                  ; address: 0x14e1
                      04546 
14E1   118A           04547         bcf     PCLATH, 0x3                                 ; reg: 0x00a
gpasm-1.5.0 #1285 (Jan 23 2020) unidds_v1_08.   27.01.2020  22:56:48        PAGE 87


LOC    OBJECT CODE    LINE  SOURCE TEXT
  VALUE

14E2   120A           04548         bcf     PCLATH, 0x4                                 ; reg: 0x00a
14E3   235C           04549         call    function_025
14E4   118A           04550         bcf     PCLATH, 0x3                                 ; reg: 0x00a
14E5   160A           04551         bsf     PCLATH, 0x4                                 ; reg: 0x00a
14E6   1803           04552         btfsc   STATUS, C                                   ; reg: 0x003, bit: 0
14E7   2CE1           04553         goto    label_226
14E8   118A           04554         bcf     PCLATH, 0x3                                 ; reg: 0x00a
14E9   120A           04555         bcf     PCLATH, 0x4                                 ; reg: 0x00a
14EA   1187           04556         bcf     PORTC, RC3                                  ; reg: 0x007, bit: 3
14EB   24F9           04557         call    function_040
14EC   2184           04558         call    0x0184
14ED   118A           04559         bcf     PCLATH, 0x3                                 ; reg: 0x00a
14EE   160A           04560         bsf     PCLATH, 0x4                                 ; reg: 0x00a
14EF   1532           04561         bsf     0x32, 0x2                                   ; reg: 0x032
14F0   0008           04562         return
                      04563 
14F1                  04564 function_075:                                               ; address: 0x14f1
                      04565 
14F1   118A           04566         bcf     PCLATH, 0x3                                 ; reg: 0x00a
14F2   120A           04567         bcf     PCLATH, 0x4                                 ; reg: 0x00a
14F3   2375           04568         call    function_026
14F4   118A           04569         bcf     PCLATH, 0x3                                 ; reg: 0x00a
14F5   160A           04570         bsf     PCLATH, 0x4                                 ; reg: 0x00a
14F6   0863           04571         movf    0x63, W                                     ; reg: 0x063
14F7   1903           04572         btfsc   STATUS, Z                                   ; reg: 0x003, bit: 2
14F8   2D47           04573         goto    label_230
14F9   00BF           04574         movwf   0x3f                                        ; reg: 0x03f
14FA   0864           04575         movf    0x64, W                                     ; reg: 0x064
14FB   00C1           04576         movwf   0x41                                        ; reg: 0x041
14FC   0841           04577         movf    0x41, W                                     ; reg: 0x041
14FD   02BF           04578         subwf   0x3f, F                                     ; reg: 0x03f
14FE   0842           04579         movf    0x42, W                                     ; reg: 0x042
14FF   1C03           04580         btfss   STATUS, C                                   ; reg: 0x003, bit: 0
1500   0F42           04581         incfsz  0x42, W                                     ; reg: 0x042
1501   02C0           04582         subwf   0x40, F                                     ; reg: 0x040
1502   1C03           04583         btfss   STATUS, C                                   ; reg: 0x003, bit: 0
1503   2D43           04584         goto    label_229
1504   08BF           04585         movf    0x3f, F                                     ; reg: 0x03f
1505   1903           04586         btfsc   STATUS, Z                                   ; reg: 0x003, bit: 2
1506   2D43           04587         goto    label_229
1507   0863           04588         movf    0x63, W                                     ; reg: 0x063
1508   00C3           04589         movwf   0x43                                        ; reg: 0x043
1509   0843           04590         movf    0x43, W                                     ; reg: 0x043
150A   07C1           04591         addwf   0x41, F                                     ; reg: 0x041
150B   0844           04592         movf    0x44, W                                     ; reg: 0x044
150C   1803           04593         btfsc   STATUS, C                                   ; reg: 0x003, bit: 0
150D   0F44           04594         incfsz  0x44, W                                     ; reg: 0x044
150E   07C2           04595         addwf   0x42, F                                     ; reg: 0x042
150F   01C4           04596         clrf    0x44                                        ; reg: 0x044
1510   03C4           04597         decf    0x44, F                                     ; reg: 0x044
                      04598 
1511                  04599 label_227:                                                  ; address: 0x1511
                      04600 
gpasm-1.5.0 #1285 (Jan 23 2020) unidds_v1_08.   27.01.2020  22:56:48        PAGE 88


LOC    OBJECT CODE    LINE  SOURCE TEXT
  VALUE

1511   0AC4           04601         incf    0x44, F                                     ; reg: 0x044
1512   083F           04602         movf    0x3f, W                                     ; reg: 0x03f
1513   02C1           04603         subwf   0x41, F                                     ; reg: 0x041
1514   0840           04604         movf    0x40, W                                     ; reg: 0x040
1515   1C03           04605         btfss   STATUS, C                                   ; reg: 0x003, bit: 0
1516   0F40           04606         incfsz  0x40, W                                     ; reg: 0x040
1517   02C2           04607         subwf   0x42, F                                     ; reg: 0x042
1518   1803           04608         btfsc   STATUS, C                                   ; reg: 0x003, bit: 0
1519   2D11           04609         goto    label_227
151A   083F           04610         movf    0x3f, W                                     ; reg: 0x03f
151B   07C1           04611         addwf   0x41, F                                     ; reg: 0x041
151C   0840           04612         movf    0x40, W                                     ; reg: 0x040
151D   1803           04613         btfsc   STATUS, C                                   ; reg: 0x003, bit: 0
151E   0F40           04614         incfsz  0x40, W                                     ; reg: 0x040
151F   07C2           04615         addwf   0x42, F                                     ; reg: 0x042
1520   01C2           04616         clrf    0x42                                        ; reg: 0x042
1521   0841           04617         movf    0x41, W                                     ; reg: 0x041
1522   1003           04618         bcf     STATUS, C                                   ; reg: 0x003, bit: 0
1523   0DC1           04619         rlf     0x41, F                                     ; reg: 0x041
1524   0DC2           04620         rlf     0x42, F                                     ; reg: 0x042
1525   1003           04621         bcf     STATUS, C                                   ; reg: 0x003, bit: 0
1526   0DC1           04622         rlf     0x41, F                                     ; reg: 0x041
1527   0DC2           04623         rlf     0x42, F                                     ; reg: 0x042
1528   07C1           04624         addwf   0x41, F                                     ; reg: 0x041
1529   1803           04625         btfsc   STATUS, C                                   ; reg: 0x003, bit: 0
152A   0AC2           04626         incf    0x42, F                                     ; reg: 0x042
152B   1003           04627         bcf     STATUS, C                                   ; reg: 0x003, bit: 0
152C   0DC1           04628         rlf     0x41, F                                     ; reg: 0x041
152D   0DC2           04629         rlf     0x42, F                                     ; reg: 0x042
152E   01C3           04630         clrf    0x43                                        ; reg: 0x043
152F   03C3           04631         decf    0x43, F                                     ; reg: 0x043
                      04632 
1530                  04633 label_228:                                                  ; address: 0x1530
                      04634 
1530   0AC3           04635         incf    0x43, F                                     ; reg: 0x043
1531   083F           04636         movf    0x3f, W                                     ; reg: 0x03f
1532   02C1           04637         subwf   0x41, F                                     ; reg: 0x041
1533   0840           04638         movf    0x40, W                                     ; reg: 0x040
1534   1C03           04639         btfss   STATUS, C                                   ; reg: 0x003, bit: 0
1535   0F40           04640         incfsz  0x40, W                                     ; reg: 0x040
1536   02C2           04641         subwf   0x42, F                                     ; reg: 0x042
1537   1803           04642         btfsc   STATUS, C                                   ; reg: 0x003, bit: 0
1538   2D30           04643         goto    label_228
1539   083F           04644         movf    0x3f, W                                     ; reg: 0x03f
153A   07C1           04645         addwf   0x41, F                                     ; reg: 0x041
153B   0840           04646         movf    0x40, W                                     ; reg: 0x040
153C   1803           04647         btfsc   STATUS, C                                   ; reg: 0x003, bit: 0
153D   0F40           04648         incfsz  0x40, W                                     ; reg: 0x040
153E   07C2           04649         addwf   0x42, F                                     ; reg: 0x042
153F   300A           04650         movlw   0x0a
1540   0244           04651         subwf   0x44, W                                     ; reg: 0x044
1541   1C03           04652         btfss   STATUS, C                                   ; reg: 0x003, bit: 0
1542   2D4B           04653         goto    label_231
gpasm-1.5.0 #1285 (Jan 23 2020) unidds_v1_08.   27.01.2020  22:56:48        PAGE 89


LOC    OBJECT CODE    LINE  SOURCE TEXT
  VALUE

                      04654 
1543                  04655 label_229:                                                  ; address: 0x1543
                      04656 
1543   3009           04657         movlw   0x09
1544   00C3           04658         movwf   0x43                                        ; reg: 0x043
1545   00C4           04659         movwf   0x44                                        ; reg: 0x044
1546   2D4B           04660         goto    label_231
                      04661 
1547                  04662 label_230:                                                  ; address: 0x1547
                      04663 
1547   01C3           04664         clrf    0x43                                        ; reg: 0x043
1548   01C4           04665         clrf    0x44                                        ; reg: 0x044
1549   01C2           04666         clrf    0x42                                        ; reg: 0x042
154A   2D5B           04667         goto    label_234
                      04668 
154B                  04669 label_231:                                                  ; address: 0x154b
                      04670 
154B   01C2           04671         clrf    0x42                                        ; reg: 0x042
154C   3002           04672         movlw   0x02
154D   0244           04673         subwf   0x44, W                                     ; reg: 0x044
154E   1C03           04674         btfss   STATUS, C                                   ; reg: 0x003, bit: 0
154F   2D55           04675         goto    label_232
1550   0344           04676         decf    0x44, W                                     ; reg: 0x044
1551   00C2           04677         movwf   0x42                                        ; reg: 0x042
1552   3009           04678         movlw   0x09
1553   07C2           04679         addwf   0x42, F                                     ; reg: 0x042
1554   2D57           04680         goto    label_233
                      04681 
1555                  04682 label_232:                                                  ; address: 0x1555
                      04683 
1555   0843           04684         movf    0x43, W                                     ; reg: 0x043
1556   00C2           04685         movwf   0x42                                        ; reg: 0x042
                      04686 
1557                  04687 label_233:                                                  ; address: 0x1557
                      04688 
1557   3012           04689         movlw   0x12
1558   0242           04690         subwf   0x42, W                                     ; reg: 0x042
1559   1803           04691         btfsc   STATUS, C                                   ; reg: 0x003, bit: 0
155A   03C2           04692         decf    0x42, F                                     ; reg: 0x042
                      04693 
155B                  04694 label_234:                                                  ; address: 0x155b
                      04695 
155B   0842           04696         movf    0x42, W                                     ; reg: 0x042
155C   1683           04697         bsf     STATUS, RP0                                 ; reg: 0x003, bit: 5
155D   1303           04698         bcf     STATUS, RP1                                 ; reg: 0x003, bit: 6
155E   00A0           04699         movwf   0x20                                        ; reg: 0x0a0
155F   1283           04700         bcf     STATUS, RP0                                 ; reg: 0x003, bit: 5
1560   1303           04701         bcf     STATUS, RP1                                 ; reg: 0x003, bit: 6
1561   0843           04702         movf    0x43, W                                     ; reg: 0x043
1562   1683           04703         bsf     STATUS, RP0                                 ; reg: 0x003, bit: 5
1563   1303           04704         bcf     STATUS, RP1                                 ; reg: 0x003, bit: 6
1564   00A1           04705         movwf   0x21                                        ; reg: 0x0a1
1565   1283           04706         bcf     STATUS, RP0                                 ; reg: 0x003, bit: 5
gpasm-1.5.0 #1285 (Jan 23 2020) unidds_v1_08.   27.01.2020  22:56:48        PAGE 90


LOC    OBJECT CODE    LINE  SOURCE TEXT
  VALUE

1566   1303           04707         bcf     STATUS, RP1                                 ; reg: 0x003, bit: 6
1567   0844           04708         movf    0x44, W                                     ; reg: 0x044
1568   1683           04709         bsf     STATUS, RP0                                 ; reg: 0x003, bit: 5
1569   1303           04710         bcf     STATUS, RP1                                 ; reg: 0x003, bit: 6
156A   00A2           04711         movwf   0x22                                        ; reg: 0x0a2
156B   1283           04712         bcf     STATUS, RP0                                 ; reg: 0x003, bit: 5
156C   1303           04713         bcf     STATUS, RP1                                 ; reg: 0x003, bit: 6
156D   0008           04714         return
                      04715 
156E                  04716 label_235:                                                  ; address: 0x156e
                      04717 
156E   01BE           04718         clrf    0x3e                                        ; reg: 0x03e
156F   1820           04719         btfsc   0x20, 0x0                                   ; reg: 0x020
1570   1205           04720         bcf     PORTA, RA4                                  ; reg: 0x005, bit: 4
1571   3002           04721         movlw   0x02
1572   00BD           04722         movwf   0x3d                                        ; reg: 0x03d
1573   1032           04723         bcf     0x32, 0x0                                   ; reg: 0x032
1574   3011           04724         movlw   0x11
1575   00F8           04725         movwf   (Common_RAM + 8)                            ; reg: 0x078
1576   3008           04726         movlw   0x08
1577   00B8           04727         movwf   0x38                                        ; reg: 0x038
1578   3029           04728         movlw   0x29
1579   0084           04729         movwf   FSR                                         ; reg: 0x004
157A   118A           04730         bcf     PCLATH, 0x3                                 ; reg: 0x00a
157B   120A           04731         bcf     PCLATH, 0x4                                 ; reg: 0x00a
157C   2634           04732         call    function_055
157D   118A           04733         bcf     PCLATH, 0x3                                 ; reg: 0x00a
157E   160A           04734         bsf     PCLATH, 0x4                                 ; reg: 0x00a
157F   23F9           04735         call    function_072
1580   118A           04736         bcf     PCLATH, 0x3                                 ; reg: 0x00a
1581   120A           04737         bcf     PCLATH, 0x4                                 ; reg: 0x00a
1582   3008           04738         movlw   0x08
1583   00F4           04739         movwf   (Common_RAM + 4)                            ; reg: 0x074
1584   3098           04740         movlw   0x98
1585   218E           04741         call    function_019
1586   118A           04742         bcf     PCLATH, 0x3                                 ; reg: 0x00a
1587   160A           04743         bsf     PCLATH, 0x4                                 ; reg: 0x00a
1588   1683           04744         bsf     STATUS, RP0                                 ; reg: 0x003, bit: 5
1589   1303           04745         bcf     STATUS, RP1                                 ; reg: 0x003, bit: 6
158A   082D           04746         movf    0x2d, W                                     ; reg: 0x0ad
158B   00AB           04747         movwf   0x2b                                        ; reg: 0x0ab
158C   082C           04748         movf    0x2c, W                                     ; reg: 0x0ac
158D   00AA           04749         movwf   0x2a                                        ; reg: 0x0aa
158E   1283           04750         bcf     STATUS, RP0                                 ; reg: 0x003, bit: 5
158F   1303           04751         bcf     STATUS, RP1                                 ; reg: 0x003, bit: 6
                      04752 
1590                  04753 label_236:                                                  ; address: 0x1590
                      04754 
1590   118A           04755         bcf     PCLATH, 0x3                                 ; reg: 0x00a
1591   120A           04756         bcf     PCLATH, 0x4                                 ; reg: 0x00a
1592   2313           04757         call    function_023
1593   2380           04758         call    0x0380
1594   24B3           04759         call    0x04b3
gpasm-1.5.0 #1285 (Jan 23 2020) unidds_v1_08.   27.01.2020  22:56:48        PAGE 91


LOC    OBJECT CODE    LINE  SOURCE TEXT
  VALUE

1595   24F9           04760         call    0x04f9
1596   118A           04761         bcf     PCLATH, 0x3                                 ; reg: 0x00a
1597   160A           04762         bsf     PCLATH, 0x4                                 ; reg: 0x00a
1598   23F9           04763         call    function_072
1599   1683           04764         bsf     STATUS, RP0                                 ; reg: 0x003, bit: 5
159A   1303           04765         bcf     STATUS, RP1                                 ; reg: 0x003, bit: 6
159B   082D           04766         movf    0x2d, W                                     ; reg: 0x0ad
159C   022B           04767         subwf   0x2b, W                                     ; reg: 0x0ab
159D   1D03           04768         btfss   STATUS, Z                                   ; reg: 0x003, bit: 2
159E   2DA1           04769         goto    label_237
159F   082C           04770         movf    0x2c, W                                     ; reg: 0x02c
15A0   022A           04771         subwf   0x2a, W                                     ; reg: 0x02a
                      04772 
15A1                  04773 label_237:                                                  ; address: 0x15a1
                      04774 
15A1   0000           04775         nop
15A2   1283           04776         bcf     STATUS, RP0                                 ; reg: 0x003, bit: 5
15A3   1303           04777         bcf     STATUS, RP1                                 ; reg: 0x003, bit: 6
15A4   1803           04778         btfsc   STATUS, C                                   ; reg: 0x003, bit: 0
15A5   2DAC           04779         goto    label_238
15A6   1683           04780         bsf     STATUS, RP0                                 ; reg: 0x003, bit: 5
15A7   1303           04781         bcf     STATUS, RP1                                 ; reg: 0x003, bit: 6
15A8   0AA9           04782         incf    0x29, F                                     ; reg: 0x0a9
15A9   1283           04783         bcf     STATUS, RP0                                 ; reg: 0x003, bit: 5
15AA   1303           04784         bcf     STATUS, RP1                                 ; reg: 0x003, bit: 6
15AB   2DB1           04785         goto    label_239
                      04786 
15AC                  04787 label_238:                                                  ; address: 0x15ac
                      04788 
15AC   1683           04789         bsf     STATUS, RP0                                 ; reg: 0x003, bit: 5
15AD   1303           04790         bcf     STATUS, RP1                                 ; reg: 0x003, bit: 6
15AE   01A9           04791         clrf    0x29                                        ; reg: 0x0a9
15AF   1283           04792         bcf     STATUS, RP0                                 ; reg: 0x003, bit: 5
15B0   1303           04793         bcf     STATUS, RP1                                 ; reg: 0x003, bit: 6
                      04794 
15B1                  04795 label_239:                                                  ; address: 0x15b1
                      04796 
15B1   1683           04797         bsf     STATUS, RP0                                 ; reg: 0x003, bit: 5
15B2   1303           04798         bcf     STATUS, RP1                                 ; reg: 0x003, bit: 6
15B3   3003           04799         movlw   0x03
15B4   0229           04800         subwf   0x29, W                                     ; reg: 0x0a9
15B5   1283           04801         bcf     STATUS, RP0                                 ; reg: 0x003, bit: 5
15B6   1303           04802         bcf     STATUS, RP1                                 ; reg: 0x003, bit: 6
15B7   1C03           04803         btfss   STATUS, C                                   ; reg: 0x003, bit: 0
15B8   2DDD           04804         goto    label_241
15B9   1820           04805         btfsc   0x20, 0x0                                   ; reg: 0x020
15BA   1605           04806         bsf     PORTA, RA4                                  ; reg: 0x005, bit: 4
15BB   3028           04807         movlw   0x28
15BC   00BA           04808         movwf   0x3a                                        ; reg: 0x03a
                      04809 
15BD                  04810 label_240:                                                  ; address: 0x15bd
                      04811 
15BD   23F9           04812         call    function_072
gpasm-1.5.0 #1285 (Jan 23 2020) unidds_v1_08.   27.01.2020  22:56:48        PAGE 92


LOC    OBJECT CODE    LINE  SOURCE TEXT
  VALUE

15BE   1683           04813         bsf     STATUS, RP0                                 ; reg: 0x003, bit: 5
15BF   1303           04814         bcf     STATUS, RP1                                 ; reg: 0x003, bit: 6
15C0   082D           04815         movf    0x2d, W                                     ; reg: 0x0ad
15C1   00AB           04816         movwf   0x2b                                        ; reg: 0x0ab
15C2   082C           04817         movf    0x2c, W                                     ; reg: 0x0ac
15C3   00AA           04818         movwf   0x2a                                        ; reg: 0x0aa
15C4   1283           04819         bcf     STATUS, RP0                                 ; reg: 0x003, bit: 5
15C5   1303           04820         bcf     STATUS, RP1                                 ; reg: 0x003, bit: 6
15C6   118A           04821         bcf     PCLATH, 0x3                                 ; reg: 0x00a
15C7   120A           04822         bcf     PCLATH, 0x4                                 ; reg: 0x00a
15C8   211F           04823         call    function_008
15C9   118A           04824         bcf     PCLATH, 0x3                                 ; reg: 0x00a
15CA   160A           04825         bsf     PCLATH, 0x4                                 ; reg: 0x00a
15CB   08BE           04826         movf    0x3e, F                                     ; reg: 0x03e
15CC   1D03           04827         btfss   STATUS, Z                                   ; reg: 0x003, bit: 2
15CD   2E02           04828         goto    label_245
15CE   1F06           04829         btfss   PORTB, RB6                                  ; reg: 0x006, bit: 6
15CF   2E02           04830         goto    label_245
15D0   1F86           04831         btfss   PORTB, RB7                                  ; reg: 0x006, bit: 7
15D1   2E02           04832         goto    label_245
15D2   1E86           04833         btfss   PORTB, RB5                                  ; reg: 0x006, bit: 5
15D3   2E02           04834         goto    label_245
15D4   0BBA           04835         decfsz  0x3a, F                                     ; reg: 0x03a
15D5   2DBD           04836         goto    label_240
15D6   1683           04837         bsf     STATUS, RP0                                 ; reg: 0x003, bit: 5
15D7   1303           04838         bcf     STATUS, RP1                                 ; reg: 0x003, bit: 6
15D8   01A9           04839         clrf    0x29                                        ; reg: 0x0a9
15D9   1283           04840         bcf     STATUS, RP0                                 ; reg: 0x003, bit: 5
15DA   1303           04841         bcf     STATUS, RP1                                 ; reg: 0x003, bit: 6
15DB   1820           04842         btfsc   0x20, 0x0                                   ; reg: 0x020
15DC   1205           04843         bcf     PORTA, RA4                                  ; reg: 0x005, bit: 4
                      04844 
15DD                  04845 label_241:                                                  ; address: 0x15dd
                      04846 
15DD   1683           04847         bsf     STATUS, RP0                                 ; reg: 0x003, bit: 5
15DE   1303           04848         bcf     STATUS, RP1                                 ; reg: 0x003, bit: 6
15DF   082D           04849         movf    0x2d, W                                     ; reg: 0x0ad
15E0   00AB           04850         movwf   0x2b                                        ; reg: 0x0ab
15E1   082C           04851         movf    0x2c, W                                     ; reg: 0x0ac
15E2   00AA           04852         movwf   0x2a                                        ; reg: 0x0aa
15E3   1283           04853         bcf     STATUS, RP0                                 ; reg: 0x003, bit: 5
15E4   1303           04854         bcf     STATUS, RP1                                 ; reg: 0x003, bit: 6
15E5   08BE           04855         movf    0x3e, F                                     ; reg: 0x03e
15E6   1D03           04856         btfss   STATUS, Z                                   ; reg: 0x003, bit: 2
15E7   2E02           04857         goto    label_245
15E8   1F06           04858         btfss   PORTB, RB6                                  ; reg: 0x006, bit: 6
15E9   2E02           04859         goto    label_245
15EA   1F86           04860         btfss   PORTB, RB7                                  ; reg: 0x006, bit: 7
15EB   2E02           04861         goto    label_245
15EC   1E86           04862         btfss   PORTB, RB5                                  ; reg: 0x006, bit: 5
15ED   2E02           04863         goto    label_245
15EE   0830           04864         movf    0x30, W                                     ; reg: 0x030
15EF   022C           04865         subwf   0x2c, W                                     ; reg: 0x02c
gpasm-1.5.0 #1285 (Jan 23 2020) unidds_v1_08.   27.01.2020  22:56:48        PAGE 93


LOC    OBJECT CODE    LINE  SOURCE TEXT
  VALUE

15F0   1D03           04866         btfss   STATUS, Z                                   ; reg: 0x003, bit: 2
15F1   2DFE           04867         goto    label_244
15F2   082F           04868         movf    0x2f, W                                     ; reg: 0x02f
15F3   022B           04869         subwf   0x2b, W                                     ; reg: 0x02b
15F4   1D03           04870         btfss   STATUS, Z                                   ; reg: 0x003, bit: 2
15F5   2DFD           04871         goto    label_243
15F6   082E           04872         movf    0x2e, W                                     ; reg: 0x02e
15F7   022A           04873         subwf   0x2a, W                                     ; reg: 0x02a
15F8   1D03           04874         btfss   STATUS, Z                                   ; reg: 0x003, bit: 2
15F9   2DFC           04875         goto    label_242
15FA   082D           04876         movf    0x2d, W                                     ; reg: 0x02d
15FB   0229           04877         subwf   0x29, W                                     ; reg: 0x029
                      04878 
15FC                  04879 label_242:                                                  ; address: 0x15fc
                      04880 
15FC   0000           04881         nop
                      04882 
15FD                  04883 label_243:                                                  ; address: 0x15fd
                      04884 
15FD   0000           04885         nop
                      04886 
15FE                  04887 label_244:                                                  ; address: 0x15fe
                      04888 
15FE   0000           04889         nop
15FF   1C03           04890         btfss   STATUS, C                                   ; reg: 0x003, bit: 0
1600   2D90           04891         goto    label_236
1601   2D6E           04892         goto    label_235
                      04893 
1602                  04894 label_245:                                                  ; address: 0x1602
                      04895 
1602   1820           04896         btfsc   0x20, 0x0                                   ; reg: 0x020
1603   1605           04897         bsf     PORTA, RA4                                  ; reg: 0x005, bit: 4
1604   118A           04898         bcf     PCLATH, 0x3                                 ; reg: 0x00a
1605   120A           04899         bcf     PCLATH, 0x4                                 ; reg: 0x00a
1606   3008           04900         movlw   0x08
1607   00F4           04901         movwf   (Common_RAM + 4)                            ; reg: 0x074
1608   30A2           04902         movlw   0xa2
1609   218E           04903         call    function_019
160A   118A           04904         bcf     PCLATH, 0x3                                 ; reg: 0x00a
160B   160A           04905         bsf     PCLATH, 0x4                                 ; reg: 0x00a
                      04906 
160C                  04907 label_246:                                                  ; address: 0x160c
                      04908 
160C   1F06           04909         btfss   PORTB, RB6                                  ; reg: 0x006, bit: 6
160D   2E0C           04910         goto    label_246
160E   1F86           04911         btfss   PORTB, RB7                                  ; reg: 0x006, bit: 7
160F   2E0C           04912         goto    label_246
1610   1E86           04913         btfss   PORTB, RB5                                  ; reg: 0x006, bit: 5
1611   2E0C           04914         goto    label_246
1612   1820           04915         btfsc   0x20, 0x0                                   ; reg: 0x020
1613   1205           04916         bcf     PORTA, RA4                                  ; reg: 0x005, bit: 4
1614   01BE           04917         clrf    0x3e                                        ; reg: 0x03e
1615   0008           04918         return
gpasm-1.5.0 #1285 (Jan 23 2020) unidds_v1_08.   27.01.2020  22:56:48        PAGE 94


LOC    OBJECT CODE    LINE  SOURCE TEXT
  VALUE

                      04919 
1616                  04920 label_247:                                                  ; address: 0x1616
                      04921 
1616   01BC           04922         clrf    0x3c                                        ; reg: 0x03c
1617   01BE           04923         clrf    0x3e                                        ; reg: 0x03e
1618   118A           04924         bcf     PCLATH, 0x3                                 ; reg: 0x00a
1619   120A           04925         bcf     PCLATH, 0x4                                 ; reg: 0x00a
161A   2184           04926         call    function_017
161B   118A           04927         bcf     PCLATH, 0x3                                 ; reg: 0x00a
161C   160A           04928         bsf     PCLATH, 0x4                                 ; reg: 0x00a
                      04929 
161D                  04930 label_248:                                                  ; address: 0x161d
                      04931 
161D   118A           04932         bcf     PCLATH, 0x3                                 ; reg: 0x00a
161E   120A           04933         bcf     PCLATH, 0x4                                 ; reg: 0x00a
161F   235C           04934         call    function_025
1620   118A           04935         bcf     PCLATH, 0x3                                 ; reg: 0x00a
1621   160A           04936         bsf     PCLATH, 0x4                                 ; reg: 0x00a
1622   1803           04937         btfsc   STATUS, C                                   ; reg: 0x003, bit: 0
1623   2E1D           04938         goto    label_248
1624   083C           04939         movf    0x3c, W                                     ; reg: 0x03c
1625   2000           04940         call    function_058
                      04941 
1626                  04942 label_249:                                                  ; address: 0x1626
                      04943 
1626   083E           04944         movf    0x3e, W                                     ; reg: 0x03e
1627   1903           04945         btfsc   STATUS, Z                                   ; reg: 0x003, bit: 2
1628   2E45           04946         goto    label_252
1629   118A           04947         bcf     PCLATH, 0x3                                 ; reg: 0x00a
162A   120A           04948         bcf     PCLATH, 0x4                                 ; reg: 0x00a
162B   25E6           04949         call    function_051
162C   118A           04950         bcf     PCLATH, 0x3                                 ; reg: 0x00a
162D   160A           04951         bsf     PCLATH, 0x4                                 ; reg: 0x00a
162E   1BBE           04952         btfsc   0x3e, 0x7                                   ; reg: 0x03e
162F   2E36           04953         goto    label_250
1630   0ABC           04954         incf    0x3c, F                                     ; reg: 0x03c
1631   083C           04955         movf    0x3c, W                                     ; reg: 0x03c
1632   3A0B           04956         xorlw   0x0b
1633   1903           04957         btfsc   STATUS, Z                                   ; reg: 0x003, bit: 2
1634   01BC           04958         clrf    0x3c                                        ; reg: 0x03c
1635   2E3D           04959         goto    label_251
                      04960 
1636                  04961 label_250:                                                  ; address: 0x1636
                      04962 
1636   03BC           04963         decf    0x3c, F                                     ; reg: 0x03c
1637   083C           04964         movf    0x3c, W                                     ; reg: 0x03c
1638   3AFF           04965         xorlw   0xff
1639   1D03           04966         btfss   STATUS, Z                                   ; reg: 0x003, bit: 2
163A   2E3D           04967         goto    label_251
163B   300A           04968         movlw   0x0a
163C   00BC           04969         movwf   0x3c                                        ; reg: 0x03c
                      04970 
163D                  04971 label_251:                                                  ; address: 0x163d
gpasm-1.5.0 #1285 (Jan 23 2020) unidds_v1_08.   27.01.2020  22:56:48        PAGE 95


LOC    OBJECT CODE    LINE  SOURCE TEXT
  VALUE

                      04972 
163D   118A           04973         bcf     PCLATH, 0x3                                 ; reg: 0x00a
163E   120A           04974         bcf     PCLATH, 0x4                                 ; reg: 0x00a
163F   2184           04975         call    function_017
1640   118A           04976         bcf     PCLATH, 0x3                                 ; reg: 0x00a
1641   160A           04977         bsf     PCLATH, 0x4                                 ; reg: 0x00a
1642   083C           04978         movf    0x3c, W                                     ; reg: 0x03c
1643   2000           04979         call    function_058
1644   01BE           04980         clrf    0x3e                                        ; reg: 0x03e
                      04981 
1645                  04982 label_252:                                                  ; address: 0x1645
                      04983 
1645   118A           04984         bcf     PCLATH, 0x3                                 ; reg: 0x00a
1646   120A           04985         bcf     PCLATH, 0x4                                 ; reg: 0x00a
1647   235C           04986         call    function_025
1648   118A           04987         bcf     PCLATH, 0x3                                 ; reg: 0x00a
1649   160A           04988         bsf     PCLATH, 0x4                                 ; reg: 0x00a
164A   1C03           04989         btfss   STATUS, C                                   ; reg: 0x003, bit: 0
164B   2E26           04990         goto    label_249
                      04991 
164C                  04992 label_253:                                                  ; address: 0x164c
                      04993 
164C   118A           04994         bcf     PCLATH, 0x3                                 ; reg: 0x00a
164D   120A           04995         bcf     PCLATH, 0x4                                 ; reg: 0x00a
164E   235C           04996         call    function_025
164F   118A           04997         bcf     PCLATH, 0x3                                 ; reg: 0x00a
1650   160A           04998         bsf     PCLATH, 0x4                                 ; reg: 0x00a
1651   1803           04999         btfsc   STATUS, C                                   ; reg: 0x003, bit: 0
1652   2E4C           05000         goto    label_253
1653   083C           05001         movf    0x3c, W                                     ; reg: 0x03c
1654   2025           05002         call    function_061
1655   2E16           05003         goto    label_247
                      05004 
1656                  05005 function_076:                                               ; address: 0x1656
                      05006 
1656   0841           05007         movf    0x41, W                                     ; reg: 0x041
1657   00D0           05008         movwf   0x50                                        ; reg: 0x050
1658   0840           05009         movf    0x40, W                                     ; reg: 0x040
1659   00CF           05010         movwf   0x4f                                        ; reg: 0x04f
165A   0842           05011         movf    0x42, W                                     ; reg: 0x042
165B   00D1           05012         movwf   0x51                                        ; reg: 0x051
165C   0843           05013         movf    0x43, W                                     ; reg: 0x043
165D   00D2           05014         movwf   0x52                                        ; reg: 0x052
165E   3020           05015         movlw   0x20
165F   00B8           05016         movwf   0x38                                        ; reg: 0x038
1660   01C0           05017         clrf    0x40                                        ; reg: 0x040
1661   01C1           05018         clrf    0x41                                        ; reg: 0x041
1662   01C2           05019         clrf    0x42                                        ; reg: 0x042
1663   01C3           05020         clrf    0x43                                        ; reg: 0x043
                      05021 
1664                  05022 label_254:                                                  ; address: 0x1664
                      05023 
1664   3040           05024         movlw   0x40
gpasm-1.5.0 #1285 (Jan 23 2020) unidds_v1_08.   27.01.2020  22:56:48        PAGE 96


LOC    OBJECT CODE    LINE  SOURCE TEXT
  VALUE

1665   0084           05025         movwf   FSR                                         ; reg: 0x004
1666   3004           05026         movlw   0x04
1667   00B9           05027         movwf   0x39                                        ; reg: 0x039
                      05028 
1668                  05029 label_255:                                                  ; address: 0x1668
                      05030 
1668   0800           05031         movf    INDF, W                                     ; reg: 0x000
1669   390F           05032         andlw   0x0f
166A   00C4           05033         movwf   0x44                                        ; reg: 0x044
166B   3005           05034         movlw   0x05
166C   0244           05035         subwf   0x44, W                                     ; reg: 0x044
166D   1C03           05036         btfss   STATUS, C                                   ; reg: 0x003, bit: 0
166E   2E71           05037         goto    label_256
166F   3003           05038         movlw   0x03
1670   0780           05039         addwf   INDF, F                                     ; reg: 0x000
                      05040 
1671                  05041 label_256:                                                  ; address: 0x1671
                      05042 
1671   0800           05043         movf    INDF, W                                     ; reg: 0x000
1672   39F0           05044         andlw   0xf0
1673   00C4           05045         movwf   0x44                                        ; reg: 0x044
1674   3050           05046         movlw   0x50
1675   0244           05047         subwf   0x44, W                                     ; reg: 0x044
1676   1C03           05048         btfss   STATUS, C                                   ; reg: 0x003, bit: 0
1677   2E7A           05049         goto    label_257
1678   3030           05050         movlw   0x30
1679   0780           05051         addwf   INDF, F                                     ; reg: 0x000
                      05052 
167A                  05053 label_257:                                                  ; address: 0x167a
                      05054 
167A   0A84           05055         incf    FSR, F                                      ; reg: 0x004
167B   0BB9           05056         decfsz  0x39, F                                     ; reg: 0x039
167C   2E68           05057         goto    label_255
167D   1003           05058         bcf     STATUS, C                                   ; reg: 0x003, bit: 0
167E   0DCF           05059         rlf     0x4f, F                                     ; reg: 0x04f
167F   0DD0           05060         rlf     0x50, F                                     ; reg: 0x050
1680   0DD1           05061         rlf     0x51, F                                     ; reg: 0x051
1681   0DD2           05062         rlf     0x52, F                                     ; reg: 0x052
1682   0DC0           05063         rlf     0x40, F                                     ; reg: 0x040
1683   0DC1           05064         rlf     0x41, F                                     ; reg: 0x041
1684   0DC2           05065         rlf     0x42, F                                     ; reg: 0x042
1685   0DC3           05066         rlf     0x43, F                                     ; reg: 0x043
1686   0BB8           05067         decfsz  0x38, F                                     ; reg: 0x038
1687   2E64           05068         goto    label_254
1688   0008           05069         return
                      05070 
1689                  05071 function_077:                                               ; address: 0x1689
                      05072 
1689   0841           05073         movf    0x41, W                                     ; reg: 0x041
168A   00D0           05074         movwf   0x50                                        ; reg: 0x050
168B   0840           05075         movf    0x40, W                                     ; reg: 0x040
168C   00CF           05076         movwf   0x4f                                        ; reg: 0x04f
168D   0842           05077         movf    0x42, W                                     ; reg: 0x042
gpasm-1.5.0 #1285 (Jan 23 2020) unidds_v1_08.   27.01.2020  22:56:48        PAGE 97


LOC    OBJECT CODE    LINE  SOURCE TEXT
  VALUE

168E   00D1           05078         movwf   0x51                                        ; reg: 0x051
168F   0843           05079         movf    0x43, W                                     ; reg: 0x043
1690   00D2           05080         movwf   0x52                                        ; reg: 0x052
1691   01C0           05081         clrf    0x40                                        ; reg: 0x040
1692   01C1           05082         clrf    0x41                                        ; reg: 0x041
1693   01C2           05083         clrf    0x42                                        ; reg: 0x042
1694   01C3           05084         clrf    0x43                                        ; reg: 0x043
1695   3020           05085         movlw   0x20
1696   00B9           05086         movwf   0x39                                        ; reg: 0x039
                      05087 
1697                  05088 label_258:                                                  ; address: 0x1697
                      05089 
1697   1003           05090         bcf     STATUS, C                                   ; reg: 0x003, bit: 0
1698   0CD2           05091         rrf     0x52, F                                     ; reg: 0x052
1699   0CD1           05092         rrf     0x51, F                                     ; reg: 0x051
169A   0CD0           05093         rrf     0x50, F                                     ; reg: 0x050
169B   0CCF           05094         rrf     0x4f, F                                     ; reg: 0x04f
169C   0CC3           05095         rrf     0x43, F                                     ; reg: 0x043
169D   0CC2           05096         rrf     0x42, F                                     ; reg: 0x042
169E   0CC1           05097         rrf     0x41, F                                     ; reg: 0x041
169F   0CC0           05098         rrf     0x40, F                                     ; reg: 0x040
16A0   304F           05099         movlw   0x4f
16A1   0084           05100         movwf   FSR                                         ; reg: 0x004
16A2   3004           05101         movlw   0x04
16A3   00B8           05102         movwf   0x38                                        ; reg: 0x038
                      05103 
16A4                  05104 label_259:                                                  ; address: 0x16a4
                      05105 
16A4   1F80           05106         btfss   INDF, 0x7                                   ; reg: 0x000
16A5   2EA8           05107         goto    label_260
16A6   3030           05108         movlw   0x30
16A7   0280           05109         subwf   INDF, F                                     ; reg: 0x000
                      05110 
16A8                  05111 label_260:                                                  ; address: 0x16a8
                      05112 
16A8   1D80           05113         btfss   INDF, 0x3                                   ; reg: 0x000
16A9   2EAC           05114         goto    label_261
16AA   3003           05115         movlw   0x03
16AB   0280           05116         subwf   INDF, F                                     ; reg: 0x000
                      05117 
16AC                  05118 label_261:                                                  ; address: 0x16ac
                      05119 
16AC   0A84           05120         incf    FSR, F                                      ; reg: 0x004
16AD   0BB8           05121         decfsz  0x38, F                                     ; reg: 0x038
16AE   2EA4           05122         goto    label_259
16AF   0BB9           05123         decfsz  0x39, F                                     ; reg: 0x039
16B0   2E97           05124         goto    label_258
16B1   0008           05125         return
                      05126 
16B2                  05127 function_078:                                               ; address: 0x16b2
                      05128 
16B2   01B8           05129         clrf    0x38                                        ; reg: 0x038
16B3   01BF           05130         clrf    0x3f                                        ; reg: 0x03f
gpasm-1.5.0 #1285 (Jan 23 2020) unidds_v1_08.   27.01.2020  22:56:48        PAGE 98


LOC    OBJECT CODE    LINE  SOURCE TEXT
  VALUE

16B4   01C0           05131         clrf    0x40                                        ; reg: 0x040
                      05132 
16B5                  05133 label_262:                                                  ; address: 0x16b5
                      05134 
16B5   0AB8           05135         incf    0x38, F                                     ; reg: 0x038
16B6   1003           05136         bcf     STATUS, C                                   ; reg: 0x003, bit: 0
16B7   1BC4           05137         btfsc   0x44, 0x7                                   ; reg: 0x044
16B8   2EC9           05138         goto    label_265
16B9   0DC3           05139         rlf     0x43, F                                     ; reg: 0x043
16BA   0DC4           05140         rlf     0x44, F                                     ; reg: 0x044
16BB   0844           05141         movf    0x44, W                                     ; reg: 0x044
16BC   0242           05142         subwf   0x42, W                                     ; reg: 0x042
16BD   1D03           05143         btfss   STATUS, Z                                   ; reg: 0x003, bit: 2
16BE   2EC1           05144         goto    label_263
16BF   0843           05145         movf    0x43, W                                     ; reg: 0x043
16C0   0241           05146         subwf   0x41, W                                     ; reg: 0x041
                      05147 
16C1                  05148 label_263:                                                  ; address: 0x16c1
                      05149 
16C1   0000           05150         nop
16C2   1803           05151         btfsc   STATUS, C                                   ; reg: 0x003, bit: 0
16C3   2EB5           05152         goto    label_262
16C4   01BF           05153         clrf    0x3f                                        ; reg: 0x03f
16C5   01C0           05154         clrf    0x40                                        ; reg: 0x040
                      05155 
16C6                  05156 label_264:                                                  ; address: 0x16c6
                      05157 
16C6   1003           05158         bcf     STATUS, C                                   ; reg: 0x003, bit: 0
16C7   0CC4           05159         rrf     0x44, F                                     ; reg: 0x044
16C8   0CC3           05160         rrf     0x43, F                                     ; reg: 0x043
                      05161 
16C9                  05162 label_265:                                                  ; address: 0x16c9
                      05163 
16C9   0844           05164         movf    0x44, W                                     ; reg: 0x044
16CA   0242           05165         subwf   0x42, W                                     ; reg: 0x042
16CB   1D03           05166         btfss   STATUS, Z                                   ; reg: 0x003, bit: 2
16CC   2ECF           05167         goto    label_266
16CD   0843           05168         movf    0x43, W                                     ; reg: 0x043
16CE   0241           05169         subwf   0x41, W                                     ; reg: 0x041
                      05170 
16CF                  05171 label_266:                                                  ; address: 0x16cf
                      05172 
16CF   0000           05173         nop
16D0   1C03           05174         btfss   STATUS, C                                   ; reg: 0x003, bit: 0
16D1   2ED8           05175         goto    label_267
16D2   0843           05176         movf    0x43, W                                     ; reg: 0x043
16D3   02C1           05177         subwf   0x41, F                                     ; reg: 0x041
16D4   0844           05178         movf    0x44, W                                     ; reg: 0x044
16D5   1C03           05179         btfss   STATUS, C                                   ; reg: 0x003, bit: 0
16D6   0F44           05180         incfsz  0x44, W                                     ; reg: 0x044
16D7   02C2           05181         subwf   0x42, F                                     ; reg: 0x042
                      05182 
16D8                  05183 label_267:                                                  ; address: 0x16d8
gpasm-1.5.0 #1285 (Jan 23 2020) unidds_v1_08.   27.01.2020  22:56:48        PAGE 99


LOC    OBJECT CODE    LINE  SOURCE TEXT
  VALUE

                      05184 
16D8   0DBF           05185         rlf     0x3f, F                                     ; reg: 0x03f
16D9   0DC0           05186         rlf     0x40, F                                     ; reg: 0x040
16DA   0BB8           05187         decfsz  0x38, F                                     ; reg: 0x038
16DB   2EC6           05188         goto    label_264
16DC   0008           05189         return
                      05190 
16DD                  05191 function_079:                                               ; address: 0x16dd
                      05192 
16DD   01BF           05193         clrf    0x3f                                        ; reg: 0x03f
16DE   01C0           05194         clrf    0x40                                        ; reg: 0x040
16DF   3010           05195         movlw   0x10
16E0   00B8           05196         movwf   0x38                                        ; reg: 0x038
                      05197 
16E1                  05198 label_268:                                                  ; address: 0x16e1
                      05199 
16E1   3043           05200         movlw   0x43
16E2   00B3           05201         movwf   0x33                                        ; reg: 0x033
16E3   303F           05202         movlw   0x3f
16E4   00B4           05203         movwf   0x34                                        ; reg: 0x034
16E5   01C6           05204         clrf    0x46                                        ; reg: 0x046
16E6   1003           05205         bcf     STATUS, C                                   ; reg: 0x003, bit: 0
16E7   0CC2           05206         rrf     0x42, F                                     ; reg: 0x042
16E8   0CC1           05207         rrf     0x41, F                                     ; reg: 0x041
16E9   1C03           05208         btfss   STATUS, C                                   ; reg: 0x003, bit: 0
16EA   2F04           05209         goto    label_272
16EB   3002           05210         movlw   0x02
16EC   00B9           05211         movwf   0x39                                        ; reg: 0x039
                      05212 
16ED                  05213 label_269:                                                  ; address: 0x16ed
                      05214 
16ED   0833           05215         movf    0x33, W                                     ; reg: 0x033
16EE   0084           05216         movwf   FSR                                         ; reg: 0x004
16EF   0800           05217         movf    INDF, W                                     ; reg: 0x000
16F0   00C5           05218         movwf   0x45                                        ; reg: 0x045
16F1   0834           05219         movf    0x34, W                                     ; reg: 0x034
16F2   0084           05220         movwf   FSR                                         ; reg: 0x004
16F3   0846           05221         movf    0x46, W                                     ; reg: 0x046
16F4   01C6           05222         clrf    0x46                                        ; reg: 0x046
16F5   0780           05223         addwf   INDF, F                                     ; reg: 0x000
16F6   1C03           05224         btfss   STATUS, C                                   ; reg: 0x003, bit: 0
16F7   2EFA           05225         goto    label_270
16F8   3001           05226         movlw   0x01
16F9   00C6           05227         movwf   0x46                                        ; reg: 0x046
                      05228 
16FA                  05229 label_270:                                                  ; address: 0x16fa
                      05230 
16FA   0845           05231         movf    0x45, W                                     ; reg: 0x045
16FB   0780           05232         addwf   INDF, F                                     ; reg: 0x000
16FC   1C03           05233         btfss   STATUS, C                                   ; reg: 0x003, bit: 0
16FD   2F00           05234         goto    label_271
16FE   3001           05235         movlw   0x01
16FF   00C6           05236         movwf   0x46                                        ; reg: 0x046
gpasm-1.5.0 #1285 (Jan 23 2020) unidds_v1_08.   27.01.2020  22:56:48        PAGE 100


LOC    OBJECT CODE    LINE  SOURCE TEXT
  VALUE

                      05237 
1700                  05238 label_271:                                                  ; address: 0x1700
                      05239 
1700   0AB3           05240         incf    0x33, F                                     ; reg: 0x033
1701   0AB4           05241         incf    0x34, F                                     ; reg: 0x034
1702   0BB9           05242         decfsz  0x39, F                                     ; reg: 0x039
1703   2EED           05243         goto    label_269
                      05244 
1704                  05245 label_272:                                                  ; address: 0x1704
                      05246 
1704   1003           05247         bcf     STATUS, C                                   ; reg: 0x003, bit: 0
1705   0DC3           05248         rlf     0x43, F                                     ; reg: 0x043
1706   0DC4           05249         rlf     0x44, F                                     ; reg: 0x044
1707   0BB8           05250         decfsz  0x38, F                                     ; reg: 0x038
1708   2EE1           05251         goto    label_268
1709   0008           05252         return
                      05253 
170A                  05254 function_080:                                               ; address: 0x170a
                      05255 
170A   118A           05256         bcf     PCLATH, 0x3                                 ; reg: 0x00a
170B   120A           05257         bcf     PCLATH, 0x4                                 ; reg: 0x00a
170C   255F           05258         call    function_045
170D   118A           05259         bcf     PCLATH, 0x3                                 ; reg: 0x00a
170E   160A           05260         bsf     PCLATH, 0x4                                 ; reg: 0x00a
170F   1683           05261         bsf     STATUS, RP0                                 ; reg: 0x003, bit: 5
1710   1303           05262         bcf     STATUS, RP1                                 ; reg: 0x003, bit: 6
1711   082D           05263         movf    0x2d, W                                     ; reg: 0x0ad
1712   00FB           05264         movwf   0x7b                                        ; reg: 0x0fb
1713   082C           05265         movf    0x2c, W                                     ; reg: 0x0ac
1714   00FA           05266         movwf   0x7a                                        ; reg: 0x0fa
1715   1283           05267         bcf     STATUS, RP0                                 ; reg: 0x003, bit: 5
1716   1303           05268         bcf     STATUS, RP1                                 ; reg: 0x003, bit: 6
1717   087B           05269         movf    (Common_RAM + 11), W                        ; reg: 0x07b
1718   00C2           05270         movwf   0x42                                        ; reg: 0x042
1719   087A           05271         movf    (Common_RAM + 10), W                        ; reg: 0x07a
171A   00C1           05272         movwf   0x41                                        ; reg: 0x041
171B   1683           05273         bsf     STATUS, RP0                                 ; reg: 0x003, bit: 5
171C   1303           05274         bcf     STATUS, RP1                                 ; reg: 0x003, bit: 6
171D   082F           05275         movf    0x2f, W                                     ; reg: 0x0af
171E   00FB           05276         movwf   0x7b                                        ; reg: 0x0fb
171F   082E           05277         movf    0x2e, W                                     ; reg: 0x0ae
1720   00FA           05278         movwf   0x7a                                        ; reg: 0x0fa
1721   1283           05279         bcf     STATUS, RP0                                 ; reg: 0x003, bit: 5
1722   1303           05280         bcf     STATUS, RP1                                 ; reg: 0x003, bit: 6
1723   087B           05281         movf    (Common_RAM + 11), W                        ; reg: 0x07b
1724   00C4           05282         movwf   0x44                                        ; reg: 0x044
1725   087A           05283         movf    (Common_RAM + 10), W                        ; reg: 0x07a
1726   00C3           05284         movwf   0x43                                        ; reg: 0x043
1727   0844           05285         movf    0x44, W                                     ; reg: 0x044
1728   0242           05286         subwf   0x42, W                                     ; reg: 0x042
1729   1D03           05287         btfss   STATUS, Z                                   ; reg: 0x003, bit: 2
172A   2F2D           05288         goto    label_273
172B   0843           05289         movf    0x43, W                                     ; reg: 0x043
gpasm-1.5.0 #1285 (Jan 23 2020) unidds_v1_08.   27.01.2020  22:56:48        PAGE 101


LOC    OBJECT CODE    LINE  SOURCE TEXT
  VALUE

172C   0241           05290         subwf   0x41, W                                     ; reg: 0x041
                      05291 
172D                  05292 label_273:                                                  ; address: 0x172d
                      05293 
172D   0000           05294         nop
172E   1C03           05295         btfss   STATUS, C                                   ; reg: 0x003, bit: 0
172F   2F5B           05296         goto    label_276
1730   0843           05297         movf    0x43, W                                     ; reg: 0x043
1731   02C1           05298         subwf   0x41, F                                     ; reg: 0x041
1732   0844           05299         movf    0x44, W                                     ; reg: 0x044
1733   1C03           05300         btfss   STATUS, C                                   ; reg: 0x003, bit: 0
1734   0F44           05301         incfsz  0x44, W                                     ; reg: 0x044
1735   02C2           05302         subwf   0x42, F                                     ; reg: 0x042
1736   3000           05303         movlw   0x00
1737   00C4           05304         movwf   0x44                                        ; reg: 0x044
1738   300A           05305         movlw   0x0a
1739   00C3           05306         movwf   0x43                                        ; reg: 0x043
173A   26DD           05307         call    function_079
173B   0840           05308         movf    0x40, W                                     ; reg: 0x040
173C   00C2           05309         movwf   0x42                                        ; reg: 0x042
173D   083F           05310         movf    0x3f, W                                     ; reg: 0x03f
173E   00C1           05311         movwf   0x41                                        ; reg: 0x041
173F   1683           05312         bsf     STATUS, RP0                                 ; reg: 0x003, bit: 5
1740   1303           05313         bcf     STATUS, RP1                                 ; reg: 0x003, bit: 6
1741   0831           05314         movf    0x31, W                                     ; reg: 0x0b1
1742   00FB           05315         movwf   0x7b                                        ; reg: 0x0fb
1743   0830           05316         movf    0x30, W                                     ; reg: 0x0b0
1744   00FA           05317         movwf   0x7a                                        ; reg: 0x0fa
1745   1283           05318         bcf     STATUS, RP0                                 ; reg: 0x003, bit: 5
1746   1303           05319         bcf     STATUS, RP1                                 ; reg: 0x003, bit: 6
1747   087B           05320         movf    (Common_RAM + 11), W                        ; reg: 0x07b
1748   00C4           05321         movwf   0x44                                        ; reg: 0x044
1749   087A           05322         movf    (Common_RAM + 10), W                        ; reg: 0x07a
174A   00C3           05323         movwf   0x43                                        ; reg: 0x043
174B   08C4           05324         movf    0x44, F                                     ; reg: 0x044
174C   1D03           05325         btfss   STATUS, Z                                   ; reg: 0x003, bit: 2
174D   2F51           05326         goto    label_274
174E   08C3           05327         movf    0x43, F                                     ; reg: 0x043
174F   1903           05328         btfsc   STATUS, Z                                   ; reg: 0x003, bit: 2
1750   2F59           05329         goto    label_275
                      05330 
1751                  05331 label_274:                                                  ; address: 0x1751
                      05332 
1751   26B2           05333         call    function_078
1752   083F           05334         movf    0x3f, W                                     ; reg: 0x03f
1753   39F0           05335         andlw   0xf0
1754   1D03           05336         btfss   STATUS, Z                                   ; reg: 0x003, bit: 2
1755   2F59           05337         goto    label_275
1756   083F           05338         movf    0x3f, W                                     ; reg: 0x03f
1757   08C0           05339         movf    0x40, F                                     ; reg: 0x040
1758   1D03           05340         btfss   STATUS, Z                                   ; reg: 0x003, bit: 2
                      05341 
1759                  05342 label_275:                                                  ; address: 0x1759
gpasm-1.5.0 #1285 (Jan 23 2020) unidds_v1_08.   27.01.2020  22:56:48        PAGE 102


LOC    OBJECT CODE    LINE  SOURCE TEXT
  VALUE

                      05343 
1759   300F           05344         movlw   0x0f
175A   0008           05345         return
                      05346 
175B                  05347 label_276:                                                  ; address: 0x175b
                      05348 
175B   0103           05349         clrw
175C   0008           05350         return
                      05351 
                      05352         ; code
                      05353 
1800                  05354         org     0x1800
                      05355 
1800   0782           05356         addwf   PCL, F                                      ; reg: 0x002
1801   3418           05357         retlw   0x18
1802   3418           05358         retlw   0x18
1803   3418           05359         retlw   0x18
1804   3418           05360         retlw   0x18
1805   3418           05361         retlw   0x18
1806   3418           05362         retlw   0x18
1807   3418           05363         retlw   0x18
1808   3418           05364         retlw   0x18
1809   0782           05365         addwf   PCL, F                                      ; reg: 0x002
180A   3426           05366         retlw   0x26
180B   3436           05367         retlw   0x36
180C   3446           05368         retlw   0x46
180D   3456           05369         retlw   0x56
180E   3466           05370         retlw   0x66
180F   3476           05371         retlw   0x76
1810   3486           05372         retlw   0x86
1811   3496           05373         retlw   0x96
1812   0782           05374         addwf   PCL, F                                      ; reg: 0x002
1813   34AE           05375         retlw   0xae
1814   34B2           05376         retlw   0xb2
1815   34B6           05377         retlw   0xb6
1816   34B6           05378         retlw   0xb6
1817   0782           05379         addwf   PCL, F                                      ; reg: 0x002
1818   3418           05380         retlw   0x18
1819   3418           05381         retlw   0x18
181A   3418           05382         retlw   0x18
181B   3418           05383         retlw   0x18
181C   0782           05384         addwf   PCL, F                                      ; reg: 0x002
181D   3418           05385         retlw   0x18
181E   3418           05386         retlw   0x18
181F   0782           05387         addwf   PCL, F                                      ; reg: 0x002
1820   34A6           05388         retlw   0xa6
1821   34AA           05389         retlw   0xaa
1822   0003           05390         dw      0x0003
1823   0000           05391         nop
1824   0050           05392         dw      0x0050                                      ; 'P'
1825   0000           05393         nop
1826   0000           05394         nop
1827   0000           05395         nop
gpasm-1.5.0 #1285 (Jan 23 2020) unidds_v1_08.   27.01.2020  22:56:48        PAGE 103


LOC    OBJECT CODE    LINE  SOURCE TEXT
  VALUE

1828   0081           05396         movwf   TMR0                                        ; reg: 0x001
1829   0001           05397         dw      0x0001
182A   0000           05398         nop
182B   0000           05399         nop
182C   0081           05400         movwf   TMR0                                        ; reg: 0x001
182D   0001           05401         dw      0x0001
182E   0000           05402         nop
182F   0000           05403         nop
1830   0081           05404         movwf   TMR0                                        ; reg: 0x001
1831   0001           05405         dw      0x0001
1832   0000           05406         nop
1833   0050           05407         dw      0x0050                                      ; 'P'
1834   0084           05408         movwf   FSR                                         ; reg: 0x004
1835   0001           05409         dw      0x0001
1836   0000           05410         nop
1837   0000           05411         nop
1838   0056           05412         dw      0x0056                                      ; 'V'
1839   0003           05413         dw      0x0003
183A   0000           05414         nop
183B   0000           05415         nop
183C   0056           05416         dw      0x0056                                      ; 'V'
183D   0003           05417         dw      0x0003
183E   0000           05418         nop
183F   0000           05419         nop
1840   0050           05420         dw      0x0050                                      ; 'P'
1841   0003           05421         dw      0x0003
1842   0000           05422         nop
1843   0000           05423         nop
1844   0057           05424         dw      0x0057                                      ; 'W'
1845   0003           05425         dw      0x0003
1846   0000           05426         nop
1847   0000           05427         nop
1848   0003           05428         dw      0x0003
1849   0007           05429         dw      0x0007
184A   0000           05430         nop
184B   0000           05431         nop
184C   0003           05432         dw      0x0003
184D   0007           05433         dw      0x0007
184E   0000           05434         nop
184F   0000           05435         nop
1850   0000           05436         nop
1851   0007           05437         dw      0x0007
1852   0000           05438         nop
1853   0050           05439         dw      0x0050                                      ; 'P'
1854   0003           05440         dw      0x0003
1855   0007           05441         dw      0x0007
1856   0000           05442         nop
1857   0000           05443         nop
1858   0011           05444         dw      0x0011
1859   0010           05445         dw      0x0010
185A   0000           05446         nop
185B   0000           05447         nop
185C   0011           05448         dw      0x0011
gpasm-1.5.0 #1285 (Jan 23 2020) unidds_v1_08.   27.01.2020  22:56:48        PAGE 104


LOC    OBJECT CODE    LINE  SOURCE TEXT
  VALUE

185D   0010           05449         dw      0x0010
185E   0000           05450         nop
185F   0000           05451         nop
1860   0010           05452         dw      0x0010
1861   0010           05453         dw      0x0010
1862   0000           05454         nop
1863   0050           05455         dw      0x0050                                      ; 'P'
1864   0012           05456         dw      0x0012
1865   0011           05457         dw      0x0011
1866   0000           05458         nop
1867   0000           05459         nop
1868   0006           05460         dw      0x0006
1869   0014           05461         dw      0x0014
186A   0000           05462         nop
186B   0000           05463         nop
186C   0006           05464         dw      0x0006
186D   0014           05465         dw      0x0014
186E   0000           05466         nop
186F   0000           05467         nop
1870   0000           05468         nop
1871   0014           05469         dw      0x0014
1872   0000           05470         nop
1873   0050           05471         dw      0x0050                                      ; 'P'
1874   0006           05472         dw      0x0006
1875   0014           05473         dw      0x0014
1876   0000           05474         nop
1877   0000           05475         nop
1878   0009           05476         retfie
1879   0018           05477         dw      0x0018
187A   0000           05478         nop
187B   0000           05479         nop
187C   0009           05480         retfie
187D   0018           05481         dw      0x0018
187E   0000           05482         nop
187F   0080           05483         movwf   INDF                                        ; reg: 0x000
1880   0006           05484         dw      0x0006
1881   0018           05485         dw      0x0018
1882   0000           05486         nop
1883   0000           05487         nop
1884   0013           05488         dw      0x0013
1885   0018           05489         dw      0x0018
1886   0000           05490         nop
1887   0000           05491         nop
1888   0006           05492         dw      0x0006
1889   0021           05493         dw      0x0021                                      ; '!'
188A   0000           05494         nop
188B   0000           05495         nop
188C   0006           05496         dw      0x0006
188D   0021           05497         dw      0x0021                                      ; '!'
188E   0000           05498         nop
188F   0000           05499         nop
1890   0000           05500         nop
1891   0021           05501         dw      0x0021                                      ; '!'
gpasm-1.5.0 #1285 (Jan 23 2020) unidds_v1_08.   27.01.2020  22:56:48        PAGE 105


LOC    OBJECT CODE    LINE  SOURCE TEXT
  VALUE

1892   0000           05502         nop
1893   0050           05503         dw      0x0050                                      ; 'P'
1894   0006           05504         dw      0x0006
1895   0021           05505         dw      0x0021                                      ; '!'
1896   0000           05506         nop
1897   0000           05507         nop
1898   0006           05508         dw      0x0006
1899   0028           05509         dw      0x0028                                      ; '('
189A   0000           05510         nop
189B   0000           05511         nop
189C   0006           05512         dw      0x0006
189D   0028           05513         dw      0x0028                                      ; '('
189E   0000           05514         nop
189F   0000           05515         nop
18A0   0000           05516         nop
18A1   0028           05517         dw      0x0028                                      ; '('
18A2   0000           05518         nop
18A3   0050           05519         dw      0x0050                                      ; 'P'
18A4   0006           05520         dw      0x0006
18A5   0028           05521         dw      0x0028                                      ; '('
18A6   0018           05522         dw      0x0018
18A7   0005           05523         dw      0x0005
18A8   003D           05524         dw      0x003d                                      ; '='
18A9   0000           05525         nop
18AA   0044           05526         dw      0x0044                                      ; 'D'
18AB   00FD           05527         movwf   (Common_RAM + 13)                           ; reg: 0x07d
18AC   004A           05528         dw      0x004a                                      ; 'J'
18AD   0000           05529         nop
18AE   00B8           05530         movwf   0x38                                        ; reg: 0x038
18AF   0063           05531         sleep
18B0   005E           05532         dw      0x005e                                      ; '^'
18B1   0005           05533         dw      0x0005
18B2   00C0           05534         movwf   0x40                                        ; reg: 0x040
18B3   004F           05535         dw      0x004f                                      ; 'O'
18B4   002F           05536         dw      0x002f                                      ; '/'
18B5   000B           05537         dw      0x000b
18B6   0071           05538         dw      0x0071                                      ; 'q'
18B7   00C7           05539         movwf   0x47                                        ; reg: 0x047
18B8   00BC           05540         movwf   0x3c                                        ; reg: 0x03c
18B9   000A           05541         dw      0x000a
                      05542 
18BA                  05543 function_081:                                               ; address: 0x18ba
                      05544 
18BA   0841           05545         movf    0x41, W                                     ; reg: 0x041
18BB   00C8           05546         movwf   0x48                                        ; reg: 0x048
18BC   0840           05547         movf    0x40, W                                     ; reg: 0x040
18BD   00C7           05548         movwf   0x47                                        ; reg: 0x047
18BE   0841           05549         movf    0x41, W                                     ; reg: 0x041
18BF   00C6           05550         movwf   0x46                                        ; reg: 0x046
18C0   0840           05551         movf    0x40, W                                     ; reg: 0x040
18C1   00C5           05552         movwf   0x45                                        ; reg: 0x045
18C2   0845           05553         movf    0x45, W                                     ; reg: 0x045
18C3   3907           05554         andlw   0x07
gpasm-1.5.0 #1285 (Jan 23 2020) unidds_v1_08.   27.01.2020  22:56:48        PAGE 106


LOC    OBJECT CODE    LINE  SOURCE TEXT
  VALUE

18C4   00C5           05555         movwf   0x45                                        ; reg: 0x045
18C5   2009           05556         call    function_059
18C6   00C0           05557         movwf   0x40                                        ; reg: 0x040
18C7   0845           05558         movf    0x45, W                                     ; reg: 0x045
18C8   2000           05559         call    0x0000
18C9   00C1           05560         movwf   0x41                                        ; reg: 0x041
18CA   3010           05561         movlw   0x10
18CB   00BF           05562         movwf   0x3f                                        ; reg: 0x03f
18CC   3009           05563         movlw   0x09
18CD   00C2           05564         movwf   0x42                                        ; reg: 0x042
18CE   210D           05565         call    0x010d
18CF   0847           05566         movf    0x47, W                                     ; reg: 0x047
18D0   00C5           05567         movwf   0x45                                        ; reg: 0x045
18D1   0CC5           05568         rrf     0x45, F                                     ; reg: 0x045
18D2   0CC5           05569         rrf     0x45, F                                     ; reg: 0x045
18D3   0CC5           05570         rrf     0x45, F                                     ; reg: 0x045
18D4   0CC5           05571         rrf     0x45, F                                     ; reg: 0x045
18D5   0C45           05572         rrf     0x45, W                                     ; reg: 0x045
18D6   3903           05573         andlw   0x03
18D7   00C5           05574         movwf   0x45                                        ; reg: 0x045
18D8   2012           05575         call    0x0012
18D9   00C0           05576         movwf   0x40                                        ; reg: 0x040
18DA   0845           05577         movf    0x45, W                                     ; reg: 0x045
18DB   2017           05578         call    0x0017
18DC   00C1           05579         movwf   0x41                                        ; reg: 0x041
18DD   3004           05580         movlw   0x04
18DE   00BF           05581         movwf   0x3f                                        ; reg: 0x03f
18DF   3001           05582         movlw   0x01
18E0   00C2           05583         movwf   0x42                                        ; reg: 0x042
18E1   210D           05584         call    0x010d
18E2   0847           05585         movf    0x47, W                                     ; reg: 0x047
18E3   00C5           05586         movwf   0x45                                        ; reg: 0x045
18E4   0DC5           05587         rlf     0x45, F                                     ; reg: 0x045
18E5   0D45           05588         rlf     0x45, W                                     ; reg: 0x045
18E6   3901           05589         andlw   0x01
18E7   00C5           05590         movwf   0x45                                        ; reg: 0x045
18E8   201F           05591         call    0x001f
18E9   00C0           05592         movwf   0x40                                        ; reg: 0x040
18EA   0845           05593         movf    0x45, W                                     ; reg: 0x045
18EB   201C           05594         call    0x001c
18EC   00C1           05595         movwf   0x41                                        ; reg: 0x041
18ED   3004           05596         movlw   0x04
18EE   00BF           05597         movwf   0x3f                                        ; reg: 0x03f
18EF   3005           05598         movlw   0x05
18F0   00C2           05599         movwf   0x42                                        ; reg: 0x042
18F1   210D           05600         call    0x010d
18F2   3003           05601         movlw   0x03
18F3   00BF           05602         movwf   0x3f                                        ; reg: 0x03f
18F4   19C7           05603         btfsc   0x47, 0x3                                   ; reg: 0x047
18F5   163F           05604         bsf     0x3f, 0x4                                   ; reg: 0x03f
18F6   1A47           05605         btfsc   0x47, 0x4                                   ; reg: 0x047
18F7   16BF           05606         bsf     0x3f, 0x5                                   ; reg: 0x03f
18F8   00F9           05607         movwf   (Common_RAM + 9)                            ; reg: 0x079
gpasm-1.5.0 #1285 (Jan 23 2020) unidds_v1_08.   27.01.2020  22:56:48        PAGE 107


LOC    OBJECT CODE    LINE  SOURCE TEXT
  VALUE

18F9   01F8           05608         clrf    (Common_RAM + 8)                            ; reg: 0x078
18FA   118A           05609         bcf     PCLATH, 0x3                                 ; reg: 0x00a
18FB   120A           05610         bcf     PCLATH, 0x4                                 ; reg: 0x00a
18FC   25E9           05611         call    function_052
18FD   3019           05612         movlw   0x19
18FE   00F8           05613         movwf   (Common_RAM + 8)                            ; reg: 0x078
18FF   3003           05614         movlw   0x03
1900   00F9           05615         movwf   (Common_RAM + 9)                            ; reg: 0x079
1901   25E9           05616         call    0x05e9
1902   0AF8           05617         incf    (Common_RAM + 8), F                         ; reg: 0x078
1903   01F9           05618         clrf    (Common_RAM + 9)                            ; reg: 0x079
1904   25E9           05619         call    0x05e9
1905   0AF8           05620         incf    (Common_RAM + 8), F                         ; reg: 0x078
1906   3050           05621         movlw   0x50
1907   00F9           05622         movwf   (Common_RAM + 9)                            ; reg: 0x079
1908   25E9           05623         call    0x05e9
1909   0AF8           05624         incf    (Common_RAM + 8), F                         ; reg: 0x078
190A   01F9           05625         clrf    (Common_RAM + 9)                            ; reg: 0x079
190B   25E9           05626         call    0x05e9
190C   2800           05627         goto    0x0000
190D   0842           05628         movf    0x42, W                                     ; reg: 0x042
190E   00F8           05629         movwf   (Common_RAM + 8)                            ; reg: 0x078
190F   0840           05630         movf    0x40, W                                     ; reg: 0x040
1910   1283           05631         bcf     STATUS, RP0                                 ; reg: 0x003, bit: 5
1911   1703           05632         bsf     STATUS, RP1                                 ; reg: 0x003, bit: 6
1912   008D           05633         movwf   EEADR                                       ; reg: 0x10d
1913   1283           05634         bcf     STATUS, RP0                                 ; reg: 0x003, bit: 5
1914   1303           05635         bcf     STATUS, RP1                                 ; reg: 0x003, bit: 6
1915   0841           05636         movf    0x41, W                                     ; reg: 0x041
1916   1283           05637         bcf     STATUS, RP0                                 ; reg: 0x003, bit: 5
1917   1703           05638         bsf     STATUS, RP1                                 ; reg: 0x003, bit: 6
1918   008F           05639         movwf   EEADRH                                      ; reg: 0x10f
                      05640 
1919                  05641 label_277:                                                  ; address: 0x1919
                      05642 
1919   1683           05643         bsf     STATUS, RP0                                 ; reg: 0x003, bit: 5
191A   1703           05644         bsf     STATUS, RP1                                 ; reg: 0x003, bit: 6
191B   178C           05645         bsf     EECON1, EEPGD                               ; reg: 0x18c, bit: 7
191C   138B           05646         bcf     INTCON, GIE                                 ; reg: 0x00b, bit: 7
191D   1B8B           05647         btfsc   INTCON, GIE                                 ; reg: 0x00b, bit: 7
191E   2919           05648         goto    0x0119
191F   140C           05649         bsf     EECON1, RD                                  ; reg: 0x18c, bit: 0
1920   0000           05650         nop
1921   0000           05651         nop
1922   178B           05652         bsf     INTCON, GIE                                 ; reg: 0x00b, bit: 7
1923   1283           05653         bcf     STATUS, RP0                                 ; reg: 0x003, bit: 5
1924   1703           05654         bsf     STATUS, RP1                                 ; reg: 0x003, bit: 6
1925   080C           05655         movf    EEDATA, W                                   ; reg: 0x10c
1926   1283           05656         bcf     STATUS, RP0                                 ; reg: 0x003, bit: 5
1927   1303           05657         bcf     STATUS, RP1                                 ; reg: 0x003, bit: 6
1928   00F9           05658         movwf   (Common_RAM + 9)                            ; reg: 0x079
1929   1283           05659         bcf     STATUS, RP0                                 ; reg: 0x003, bit: 5
192A   1303           05660         bcf     STATUS, RP1                                 ; reg: 0x003, bit: 6
gpasm-1.5.0 #1285 (Jan 23 2020) unidds_v1_08.   27.01.2020  22:56:48        PAGE 108


LOC    OBJECT CODE    LINE  SOURCE TEXT
  VALUE

192B   118A           05661         bcf     PCLATH, 0x3                                 ; reg: 0x00a
192C   120A           05662         bcf     PCLATH, 0x4                                 ; reg: 0x00a
192D   25E9           05663         call    function_052
192E   158A           05664         bsf     PCLATH, 0x3                                 ; reg: 0x00a
192F   160A           05665         bsf     PCLATH, 0x4                                 ; reg: 0x00a
1930   1283           05666         bcf     STATUS, RP0                                 ; reg: 0x003, bit: 5
1931   1303           05667         bcf     STATUS, RP1                                 ; reg: 0x003, bit: 6
1932   0AF8           05668         incf    (Common_RAM + 8), F                         ; reg: 0x078
1933   1283           05669         bcf     STATUS, RP0                                 ; reg: 0x003, bit: 5
1934   1303           05670         bcf     STATUS, RP1                                 ; reg: 0x003, bit: 6
1935   0FC0           05671         incfsz  0x40, F                                     ; reg: 0x040
1936   293C           05672         goto    label_278
1937   1283           05673         bcf     STATUS, RP0                                 ; reg: 0x003, bit: 5
1938   1703           05674         bsf     STATUS, RP1                                 ; reg: 0x003, bit: 6
1939   0A8F           05675         incf    EEADRH, F                                   ; reg: 0x10f
193A   1283           05676         bcf     STATUS, RP0                                 ; reg: 0x003, bit: 5
193B   1303           05677         bcf     STATUS, RP1                                 ; reg: 0x003, bit: 6
                      05678 
193C                  05679 label_278:                                                  ; address: 0x193c
                      05680 
193C   0840           05681         movf    0x40, W                                     ; reg: 0x040
193D   1283           05682         bcf     STATUS, RP0                                 ; reg: 0x003, bit: 5
193E   1703           05683         bsf     STATUS, RP1                                 ; reg: 0x003, bit: 6
193F   008D           05684         movwf   EEADR                                       ; reg: 0x10d
1940   1283           05685         bcf     STATUS, RP0                                 ; reg: 0x003, bit: 5
1941   1303           05686         bcf     STATUS, RP1                                 ; reg: 0x003, bit: 6
1942   0BBF           05687         decfsz  0x3f, F                                     ; reg: 0x03f
1943   2919           05688         goto    label_277
1944   0008           05689         return
                      05690 
1945                  05691 label_279:                                                  ; address: 0x1945
                      05692 
1945   118A           05693         bcf     PCLATH, 0x3                                 ; reg: 0x00a
1946   120A           05694         bcf     PCLATH, 0x4                                 ; reg: 0x00a
1947   3008           05695         movlw   0x08
1948   00F4           05696         movwf   (Common_RAM + 4)                            ; reg: 0x074
1949   30BE           05697         movlw   0xbe
194A   218E           05698         call    function_019
194B   158A           05699         bsf     PCLATH, 0x3                                 ; reg: 0x00a
194C   160A           05700         bsf     PCLATH, 0x4                                 ; reg: 0x00a
                      05701 
194D                  05702 label_280:                                                  ; address: 0x194d
                      05703 
194D   118A           05704         bcf     PCLATH, 0x3                                 ; reg: 0x00a
194E   120A           05705         bcf     PCLATH, 0x4                                 ; reg: 0x00a
194F   235C           05706         call    function_025
1950   158A           05707         bsf     PCLATH, 0x3                                 ; reg: 0x00a
1951   160A           05708         bsf     PCLATH, 0x4                                 ; reg: 0x00a
1952   1803           05709         btfsc   STATUS, C                                   ; reg: 0x003, bit: 0
1953   294D           05710         goto    label_280
                      05711 
1954                  05712 label_281:                                                  ; address: 0x1954
                      05713 
gpasm-1.5.0 #1285 (Jan 23 2020) unidds_v1_08.   27.01.2020  22:56:48        PAGE 109


LOC    OBJECT CODE    LINE  SOURCE TEXT
  VALUE

1954   118A           05714         bcf     PCLATH, 0x3                                 ; reg: 0x00a
1955   120A           05715         bcf     PCLATH, 0x4                                 ; reg: 0x00a
1956   255F           05716         call    function_045
1957   158A           05717         bsf     PCLATH, 0x3                                 ; reg: 0x00a
1958   160A           05718         bsf     PCLATH, 0x4                                 ; reg: 0x00a
1959   1683           05719         bsf     STATUS, RP0                                 ; reg: 0x003, bit: 5
195A   1303           05720         bcf     STATUS, RP1                                 ; reg: 0x003, bit: 6
195B   082D           05721         movf    0x2d, W                                     ; reg: 0x0ad
                      05722 
195C                  05723 label_282:                                                  ; address: 0x195c
                      05724 
195C   00FB           05725         movwf   (Common_RAM + 11)                           ; reg: 0x07b
195D   082C           05726         movf    0x2c, W                                     ; reg: 0x02c
195E   00FA           05727         movwf   (Common_RAM + 10)                           ; reg: 0x07a
195F   1283           05728         bcf     STATUS, RP0                                 ; reg: 0x003, bit: 5
1960   1303           05729         bcf     STATUS, RP1                                 ; reg: 0x003, bit: 6
1961   087B           05730         movf    (Common_RAM + 11), W                        ; reg: 0x07b
1962   00C0           05731         movwf   0x40                                        ; reg: 0x040
1963   087A           05732         movf    (Common_RAM + 10), W                        ; reg: 0x07a
1964   00BF           05733         movwf   0x3f                                        ; reg: 0x03f
1965   3040           05734         movlw   0x40
1966   118A           05735         bcf     PCLATH, 0x3                                 ; reg: 0x00a
1967   120A           05736         bcf     PCLATH, 0x4                                 ; reg: 0x00a
1968   218C           05737         call    function_018
1969   158A           05738         bsf     PCLATH, 0x3                                 ; reg: 0x00a
196A   160A           05739         bsf     PCLATH, 0x4                                 ; reg: 0x00a
196B   0840           05740         movf    0x40, W                                     ; reg: 0x040
196C   118A           05741         bcf     PCLATH, 0x3                                 ; reg: 0x00a
196D   120A           05742         bcf     PCLATH, 0x4                                 ; reg: 0x00a
196E   21C3           05743         call    function_021
196F   158A           05744         bsf     PCLATH, 0x3                                 ; reg: 0x00a
1970   160A           05745         bsf     PCLATH, 0x4                                 ; reg: 0x00a
1971   083F           05746         movf    0x3f, W                                     ; reg: 0x03f
1972   118A           05747         bcf     PCLATH, 0x3                                 ; reg: 0x00a
1973   120A           05748         bcf     PCLATH, 0x4                                 ; reg: 0x00a
1974   21C3           05749         call    function_021
1975   158A           05750         bsf     PCLATH, 0x3                                 ; reg: 0x00a
1976   160A           05751         bsf     PCLATH, 0x4                                 ; reg: 0x00a
1977   118A           05752         bcf     PCLATH, 0x3                                 ; reg: 0x00a
1978   120A           05753         bcf     PCLATH, 0x4                                 ; reg: 0x00a
1979   235C           05754         call    function_025
197A   158A           05755         bsf     PCLATH, 0x3                                 ; reg: 0x00a
197B   160A           05756         bsf     PCLATH, 0x4                                 ; reg: 0x00a
197C   1C03           05757         btfss   STATUS, C                                   ; reg: 0x003, bit: 0
197D   2954           05758         goto    label_281
197E   1683           05759         bsf     STATUS, RP0                                 ; reg: 0x003, bit: 5
197F   1303           05760         bcf     STATUS, RP1                                 ; reg: 0x003, bit: 6
1980   082D           05761         movf    0x2d, W                                     ; reg: 0x0ad
1981   00FB           05762         movwf   0x7b                                        ; reg: 0x0fb
1982   082C           05763         movf    0x2c, W                                     ; reg: 0x0ac
1983   00FA           05764         movwf   0x7a                                        ; reg: 0x0fa
1984   082D           05765         movf    0x2d, W                                     ; reg: 0x0ad
1985   00AF           05766         movwf   0x2f                                        ; reg: 0x0af
gpasm-1.5.0 #1285 (Jan 23 2020) unidds_v1_08.   27.01.2020  22:56:48        PAGE 110


LOC    OBJECT CODE    LINE  SOURCE TEXT
  VALUE

1986   082C           05767         movf    0x2c, W                                     ; reg: 0x0ac
1987   00AE           05768         movwf   0x2e                                        ; reg: 0x0ae
1988   1283           05769         bcf     STATUS, RP0                                 ; reg: 0x003, bit: 5
1989   1303           05770         bcf     STATUS, RP1                                 ; reg: 0x003, bit: 6
198A   3002           05771         movlw   0x02
198B   00B8           05772         movwf   0x38                                        ; reg: 0x038
198C   307A           05773         movlw   0x7a
198D   0084           05774         movwf   FSR                                         ; reg: 0x004
198E   3019           05775         movlw   0x19
198F   00F8           05776         movwf   (Common_RAM + 8)                            ; reg: 0x078
1990   118A           05777         bcf     PCLATH, 0x3                                 ; reg: 0x00a
1991   120A           05778         bcf     PCLATH, 0x4                                 ; reg: 0x00a
1992   263B           05779         call    function_056
1993   158A           05780         bsf     PCLATH, 0x3                                 ; reg: 0x00a
1994   160A           05781         bsf     PCLATH, 0x4                                 ; reg: 0x00a
1995   118A           05782         bcf     PCLATH, 0x3                                 ; reg: 0x00a
1996   120A           05783         bcf     PCLATH, 0x4                                 ; reg: 0x00a
1997   3008           05784         movlw   0x08
1998   00F4           05785         movwf   (Common_RAM + 4)                            ; reg: 0x074
1999   30D0           05786         movlw   0xd0
199A   218E           05787         call    function_019
199B   158A           05788         bsf     PCLATH, 0x3                                 ; reg: 0x00a
199C   160A           05789         bsf     PCLATH, 0x4                                 ; reg: 0x00a
                      05790 
199D                  05791 label_283:                                                  ; address: 0x199d
                      05792 
199D   118A           05793         bcf     PCLATH, 0x3                                 ; reg: 0x00a
199E   120A           05794         bcf     PCLATH, 0x4                                 ; reg: 0x00a
199F   235C           05795         call    function_025
19A0   158A           05796         bsf     PCLATH, 0x3                                 ; reg: 0x00a
19A1   160A           05797         bsf     PCLATH, 0x4                                 ; reg: 0x00a
19A2   1803           05798         btfsc   STATUS, C                                   ; reg: 0x003, bit: 0
19A3   299D           05799         goto    label_283
                      05800 
19A4                  05801 label_284:                                                  ; address: 0x19a4
                      05802 
19A4   118A           05803         bcf     PCLATH, 0x3                                 ; reg: 0x00a
19A5   120A           05804         bcf     PCLATH, 0x4                                 ; reg: 0x00a
19A6   255F           05805         call    function_045
19A7   1683           05806         bsf     STATUS, RP0                                 ; reg: 0x003, bit: 5
19A8   1303           05807         bcf     STATUS, RP1                                 ; reg: 0x003, bit: 6
19A9   082D           05808         movf    0x2d, W                                     ; reg: 0x0ad
19AA   00FB           05809         movwf   0x7b                                        ; reg: 0x0fb
19AB   082C           05810         movf    0x2c, W                                     ; reg: 0x0ac
19AC   00FA           05811         movwf   0x7a                                        ; reg: 0x0fa
19AD   1283           05812         bcf     STATUS, RP0                                 ; reg: 0x003, bit: 5
19AE   1303           05813         bcf     STATUS, RP1                                 ; reg: 0x003, bit: 6
19AF   087B           05814         movf    (Common_RAM + 11), W                        ; reg: 0x07b
19B0   00C0           05815         movwf   0x40                                        ; reg: 0x040
19B1   087A           05816         movf    (Common_RAM + 10), W                        ; reg: 0x07a
19B2   00BF           05817         movwf   0x3f                                        ; reg: 0x03f
19B3   3040           05818         movlw   0x40
19B4   218C           05819         call    0x018c
gpasm-1.5.0 #1285 (Jan 23 2020) unidds_v1_08.   27.01.2020  22:56:48        PAGE 111


LOC    OBJECT CODE    LINE  SOURCE TEXT
  VALUE

19B5   0840           05820         movf    0x40, W                                     ; reg: 0x040
19B6   21C3           05821         call    0x01c3
19B7   083F           05822         movf    0x3f, W                                     ; reg: 0x03f
19B8   21C3           05823         call    0x01c3
19B9   235C           05824         call    0x035c
19BA   158A           05825         bsf     PCLATH, 0x3                                 ; reg: 0x00a
19BB   160A           05826         bsf     PCLATH, 0x4                                 ; reg: 0x00a
19BC   1C03           05827         btfss   STATUS, C                                   ; reg: 0x003, bit: 0
19BD   29A4           05828         goto    label_284
19BE   3040           05829         movlw   0x40
19BF   118A           05830         bcf     PCLATH, 0x3                                 ; reg: 0x00a
19C0   120A           05831         bcf     PCLATH, 0x4                                 ; reg: 0x00a
19C1   218C           05832         call    function_018
19C2   1683           05833         bsf     STATUS, RP0                                 ; reg: 0x003, bit: 5
19C3   1303           05834         bcf     STATUS, RP1                                 ; reg: 0x003, bit: 6
19C4   082D           05835         movf    0x2d, W                                     ; reg: 0x0ad
19C5   00FB           05836         movwf   0x7b                                        ; reg: 0x0fb
19C6   082C           05837         movf    0x2c, W                                     ; reg: 0x0ac
19C7   00FA           05838         movwf   0x7a                                        ; reg: 0x0fa
19C8   082F           05839         movf    0x2f, W                                     ; reg: 0x0af
19C9   00FD           05840         movwf   0x7d                                        ; reg: 0x0fd
19CA   082E           05841         movf    0x2e, W                                     ; reg: 0x0ae
19CB   00FC           05842         movwf   0x7c                                        ; reg: 0x0fc
19CC   1283           05843         bcf     STATUS, RP0                                 ; reg: 0x003, bit: 5
19CD   1303           05844         bcf     STATUS, RP1                                 ; reg: 0x003, bit: 6
19CE   087B           05845         movf    (Common_RAM + 11), W                        ; reg: 0x07b
19CF   00C2           05846         movwf   0x42                                        ; reg: 0x042
19D0   087A           05847         movf    (Common_RAM + 10), W                        ; reg: 0x07a
19D1   00C1           05848         movwf   0x41                                        ; reg: 0x041
19D2   087D           05849         movf    (Common_RAM + 13), W                        ; reg: 0x07d
19D3   00C4           05850         movwf   0x44                                        ; reg: 0x044
19D4   087C           05851         movf    (Common_RAM + 12), W                        ; reg: 0x07c
19D5   00C3           05852         movwf   0x43                                        ; reg: 0x043
19D6   0843           05853         movf    0x43, W                                     ; reg: 0x043
19D7   02C1           05854         subwf   0x41, F                                     ; reg: 0x041
19D8   0844           05855         movf    0x44, W                                     ; reg: 0x044
19D9   1C03           05856         btfss   STATUS, C                                   ; reg: 0x003, bit: 0
19DA   0F44           05857         incfsz  0x44, W                                     ; reg: 0x044
19DB   02C2           05858         subwf   0x42, F                                     ; reg: 0x042
19DC   0842           05859         movf    0x42, W                                     ; reg: 0x042
19DD   21C3           05860         call    0x01c3
19DE   0841           05861         movf    0x41, W                                     ; reg: 0x041
19DF   21C3           05862         call    0x01c3
19E0   3000           05863         movlw   0x00
19E1   00C4           05864         movwf   0x44                                        ; reg: 0x044
19E2   300A           05865         movlw   0x0a
19E3   00C3           05866         movwf   0x43                                        ; reg: 0x043
19E4   118A           05867         bcf     PCLATH, 0x3                                 ; reg: 0x00a
19E5   160A           05868         bsf     PCLATH, 0x4                                 ; reg: 0x00a
19E6   26DD           05869         call    function_079
19E7   158A           05870         bsf     PCLATH, 0x3                                 ; reg: 0x00a
19E8   160A           05871         bsf     PCLATH, 0x4                                 ; reg: 0x00a
19E9   0840           05872         movf    0x40, W                                     ; reg: 0x040
gpasm-1.5.0 #1285 (Jan 23 2020) unidds_v1_08.   27.01.2020  22:56:48        PAGE 112


LOC    OBJECT CODE    LINE  SOURCE TEXT
  VALUE

19EA   118A           05873         bcf     PCLATH, 0x3                                 ; reg: 0x00a
19EB   120A           05874         bcf     PCLATH, 0x4                                 ; reg: 0x00a
19EC   21C3           05875         call    function_021
19ED   083F           05876         movf    0x3f, W                                     ; reg: 0x03f
19EE   21C3           05877         call    0x01c3
19EF   158A           05878         bsf     PCLATH, 0x3                                 ; reg: 0x00a
19F0   160A           05879         bsf     PCLATH, 0x4                                 ; reg: 0x00a
19F1   0840           05880         movf    0x40, W                                     ; reg: 0x040
19F2   00C2           05881         movwf   0x42                                        ; reg: 0x042
19F3   083F           05882         movf    0x3f, W                                     ; reg: 0x03f
19F4   00C1           05883         movwf   0x41                                        ; reg: 0x041
19F5   3000           05884         movlw   0x00
19F6   00C4           05885         movwf   0x44                                        ; reg: 0x044
19F7   3009           05886         movlw   0x09
19F8   00C3           05887         movwf   0x43                                        ; reg: 0x043
19F9   118A           05888         bcf     PCLATH, 0x3                                 ; reg: 0x00a
19FA   160A           05889         bsf     PCLATH, 0x4                                 ; reg: 0x00a
19FB   26B2           05890         call    function_078
19FC   158A           05891         bsf     PCLATH, 0x3                                 ; reg: 0x00a
19FD   160A           05892         bsf     PCLATH, 0x4                                 ; reg: 0x00a
19FE   0840           05893         movf    0x40, W                                     ; reg: 0x040
19FF   118A           05894         bcf     PCLATH, 0x3                                 ; reg: 0x00a
1A00   120A           05895         bcf     PCLATH, 0x4                                 ; reg: 0x00a
1A01   21C3           05896         call    function_021
1A02   083F           05897         movf    0x3f, W                                     ; reg: 0x03f
1A03   21C3           05898         call    0x01c3
1A04   3002           05899         movlw   0x02
1A05   00B8           05900         movwf   0x38                                        ; reg: 0x038
1A06   303F           05901         movlw   0x3f
1A07   0084           05902         movwf   FSR                                         ; reg: 0x004
1A08   301B           05903         movlw   0x1b
1A09   00F8           05904         movwf   (Common_RAM + 8)                            ; reg: 0x078
1A0A   263B           05905         call    0x063b
1A0B   118A           05906         bcf     PCLATH, 0x3                                 ; reg: 0x00a
1A0C   160A           05907         bsf     PCLATH, 0x4                                 ; reg: 0x00a
1A0D   285E           05908         goto    label_151
1A0E   0000           05909         nop
1A0F   0000           05910         nop
                      05911 
                      05912 ;===============================================================================
                      05913 ; EEDATA area
                      05914 
                      05915         ; eeprom
                      05916 
2100                  05917         org     __EEPROM_START                              ; address: 0x2100
                      05918 
2100   FF             05919         db      0xff
2100   00             05920         db      0x00
2101   FF             05921         db      0xff
2101   00             05922         db      0x00
2102   FF             05923         db      0xff
2102   00             05924         db      0x00
2103   FF             05925         db      0xff
gpasm-1.5.0 #1285 (Jan 23 2020) unidds_v1_08.   27.01.2020  22:56:48        PAGE 113


LOC    OBJECT CODE    LINE  SOURCE TEXT
  VALUE

2103   00             05926         db      0x00
2104   FF             05927         db      0xff
2104   00             05928         db      0x00
2105   FF             05929         db      0xff
2105   00             05930         db      0x00
2106   FF             05931         db      0xff
2106   00             05932         db      0x00
2107   FF             05933         db      0xff
2107   00             05934         db      0x00
2108   FF             05935         db      0xff
2108   00             05936         db      0x00
2109   FF             05937         db      0xff
2109   00             05938         db      0x00
210A   FF             05939         db      0xff
210A   00             05940         db      0x00
210B   FF             05941         db      0xff
210B   00             05942         db      0x00
210C   FF             05943         db      0xff
210C   00             05944         db      0x00
210D   FF             05945         db      0xff
210D   00             05946         db      0x00
210E   FF             05947         db      0xff
210E   00             05948         db      0x00
210F   FF             05949         db      0xff
210F   00             05950         db      0x00
2110   FF             05951         db      0xff
2110   00             05952         db      0x00
2111   FF             05953         db      0xff
2111   00             05954         db      0x00
2112   FF             05955         db      0xff
2112   00             05956         db      0x00
2113   FF             05957         db      0xff
2113   00             05958         db      0x00
2114   FF             05959         db      0xff
2114   00             05960         db      0x00
2115   FF             05961         db      0xff
2115   00             05962         db      0x00
2116   FF             05963         db      0xff
2116   00             05964         db      0x00
2117   FF             05965         db      0xff
2117   00             05966         db      0x00
2118   FF             05967         db      0xff
2118   00             05968         db      0x00
2119   FF             05969         db      0xff
2119   00             05970         db      0x00
211A   FF             05971         db      0xff
211A   00             05972         db      0x00
211B   FF             05973         db      0xff
211B   00             05974         db      0x00
211C   FF             05975         db      0xff
211C   00             05976         db      0x00
                      05977 
                      05978         end
gpasm-1.5.0 #1285 (Jan 23 2020) unidds_v1_08.   27.01.2020  22:56:48        PAGE 114


SYMBOL TABLE
  LABEL                              TYPE        VALUE         VALUE          VALUE
                                                 (hex)         (dec)          (text)

ACKDT                             CONSTANT      00000005              5
ACKEN                             CONSTANT      00000004              4
ACKSTAT                           CONSTANT      00000006              6
ADCON0                            CONSTANT      0000001F             31
ADCON1                            CONSTANT      0000009F            159
ADCS0                             CONSTANT      00000006              6
ADCS1                             CONSTANT      00000007              7
ADDEN                             CONSTANT      00000003              3
ADFM                              CONSTANT      00000007              7
ADIE                              CONSTANT      00000006              6
ADIF                              CONSTANT      00000006              6
ADON                              CONSTANT      00000000              0
ADRESH                            CONSTANT      0000001E             30
ADRESL                            CONSTANT      0000009E            158
BCLIE                             CONSTANT      00000003              3
BCLIF                             CONSTANT      00000003              3
BF                                CONSTANT      00000000              0
BRGH                              CONSTANT      00000002              2
C                                 CONSTANT      00000000              0
CCP1CON                           CONSTANT      00000017             23
CCP1IE                            CONSTANT      00000002              2
CCP1IF                            CONSTANT      00000002              2
CCP1M0                            CONSTANT      00000000              0
CCP1M1                            CONSTANT      00000001              1
CCP1M2                            CONSTANT      00000002              2
CCP1M3                            CONSTANT      00000003              3
CCP1X                             CONSTANT      00000005              5
CCP1Y                             CONSTANT      00000004              4
CCP2CON                           CONSTANT      0000001D             29
CCP2IE                            CONSTANT      00000000              0
CCP2IF                            CONSTANT      00000000              0
CCP2M0                            CONSTANT      00000000              0
CCP2M1                            CONSTANT      00000001              1
CCP2M2                            CONSTANT      00000002              2
CCP2M3                            CONSTANT      00000003              3
CCP2X                             CONSTANT      00000005              5
CCP2Y                             CONSTANT      00000004              4
CCPR1                             CONSTANT      00000015             21
CCPR1H                            CONSTANT      00000016             22
CCPR1L                            CONSTANT      00000015             21
CCPR2                             CONSTANT      0000001B             27
CCPR2H                            CONSTANT      0000001C             28
CCPR2L                            CONSTANT      0000001B             27
CHS0                              CONSTANT      00000003              3
CHS1                              CONSTANT      00000004              4
CHS2                              CONSTANT      00000005              5
CKE                               CONSTANT      00000006              6
CKP                               CONSTANT      00000004              4
CREN                              CONSTANT      00000004              4
CSRC                              CONSTANT      00000007              7
Common_RAM                        CONSTANT      00000070            112
D                                 CONSTANT      00000005              5
gpasm-1.5.0 #1285 (Jan 23 2020) unidds_v1_08.   27.01.2020  22:56:48        PAGE 115


SYMBOL TABLE
  LABEL                              TYPE        VALUE         VALUE          VALUE
                                                 (hex)         (dec)          (text)

DATA_ADDRESS                      CONSTANT      00000005              5
DC                                CONSTANT      00000001              1
D_A                               CONSTANT      00000005              5
D_NOT_A                           CONSTANT      00000005              5
EEADR                             CONSTANT      0000010D            269
EEADRH                            CONSTANT      0000010F            271
EECON1                            CONSTANT      0000018C            396
EECON2                            CONSTANT      0000018D            397
EEDATA                            CONSTANT      0000010C            268
EEDATH                            CONSTANT      0000010E            270
EEIE                              CONSTANT      00000004              4
EEIF                              CONSTANT      00000004              4
EEPGD                             CONSTANT      00000007              7
F                                 CONSTANT      00000001              1
FERR                              CONSTANT      00000002              2
FSR                               CONSTANT      00000004              4
GCEN                              CONSTANT      00000007              7
GIE                               CONSTANT      00000007              7
GO                                CONSTANT      00000002              2
GO_DONE                           CONSTANT      00000002              2
GO_NOT_DONE                       CONSTANT      00000002              2
I2C_DATA                          CONSTANT      00000005              5
I2C_READ                          CONSTANT      00000002              2
I2C_START                         CONSTANT      00000003              3
I2C_STOP                          CONSTANT      00000004              4
INDF                              CONSTANT      00000000              0
INTCON                            CONSTANT      0000000B             11
INTE                              CONSTANT      00000004              4
INTEDG                            CONSTANT      00000006              6
INTF                              CONSTANT      00000001              1
IRP                               CONSTANT      00000007              7
NOT_A                             CONSTANT      00000005              5
NOT_ADDRESS                       CONSTANT      00000005              5
NOT_BO                            CONSTANT      00000000              0
NOT_BOR                           CONSTANT      00000000              0
NOT_DONE                          CONSTANT      00000002              2
NOT_PD                            CONSTANT      00000003              3
NOT_POR                           CONSTANT      00000001              1
NOT_RBPU                          CONSTANT      00000007              7
NOT_RC8                           CONSTANT      00000006              6
NOT_T1SYNC                        CONSTANT      00000002              2
NOT_TO                            CONSTANT      00000004              4
NOT_TX8                           CONSTANT      00000006              6
NOT_W                             CONSTANT      00000002              2
NOT_WRITE                         CONSTANT      00000002              2
OERR                              CONSTANT      00000001              1
OPTION_REG                        CONSTANT      00000081            129
P                                 CONSTANT      00000004              4
PCFG0                             CONSTANT      00000000              0
PCFG1                             CONSTANT      00000001              1
PCFG2                             CONSTANT      00000002              2
PCFG3                             CONSTANT      00000003              3
gpasm-1.5.0 #1285 (Jan 23 2020) unidds_v1_08.   27.01.2020  22:56:48        PAGE 116


SYMBOL TABLE
  LABEL                              TYPE        VALUE         VALUE          VALUE
                                                 (hex)         (dec)          (text)

PCL                               CONSTANT      00000002              2
PCLATH                            CONSTANT      0000000A             10
PCON                              CONSTANT      0000008E            142
PEIE                              CONSTANT      00000006              6
PEN                               CONSTANT      00000002              2
PIE1                              CONSTANT      0000008C            140
PIE2                              CONSTANT      0000008D            141
PIR1                              CONSTANT      0000000C             12
PIR2                              CONSTANT      0000000D             13
PORTA                             CONSTANT      00000005              5
PORTB                             CONSTANT      00000006              6
PORTC                             CONSTANT      00000007              7
PR2                               CONSTANT      00000092            146
PS0                               CONSTANT      00000000              0
PS1                               CONSTANT      00000001              1
PS2                               CONSTANT      00000002              2
PSA                               CONSTANT      00000003              3
R                                 CONSTANT      00000002              2
RA0                               CONSTANT      00000000              0
RA1                               CONSTANT      00000001              1
RA2                               CONSTANT      00000002              2
RA3                               CONSTANT      00000003              3
RA4                               CONSTANT      00000004              4
RA5                               CONSTANT      00000005              5
RB0                               CONSTANT      00000000              0
RB1                               CONSTANT      00000001              1
RB2                               CONSTANT      00000002              2
RB3                               CONSTANT      00000003              3
RB4                               CONSTANT      00000004              4
RB5                               CONSTANT      00000005              5
RB6                               CONSTANT      00000006              6
RB7                               CONSTANT      00000007              7
RBIE                              CONSTANT      00000003              3
RBIF                              CONSTANT      00000000              0
RC0                               CONSTANT      00000000              0
RC1                               CONSTANT      00000001              1
RC2                               CONSTANT      00000002              2
RC3                               CONSTANT      00000003              3
RC4                               CONSTANT      00000004              4
RC5                               CONSTANT      00000005              5
RC6                               CONSTANT      00000006              6
RC7                               CONSTANT      00000007              7
RC8_9                             CONSTANT      00000006              6
RC9                               CONSTANT      00000006              6
RCD8                              CONSTANT      00000000              0
RCEN                              CONSTANT      00000003              3
RCIE                              CONSTANT      00000005              5
RCIF                              CONSTANT      00000005              5
RCREG                             CONSTANT      0000001A             26
RCSTA                             CONSTANT      00000018             24
RD                                CONSTANT      00000000              0
READ_WRITE                        CONSTANT      00000002              2
gpasm-1.5.0 #1285 (Jan 23 2020) unidds_v1_08.   27.01.2020  22:56:48        PAGE 117


SYMBOL TABLE
  LABEL                              TYPE        VALUE         VALUE          VALUE
                                                 (hex)         (dec)          (text)

RP0                               CONSTANT      00000005              5
RP1                               CONSTANT      00000006              6
RSEN                              CONSTANT      00000001              1
RX9                               CONSTANT      00000006              6
RX9D                              CONSTANT      00000000              0
R_NOT_W                           CONSTANT      00000002              2
R_W                               CONSTANT      00000002              2
S                                 CONSTANT      00000003              3
SEN                               CONSTANT      00000000              0
SMP                               CONSTANT      00000007              7
SPBRG                             CONSTANT      00000099            153
SPEN                              CONSTANT      00000007              7
SREN                              CONSTANT      00000005              5
SSPADD                            CONSTANT      00000093            147
SSPBUF                            CONSTANT      00000013             19
SSPCON                            CONSTANT      00000014             20
SSPCON2                           CONSTANT      00000091            145
SSPEN                             CONSTANT      00000005              5
SSPIE                             CONSTANT      00000003              3
SSPIF                             CONSTANT      00000003              3
SSPM0                             CONSTANT      00000000              0
SSPM1                             CONSTANT      00000001              1
SSPM2                             CONSTANT      00000002              2
SSPM3                             CONSTANT      00000003              3
SSPOV                             CONSTANT      00000006              6
SSPSTAT                           CONSTANT      00000094            148
STATUS                            CONSTANT      00000003              3
SYNC                              CONSTANT      00000004              4
T0CS                              CONSTANT      00000005              5
T0IE                              CONSTANT      00000005              5
T0IF                              CONSTANT      00000002              2
T0SE                              CONSTANT      00000004              4
T1CKPS0                           CONSTANT      00000004              4
T1CKPS1                           CONSTANT      00000005              5
T1CON                             CONSTANT      00000010             16
T1INSYNC                          CONSTANT      00000002              2
T1OSCEN                           CONSTANT      00000003              3
T1SYNC                            CONSTANT      00000002              2
T2CKPS0                           CONSTANT      00000000              0
T2CKPS1                           CONSTANT      00000001              1
T2CON                             CONSTANT      00000012             18
TMR0                              CONSTANT      00000001              1
TMR0IE                            CONSTANT      00000005              5
TMR0IF                            CONSTANT      00000002              2
TMR1                              CONSTANT      0000000E             14
TMR1CS                            CONSTANT      00000001              1
TMR1H                             CONSTANT      0000000F             15
TMR1IE                            CONSTANT      00000000              0
TMR1IF                            CONSTANT      00000000              0
TMR1L                             CONSTANT      0000000E             14
TMR1ON                            CONSTANT      00000000              0
TMR2                              CONSTANT      00000011             17
gpasm-1.5.0 #1285 (Jan 23 2020) unidds_v1_08.   27.01.2020  22:56:48        PAGE 118


SYMBOL TABLE
  LABEL                              TYPE        VALUE         VALUE          VALUE
                                                 (hex)         (dec)          (text)

TMR2IE                            CONSTANT      00000001              1
TMR2IF                            CONSTANT      00000001              1
TMR2ON                            CONSTANT      00000002              2
TOUTPS0                           CONSTANT      00000003              3
TOUTPS1                           CONSTANT      00000004              4
TOUTPS2                           CONSTANT      00000005              5
TOUTPS3                           CONSTANT      00000006              6
TRISA                             CONSTANT      00000085            133
TRISA0                            CONSTANT      00000000              0
TRISA1                            CONSTANT      00000001              1
TRISA2                            CONSTANT      00000002              2
TRISA3                            CONSTANT      00000003              3
TRISA4                            CONSTANT      00000004              4
TRISA5                            CONSTANT      00000005              5
TRISB                             CONSTANT      00000086            134
TRISB0                            CONSTANT      00000000              0
TRISB1                            CONSTANT      00000001              1
TRISB2                            CONSTANT      00000002              2
TRISB3                            CONSTANT      00000003              3
TRISB4                            CONSTANT      00000004              4
TRISB5                            CONSTANT      00000005              5
TRISB6                            CONSTANT      00000006              6
TRISB7                            CONSTANT      00000007              7
TRISC                             CONSTANT      00000087            135
TRISC0                            CONSTANT      00000000              0
TRISC1                            CONSTANT      00000001              1
TRISC2                            CONSTANT      00000002              2
TRISC3                            CONSTANT      00000003              3
TRISC4                            CONSTANT      00000004              4
TRISC5                            CONSTANT      00000005              5
TRISC6                            CONSTANT      00000006              6
TRISC7                            CONSTANT      00000007              7
TRMT                              CONSTANT      00000001              1
TX8_9                             CONSTANT      00000006              6
TX9                               CONSTANT      00000006              6
TX9D                              CONSTANT      00000000              0
TXD8                              CONSTANT      00000000              0
TXEN                              CONSTANT      00000005              5
TXIE                              CONSTANT      00000004              4
TXIF                              CONSTANT      00000004              4
TXREG                             CONSTANT      00000019             25
TXSTA                             CONSTANT      00000098            152
UA                                CONSTANT      00000001              1
W                                 CONSTANT      00000000              0
WCOL                              CONSTANT      00000007              7
WR                                CONSTANT      00000001              1
WREN                              CONSTANT      00000002              2
WRERR                             CONSTANT      00000003              3
Z                                 CONSTANT      00000002              2
_BODEN_OFF                        CONSTANT      00003FBF          16319
_BODEN_ON                         CONSTANT      00003FFF          16383
_BOREN_OFF                        CONSTANT      00003FBF          16319
gpasm-1.5.0 #1285 (Jan 23 2020) unidds_v1_08.   27.01.2020  22:56:48        PAGE 119


SYMBOL TABLE
  LABEL                              TYPE        VALUE         VALUE          VALUE
                                                 (hex)         (dec)          (text)

_BOREN_ON                         CONSTANT      00003FFF          16383
_CONFIG                           CONSTANT      00002007           8199
_CPD_OFF                          CONSTANT      00003FFF          16383
_CPD_ON                           CONSTANT      00003EFF          16127
_CP_ALL                           CONSTANT      00000FCF           4047
_CP_HALF                          CONSTANT      00001FDF           8159
_CP_OFF                           CONSTANT      00003FFF          16383
_CP_UPPER_256                     CONSTANT      00002FEF          12271
_DEBUG_OFF                        CONSTANT      00003FFF          16383
_DEBUG_ON                         CONSTANT      000037FF          14335
_DEVID1                           CONSTANT      00002006           8198
_FOSC_EXTRC                       CONSTANT      00003FFF          16383
_FOSC_HS                          CONSTANT      00003FFE          16382
_FOSC_LP                          CONSTANT      00003FFC          16380
_FOSC_XT                          CONSTANT      00003FFD          16381
_HS_OSC                           CONSTANT      00003FFE          16382
_IDLOC0                           CONSTANT      00002000           8192
_IDLOC1                           CONSTANT      00002001           8193
_IDLOC2                           CONSTANT      00002002           8194
_IDLOC3                           CONSTANT      00002003           8195
_LP_OSC                           CONSTANT      00003FFC          16380
_LVP_OFF                          CONSTANT      00003F7F          16255
_LVP_ON                           CONSTANT      00003FFF          16383
_PWRTE_OFF                        CONSTANT      00003FFF          16383
_PWRTE_ON                         CONSTANT      00003FF7          16375
_RC_OSC                           CONSTANT      00003FFF          16383
_WDTE_OFF                         CONSTANT      00003FFB          16379
_WDTE_ON                          CONSTANT      00003FFF          16383
_WDT_OFF                          CONSTANT      00003FFB          16379
_WDT_ON                           CONSTANT      00003FFF          16383
_WRT_ENABLE_OFF                   CONSTANT      00003DFF          15871
_WRT_ENABLE_ON                    CONSTANT      00003FFF          16383
_WRT_OFF                          CONSTANT      00003DFF          15871
_WRT_ON                           CONSTANT      00003FFF          16383
_XT_OSC                           CONSTANT      00003FFD          16381
__14_BIT                          CONSTANT      00000001              1
__16F876                          CONSTANT      00000001              1
__ACTIVE_BANK_ADDR                VARIABLE      FFFFFFFF             -1
__ACTIVE_PAGE_ADDR                VARIABLE      FFFFFFFF             -1
__ASSUMED_BANK_ADDR               VARIABLE      00000000              0
__BANK_0                          CONSTANT      00000000              0
__BANK_1                          CONSTANT      00000080            128
__BANK_2                          CONSTANT      00000100            256
__BANK_3                          CONSTANT      00000180            384
__BANK_BITS                       CONSTANT      00000180            384
__BANK_FIRST                      CONSTANT      00000000              0
__BANK_INV                        CONSTANT      FFFFFFFF             -1
__BANK_LAST                       CONSTANT      00000180            384
__BANK_MASK                       CONSTANT      0000007F            127
__BANK_SHIFT                      CONSTANT      00000007              7
__BANK_SIZE                       CONSTANT      00000080            128
__CODE_END                        CONSTANT      00001FFF           8191
gpasm-1.5.0 #1285 (Jan 23 2020) unidds_v1_08.   27.01.2020  22:56:48        PAGE 120


SYMBOL TABLE
  LABEL                              TYPE        VALUE         VALUE          VALUE
                                                 (hex)         (dec)          (text)

__CODE_START                      CONSTANT      00000000              0
__COMMON_RAM_END                  CONSTANT      0000007F            127
__COMMON_RAM_START                CONSTANT      00000070            112
__CONFIG_END                      CONSTANT      00002007           8199
__CONFIG_START                    CONSTANT      00002007           8199
__EEPROM_END                      CONSTANT      000021FF           8703
__EEPROM_START                    CONSTANT      00002100           8448
__GPUTILS_SVN_VERSION             CONSTANT      00000505           1285
__GPUTILS_VERSION_MAJOR           CONSTANT      00000001              1
__GPUTILS_VERSION_MICRO           CONSTANT      00000000              0
__GPUTILS_VERSION_MINOR           CONSTANT      00000005              5
__IDLOCS_END                      CONSTANT      00002003           8195
__IDLOCS_START                    CONSTANT      00002000           8192
__NUM_BANKS                       CONSTANT      00000004              4
__NUM_PAGES                       CONSTANT      00000004              4
__PAGE_0                          CONSTANT      00000000              0
__PAGE_1                          CONSTANT      00000800           2048
__PAGE_2                          CONSTANT      00001000           4096
__PAGE_3                          CONSTANT      00001800           6144
__PAGE_BITS                       CONSTANT      00001800           6144
__PAGE_FIRST                      CONSTANT      00000000              0
__PAGE_INV                        CONSTANT      FFFFFFFF             -1
__PAGE_LAST                       CONSTANT      00001800           6144
__PAGE_MASK                       CONSTANT      000007FF           2047
__PAGE_SHIFT                      CONSTANT      0000000B             11
__PAGE_SIZE                       CONSTANT      00000800           2048
__VECTOR_INT                      CONSTANT      00000004              4
__VECTOR_RESET                    CONSTANT      00000000              0
__WHILE_LOOP_COUNT_MAX            CONSTANT      000000FF            255
function_000                      ADDRESS       00000052             82
function_001                      ADDRESS       00000076            118
function_002                      ADDRESS       000000A1            161
function_003                      ADDRESS       000000C7            199
function_004                      ADDRESS       000000DD            221
function_005                      ADDRESS       000000E1            225
function_006                      ADDRESS       00000117            279
function_007                      ADDRESS       0000011D            285
function_008                      ADDRESS       0000011F            287
function_009                      ADDRESS       00000121            289
function_010                      ADDRESS       00000129            297
function_011                      ADDRESS       0000012A            298
function_012                      ADDRESS       00000139            313
function_013                      ADDRESS       00000150            336
function_014                      ADDRESS       0000015A            346
function_015                      ADDRESS       00000161            353
function_016                      ADDRESS       00000167            359
function_017                      ADDRESS       00000184            388
function_018                      ADDRESS       0000018C            396
function_019                      ADDRESS       0000018E            398
function_020                      ADDRESS       000001C1            449
function_021                      ADDRESS       000001C3            451
function_022                      ADDRESS       000002F1            753
gpasm-1.5.0 #1285 (Jan 23 2020) unidds_v1_08.   27.01.2020  22:56:48        PAGE 121


SYMBOL TABLE
  LABEL                              TYPE        VALUE         VALUE          VALUE
                                                 (hex)         (dec)          (text)

function_023                      ADDRESS       00000313            787
function_024                      ADDRESS       00000352            850
function_025                      ADDRESS       0000035C            860
function_026                      ADDRESS       00000375            885
function_027                      ADDRESS       0000037B            891
function_028                      ADDRESS       00000380            896
function_029                      ADDRESS       000003C3            963
function_030                      ADDRESS       00000403           1027
function_031                      ADDRESS       0000042E           1070
function_032                      ADDRESS       00000445           1093
function_033                      ADDRESS       0000045C           1116
function_034                      ADDRESS       00000497           1175
function_035                      ADDRESS       000004A1           1185
function_036                      ADDRESS       000004A6           1190
function_037                      ADDRESS       000004AA           1194
function_038                      ADDRESS       000004B3           1203
function_039                      ADDRESS       000004EE           1262
function_040                      ADDRESS       000004F9           1273
function_041                      ADDRESS       00000525           1317
function_042                      ADDRESS       0000053B           1339
function_043                      ADDRESS       00000541           1345
function_044                      ADDRESS       00000552           1362
function_045                      ADDRESS       0000055F           1375
function_046                      ADDRESS       0000056F           1391
function_047                      ADDRESS       00000573           1395
function_048                      ADDRESS       00000575           1397
function_049                      ADDRESS       00000576           1398
function_050                      ADDRESS       000005B4           1460
function_051                      ADDRESS       000005E6           1510
function_052                      ADDRESS       000005E9           1513
function_053                      ADDRESS       0000060C           1548
function_054                      ADDRESS       0000061A           1562
function_055                      ADDRESS       00000634           1588
function_056                      ADDRESS       0000063B           1595
function_057                      ADDRESS       00000800           2048
function_058                      ADDRESS       00001000           4096
function_059                      ADDRESS       00001009           4105
function_060                      ADDRESS       00001012           4114
function_061                      ADDRESS       00001025           4133
function_062                      ADDRESS       00001036           4150
function_063                      ADDRESS       00001049           4169
function_064                      ADDRESS       0000105F           4191
function_065                      ADDRESS       000010FB           4347
function_066                      ADDRESS       00001104           4356
function_067                      ADDRESS       00001184           4484
function_068                      ADDRESS       00001188           4488
function_069                      ADDRESS       00001206           4614
function_070                      ADDRESS       00001366           4966
function_071                      ADDRESS       0000136F           4975
function_072                      ADDRESS       000013F9           5113
function_073                      ADDRESS       00001435           5173
function_074                      ADDRESS       00001472           5234
gpasm-1.5.0 #1285 (Jan 23 2020) unidds_v1_08.   27.01.2020  22:56:48        PAGE 122


SYMBOL TABLE
  LABEL                              TYPE        VALUE         VALUE          VALUE
                                                 (hex)         (dec)          (text)

function_075                      ADDRESS       000014F1           5361
function_076                      ADDRESS       00001656           5718
function_077                      ADDRESS       00001689           5769
function_078                      ADDRESS       000016B2           5810
function_079                      ADDRESS       000016DD           5853
function_080                      ADDRESS       0000170A           5898
function_081                      ADDRESS       000018BA           6330
label_002                         ADDRESS       0000001C             28
label_003                         ADDRESS       0000001E             30
label_004                         ADDRESS       00000022             34
label_005                         ADDRESS       00000023             35
label_006                         ADDRESS       0000002B             43
label_007                         ADDRESS       00000030             48
label_008                         ADDRESS       00000031             49
label_009                         ADDRESS       0000003E             62
label_010                         ADDRESS       00000044             68
label_011                         ADDRESS       00000047             71
label_012                         ADDRESS       0000005B             91
label_013                         ADDRESS       000000C3            195
label_014                         ADDRESS       000000CC            204
label_015                         ADDRESS       000000D2            210
label_016                         ADDRESS       000000D7            215
label_017                         ADDRESS       000000D8            216
label_018                         ADDRESS       000000DC            220
label_019                         ADDRESS       000000E9            233
label_020                         ADDRESS       000000EF            239
label_021                         ADDRESS       000000F9            249
label_022                         ADDRESS       00000102            258
label_023                         ADDRESS       00000109            265
label_024                         ADDRESS       0000010D            269
label_025                         ADDRESS       00000127            295
label_026                         ADDRESS       0000012C            300
label_027                         ADDRESS       0000012F            303
label_028                         ADDRESS       00000131            305
label_029                         ADDRESS       00000134            308
label_030                         ADDRESS       00000136            310
label_031                         ADDRESS       00000141            321
label_032                         ADDRESS       00000156            342
label_033                         ADDRESS       0000015C            348
label_034                         ADDRESS       00000160            352
label_035                         ADDRESS       00000163            355
label_036                         ADDRESS       00000165            357
label_037                         ADDRESS       0000016A            362
label_038                         ADDRESS       0000016C            364
label_039                         ADDRESS       0000016E            366
label_040                         ADDRESS       00000170            368
label_041                         ADDRESS       00000196            406
label_042                         ADDRESS       000001A8            424
label_043                         ADDRESS       000001AB            427
label_044                         ADDRESS       000001CA            458
label_045                         ADDRESS       000001D8            472
label_046                         ADDRESS       000001EC            492
gpasm-1.5.0 #1285 (Jan 23 2020) unidds_v1_08.   27.01.2020  22:56:48        PAGE 123


SYMBOL TABLE
  LABEL                              TYPE        VALUE         VALUE          VALUE
                                                 (hex)         (dec)          (text)

label_047                         ADDRESS       000001F7            503
label_048                         ADDRESS       0000021A            538
label_049                         ADDRESS       00000226            550
label_050                         ADDRESS       0000022A            554
label_051                         ADDRESS       0000022E            558
label_052                         ADDRESS       00000231            561
label_053                         ADDRESS       00000233            563
label_054                         ADDRESS       00000239            569
label_055                         ADDRESS       00000242            578
label_056                         ADDRESS       00000253            595
label_057                         ADDRESS       00000255            597
label_058                         ADDRESS       0000025A            602
label_059                         ADDRESS       0000025C            604
label_060                         ADDRESS       0000026C            620
label_061                         ADDRESS       00000279            633
label_062                         ADDRESS       00000281            641
label_063                         ADDRESS       00000285            645
label_064                         ADDRESS       00000290            656
label_065                         ADDRESS       00000297            663
label_066                         ADDRESS       0000029E            670
label_067                         ADDRESS       000002A9            681
label_068                         ADDRESS       000002B2            690
label_069                         ADDRESS       000002D9            729
label_070                         ADDRESS       000002DD            733
label_071                         ADDRESS       000002DF            735
label_072                         ADDRESS       000002E3            739
label_073                         ADDRESS       000002E6            742
label_074                         ADDRESS       000002EF            751
label_075                         ADDRESS       000002F0            752
label_076                         ADDRESS       000002F8            760
label_077                         ADDRESS       00000300            768
label_078                         ADDRESS       00000301            769
label_079                         ADDRESS       00000306            774
label_080                         ADDRESS       0000030A            778
label_081                         ADDRESS       0000030E            782
label_082                         ADDRESS       00000319            793
label_083                         ADDRESS       0000031C            796
label_084                         ADDRESS       00000321            801
label_085                         ADDRESS       00000325            805
label_086                         ADDRESS       00000341            833
label_087                         ADDRESS       0000034B            843
label_088                         ADDRESS       0000034D            845
label_089                         ADDRESS       0000034F            847
label_090                         ADDRESS       00000351            849
label_091                         ADDRESS       00000359            857
label_092                         ADDRESS       0000035B            859
label_093                         ADDRESS       0000035D            861
label_094                         ADDRESS       0000035E            862
label_095                         ADDRESS       00000371            881
label_096                         ADDRESS       00000374            884
label_097                         ADDRESS       00000378            888
label_098                         ADDRESS       00000381            897
gpasm-1.5.0 #1285 (Jan 23 2020) unidds_v1_08.   27.01.2020  22:56:48        PAGE 124


SYMBOL TABLE
  LABEL                              TYPE        VALUE         VALUE          VALUE
                                                 (hex)         (dec)          (text)

label_099                         ADDRESS       0000038A            906
label_100                         ADDRESS       00000393            915
label_101                         ADDRESS       00000394            916
label_102                         ADDRESS       00000399            921
label_103                         ADDRESS       0000039E            926
label_104                         ADDRESS       000003A1            929
label_105                         ADDRESS       000003A3            931
label_106                         ADDRESS       000003AF            943
label_107                         ADDRESS       000003B0            944
label_108                         ADDRESS       000003B8            952
label_109                         ADDRESS       000003BA            954
label_110                         ADDRESS       000003C6            966
label_111                         ADDRESS       000003D4            980
label_112                         ADDRESS       000003D7            983
label_113                         ADDRESS       000003DC            988
label_114                         ADDRESS       000003DD            989
label_115                         ADDRESS       000003E1            993
label_116                         ADDRESS       000003E4            996
label_117                         ADDRESS       000003E6            998
label_118                         ADDRESS       000003EB           1003
label_119                         ADDRESS       000003F3           1011
label_120                         ADDRESS       000003FA           1018
label_121                         ADDRESS       00000413           1043
label_122                         ADDRESS       00000420           1056
label_123                         ADDRESS       00000424           1060
label_124                         ADDRESS       00000428           1064
label_125                         ADDRESS       00000466           1126
label_126                         ADDRESS       00000474           1140
label_127                         ADDRESS       00000481           1153
label_128                         ADDRESS       00000487           1159
label_129                         ADDRESS       0000048B           1163
label_130                         ADDRESS       00000499           1177
label_131                         ADDRESS       000004A0           1184
label_132                         ADDRESS       000004AE           1198
label_133                         ADDRESS       000004B1           1201
label_134                         ADDRESS       000004D8           1240
label_135                         ADDRESS       00000503           1283
label_136                         ADDRESS       00000555           1365
label_137                         ADDRESS       0000056E           1390
label_138                         ADDRESS       0000057A           1402
label_139                         ADDRESS       00000586           1414
label_140                         ADDRESS       0000058F           1423
label_141                         ADDRESS       0000059A           1434
label_142                         ADDRESS       000005A3           1443
label_143                         ADDRESS       000005AC           1452
label_144                         ADDRESS       000005C6           1478
label_145                         ADDRESS       000005D7           1495
label_146                         ADDRESS       000005E0           1504
label_147                         ADDRESS       000005EB           1515
label_148                         ADDRESS       000005FD           1533
label_149                         ADDRESS       00000605           1541
label_150                         ADDRESS       00000616           1558
gpasm-1.5.0 #1285 (Jan 23 2020) unidds_v1_08.   27.01.2020  22:56:48        PAGE 125


SYMBOL TABLE
  LABEL                              TYPE        VALUE         VALUE          VALUE
                                                 (hex)         (dec)          (text)

label_151                         ADDRESS       0000105E           4190
label_152                         ADDRESS       00001065           4197
label_153                         ADDRESS       0000106E           4206
label_154                         ADDRESS       0000107E           4222
label_155                         ADDRESS       00001085           4229
label_156                         ADDRESS       0000108D           4237
label_157                         ADDRESS       0000109E           4254
label_158                         ADDRESS       000010A9           4265
label_159                         ADDRESS       000010B2           4274
label_160                         ADDRESS       000010BA           4282
label_161                         ADDRESS       000010C3           4291
label_162                         ADDRESS       000010D6           4310
label_163                         ADDRESS       000010D7           4311
label_164                         ADDRESS       000010E0           4320
label_165                         ADDRESS       000010E2           4322
label_166                         ADDRESS       000010E7           4327
label_167                         ADDRESS       000010E8           4328
label_168                         ADDRESS       000010ED           4333
label_169                         ADDRESS       000010EE           4334
label_170                         ADDRESS       000010F5           4341
label_171                         ADDRESS       00001113           4371
label_172                         ADDRESS       00001114           4372
label_173                         ADDRESS       00001125           4389
label_174                         ADDRESS       00001126           4390
label_175                         ADDRESS       0000112D           4397
label_176                         ADDRESS       0000112E           4398
label_177                         ADDRESS       0000113F           4415
label_178                         ADDRESS       00001140           4416
label_179                         ADDRESS       00001147           4423
label_180                         ADDRESS       0000114F           4431
label_181                         ADDRESS       00001154           4436
label_182                         ADDRESS       0000115A           4442
label_183                         ADDRESS       0000116E           4462
label_184                         ADDRESS       0000119A           4506
label_185                         ADDRESS       000011A1           4513
label_186                         ADDRESS       000011A3           4515
label_187                         ADDRESS       000011C0           4544
label_188                         ADDRESS       000011C1           4545
label_189                         ADDRESS       000011C8           4552
label_190                         ADDRESS       000011CE           4558
label_191                         ADDRESS       000011E2           4578
label_192                         ADDRESS       000011E9           4585
label_193                         ADDRESS       000011F4           4596
label_194                         ADDRESS       000011F8           4600
label_195                         ADDRESS       00001202           4610
label_196                         ADDRESS       00001205           4613
label_197                         ADDRESS       0000120E           4622
label_198                         ADDRESS       00001255           4693
label_199                         ADDRESS       0000125F           4703
label_200                         ADDRESS       00001267           4711
label_201                         ADDRESS       000012AE           4782
label_202                         ADDRESS       000012C5           4805
gpasm-1.5.0 #1285 (Jan 23 2020) unidds_v1_08.   27.01.2020  22:56:48        PAGE 126


SYMBOL TABLE
  LABEL                              TYPE        VALUE         VALUE          VALUE
                                                 (hex)         (dec)          (text)

label_203                         ADDRESS       000012D1           4817
label_204                         ADDRESS       00001338           4920
label_205                         ADDRESS       00001354           4948
label_206                         ADDRESS       00001397           5015
label_207                         ADDRESS       00001398           5016
label_208                         ADDRESS       000013A5           5029
label_209                         ADDRESS       000013A6           5030
label_210                         ADDRESS       000013BC           5052
label_211                         ADDRESS       000013BD           5053
label_212                         ADDRESS       000013CA           5066
label_213                         ADDRESS       000013CB           5067
label_214                         ADDRESS       000013E1           5089
label_215                         ADDRESS       000013E2           5090
label_216                         ADDRESS       000013EF           5103
label_217                         ADDRESS       000013F0           5104
label_218                         ADDRESS       0000140F           5135
label_219                         ADDRESS       00001418           5144
label_220                         ADDRESS       00001434           5172
label_221                         ADDRESS       0000145A           5210
label_222                         ADDRESS       00001461           5217
label_223                         ADDRESS       00001471           5233
label_224                         ADDRESS       00001479           5241
label_225                         ADDRESS       000014D5           5333
label_226                         ADDRESS       000014E1           5345
label_227                         ADDRESS       00001511           5393
label_228                         ADDRESS       00001530           5424
label_229                         ADDRESS       00001543           5443
label_230                         ADDRESS       00001547           5447
label_231                         ADDRESS       0000154B           5451
label_232                         ADDRESS       00001555           5461
label_233                         ADDRESS       00001557           5463
label_234                         ADDRESS       0000155B           5467
label_235                         ADDRESS       0000156E           5486
label_236                         ADDRESS       00001590           5520
label_237                         ADDRESS       000015A1           5537
label_238                         ADDRESS       000015AC           5548
label_239                         ADDRESS       000015B1           5553
label_240                         ADDRESS       000015BD           5565
label_241                         ADDRESS       000015DD           5597
label_242                         ADDRESS       000015FC           5628
label_243                         ADDRESS       000015FD           5629
label_244                         ADDRESS       000015FE           5630
label_245                         ADDRESS       00001602           5634
label_246                         ADDRESS       0000160C           5644
label_247                         ADDRESS       00001616           5654
label_248                         ADDRESS       0000161D           5661
label_249                         ADDRESS       00001626           5670
label_250                         ADDRESS       00001636           5686
label_251                         ADDRESS       0000163D           5693
label_252                         ADDRESS       00001645           5701
label_253                         ADDRESS       0000164C           5708
label_254                         ADDRESS       00001664           5732
gpasm-1.5.0 #1285 (Jan 23 2020) unidds_v1_08.   27.01.2020  22:56:48        PAGE 127


SYMBOL TABLE
  LABEL                              TYPE        VALUE         VALUE          VALUE
                                                 (hex)         (dec)          (text)

label_255                         ADDRESS       00001668           5736
label_256                         ADDRESS       00001671           5745
label_257                         ADDRESS       0000167A           5754
label_258                         ADDRESS       00001697           5783
label_259                         ADDRESS       000016A4           5796
label_260                         ADDRESS       000016A8           5800
label_261                         ADDRESS       000016AC           5804
label_262                         ADDRESS       000016B5           5813
label_263                         ADDRESS       000016C1           5825
label_264                         ADDRESS       000016C6           5830
label_265                         ADDRESS       000016C9           5833
label_266                         ADDRESS       000016CF           5839
label_267                         ADDRESS       000016D8           5848
label_268                         ADDRESS       000016E1           5857
label_269                         ADDRESS       000016ED           5869
label_270                         ADDRESS       000016FA           5882
label_271                         ADDRESS       00001700           5888
label_272                         ADDRESS       00001704           5892
label_273                         ADDRESS       0000172D           5933
label_274                         ADDRESS       00001751           5969
label_275                         ADDRESS       00001759           5977
label_276                         ADDRESS       0000175B           5979
label_277                         ADDRESS       00001919           6425
label_278                         ADDRESS       0000193C           6460
label_279                         ADDRESS       00001945           6469
label_280                         ADDRESS       0000194D           6477
label_281                         ADDRESS       00001954           6484
label_282                         ADDRESS       0000195C           6492
label_283                         ADDRESS       0000199D           6557
label_284                         ADDRESS       000019A4           6564
vector_int                        ADDRESS       00000004              4
vector_reset                      ADDRESS       00000000              0


MEMORY USAGE MAP ('X' = Used,  '-' = Unused)

0000 : X---XXXXXXXXXXXX XXXXXXXXXXXXXXXX XXXXXXXXXXXXXXXX XXXXXXXXXXXXXXXX
0040 : XXXXXXXXXXXXXXXX XXXXXXXXXXXXXXXX XXXXXXXXXXXXXXXX XXXXXXXXXXXXXXXX
0080 : XXXXXXXXXXXXXXXX XXXXXXXXXXXXXXXX XXXXXXXXXXXXXXXX XXXXXXXXXXXXXXXX
00C0 : XXXXXXXXXXXXXXXX XXXXXXXXXXXXXXXX XXXXXXXXXXXXXXXX XXXXXXXXXXXXXXXX
0100 : XXXXXXXXXXXXXXXX XXXXXXXXXXXXXXXX XXXXXXXXXXXXXXXX XXXXXXXXXXXXXXXX
0140 : XXXXXXXXXXXXXXXX XXXXXXXXXXXXXXXX XXXXXXXXXXXXXXXX XXXXXXXXXXXXXXXX
0180 : XXXXXXXXXXXXXXXX XXXXXXXXXXXXXXXX XXXXXXXXXXXXXXXX XXXXXXXXXXXXXXXX
01C0 : XXXXXXXXXXXXXXXX XXXXXXXXXXXXXXXX XXXXXXXXXXXXXXXX XXXXXXXXXXXXXXXX
0200 : XXXXXXXXXXXXXXXX XXXXXXXXXXXXXXXX XXXXXXXXXXXXXXXX XXXXXXXXXXXXXXXX
0240 : XXXXXXXXXXXXXXXX XXXXXXXXXXXXXXXX XXXXXXXXXXXXXXXX XXXXXXXXXXXXXXXX
0280 : XXXXXXXXXXXXXXXX XXXXXXXXXXXXXXXX XXXXXXXXXXXXXXXX XXXXXXXXXXXXXXXX
02C0 : XXXXXXXXXXXXXXXX XXXXXXXXXXXXXXXX XXXXXXXXXXXXXXXX XXXXXXXXXXXXXXXX
0300 : XXXXXXXXXXXXXXXX XXXXXXXXXXXXXXXX XXXXXXXXXXXXXXXX XXXXXXXXXXXXXXXX
0340 : XXXXXXXXXXXXXXXX XXXXXXXXXXXXXXXX XXXXXXXXXXXXXXXX XXXXXXXXXXXXXXXX
0380 : XXXXXXXXXXXXXXXX XXXXXXXXXXXXXXXX XXXXXXXXXXXXXXXX XXXXXXXXXXXXXXXX
03C0 : XXXXXXXXXXXXXXXX XXXXXXXXXXXXXXXX XXXXXXXXXXXXXXXX XXXXXXXXXXXXXXXX
gpasm-1.5.0 #1285 (Jan 23 2020) unidds_v1_08.   27.01.2020  22:56:48        PAGE 128


MEMORY USAGE MAP ('X' = Used,  '-' = Unused)

0400 : XXXXXXXXXXXXXXXX XXXXXXXXXXXXXXXX XXXXXXXXXXXXXXXX XXXXXXXXXXXXXXXX
0440 : XXXXXXXXXXXXXXXX XXXXXXXXXXXXXXXX XXXXXXXXXXXXXXXX XXXXXXXXXXXXXXXX
0480 : XXXXXXXXXXXXXXXX XXXXXXXXXXXXXXXX XXXXXXXXXXXXXXXX XXXXXXXXXXXXXXXX
04C0 : XXXXXXXXXXXXXXXX XXXXXXXXXXXXXXXX XXXXXXXXXXXXXXXX XXXXXXXXXXXXXXXX
0500 : XXXXXXXXXXXXXXXX XXXXXXXXXXXXXXXX XXXXXXXXXXXXXXXX XXXXXXXXXXXXXXXX
0540 : XXXXXXXXXXXXXXXX XXXXXXXXXXXXXXXX XXXXXXXXXXXXXXXX XXXXXXXXXXXXXXXX
0580 : XXXXXXXXXXXXXXXX XXXXXXXXXXXXXXXX XXXXXXXXXXXXXXXX XXXXXXXXXXXXXXXX
05C0 : XXXXXXXXXXXXXXXX XXXXXXXXXXXXXXXX XXXXXXXXXXXXXXXX XXXXXXXXXXXXXXXX
0600 : XXXXXXXXXXXXXXXX XXXXXXXXXXXXXXXX XXXXXXXXXXXXXXXX XXXXXXXXXXXXXXXX
0640 : XXX------------- ---------------- ---------------- ----------------
0800 : XXXXXXXXXXXXXXXX XXXXXXXXXXXXXXXX XXXXXXXXXXXXXXXX XXXXXXXXXXXXXXXX
0840 : XXXXXXXXXXXXXXXX XXXXXXXXXXXXXXXX XXXXXXXXXXXXXXXX XXXXXXXXXXXXXXXX
0880 : XXXXXXXXXXXXXXXX XXXXXXXXXXXXXXXX XXXXXXXXXXXXXXXX XXXXXXXXXXXXXXXX
08C0 : XXXXXXXXXXXXXXXX XXXXXXXXXXXXXXXX XXXXXXXXXXXXXXXX XXXXXXXXXXXXXXXX
0900 : XXXXXXXXXXXXXXXX XXXXXXXXXXXXXXXX XXXXXXXXXXXXXXXX XXXXXXXXXXXXXXXX
0940 : XXXXXXXXXXXXXXXX XXXXXXXXXXXXXXXX XXXXXXXXXXXXXXXX XXXXXXXXXXXXXXXX
0980 : XXXXXXXXXXXXXXXX XXXXXXXXXXXXXXXX XXXXXXXXXXXXXXXX XXXXXXXXXXXXXXXX
09C0 : XXXXXXXXXXXXXXXX XXXXXXXXXXXXXXXX XXXXXXXXXXXXXXXX XXXXXXXXXXXXXXXX
0A00 : XXXXXXXXXXXXXXXX XXXXXXXXXXXXXXXX XXXXXXXXXXXXXXXX XXXXXXXXXXXXXXXX
0A40 : XXXXXXXXXXXXXXXX XXXXXXXXXXXXXXXX XXXXXXXXXXXXXXXX XXXXXXXXXXXXXXXX
0A80 : XXXXXXXXXXXXXXXX XXXXXXXXXXXXXXXX XXXXXXXXXXXXXXXX XXXXXXXXXXXXXXXX
0AC0 : XXXXXXXXXXXXXXXX XXXXXXXXXXXXXXXX XXXXXXXXXXXX---- ----------------
1000 : XXXXXXXXXXXXXXXX XXXXXXXXXXXXXXXX XXXXXXXXXXXXXXXX XXXXXXXXXXXXXXXX
1040 : XXXXXXXXXXXXXXXX XXXXXXXXXXXXXXXX XXXXXXXXXXXXXXXX XXXXXXXXXXXXXXXX
1080 : XXXXXXXXXXXXXXXX XXXXXXXXXXXXXXXX XXXXXXXXXXXXXXXX XXXXXXXXXXXXXXXX
10C0 : XXXXXXXXXXXXXXXX XXXXXXXXXXXXXXXX XXXXXXXXXXXXXXXX XXXXXXXXXXXXXXXX
1100 : XXXXXXXXXXXXXXXX XXXXXXXXXXXXXXXX XXXXXXXXXXXXXXXX XXXXXXXXXXXXXXXX
1140 : XXXXXXXXXXXXXXXX XXXXXXXXXXXXXXXX XXXXXXXXXXXXXXXX XXXXXXXXXXXXXXXX
1180 : XXXXXXXXXXXXXXXX XXXXXXXXXXXXXXXX XXXXXXXXXXXXXXXX XXXXXXXXXXXXXXXX
11C0 : XXXXXXXXXXXXXXXX XXXXXXXXXXXXXXXX XXXXXXXXXXXXXXXX XXXXXXXXXXXXXXXX
1200 : XXXXXXXXXXXXXXXX XXXXXXXXXXXXXXXX XXXXXXXXXXXXXXXX XXXXXXXXXXXXXXXX
1240 : XXXXXXXXXXXXXXXX XXXXXXXXXXXXXXXX XXXXXXXXXXXXXXXX XXXXXXXXXXXXXXXX
1280 : XXXXXXXXXXXXXXXX XXXXXXXXXXXXXXXX XXXXXXXXXXXXXXXX XXXXXXXXXXXXXXXX
12C0 : XXXXXXXXXXXXXXXX XXXXXXXXXXXXXXXX XXXXXXXXXXXXXXXX XXXXXXXXXXXXXXXX
1300 : XXXXXXXXXXXXXXXX XXXXXXXXXXXXXXXX XXXXXXXXXXXXXXXX XXXXXXXXXXXXXXXX
1340 : XXXXXXXXXXXXXXXX XXXXXXXXXXXXXXXX XXXXXXXXXXXXXXXX XXXXXXXXXXXXXXXX
1380 : XXXXXXXXXXXXXXXX XXXXXXXXXXXXXXXX XXXXXXXXXXXXXXXX XXXXXXXXXXXXXXXX
13C0 : XXXXXXXXXXXXXXXX XXXXXXXXXXXXXXXX XXXXXXXXXXXXXXXX XXXXXXXXXXXXXXXX
1400 : XXXXXXXXXXXXXXXX XXXXXXXXXXXXXXXX XXXXXXXXXXXXXXXX XXXXXXXXXXXXXXXX
1440 : XXXXXXXXXXXXXXXX XXXXXXXXXXXXXXXX XXXXXXXXXXXXXXXX XXXXXXXXXXXXXXXX
1480 : XXXXXXXXXXXXXXXX XXXXXXXXXXXXXXXX XXXXXXXXXXXXXXXX XXXXXXXXXXXXXXXX
14C0 : XXXXXXXXXXXXXXXX XXXXXXXXXXXXXXXX XXXXXXXXXXXXXXXX XXXXXXXXXXXXXXXX
1500 : XXXXXXXXXXXXXXXX XXXXXXXXXXXXXXXX XXXXXXXXXXXXXXXX XXXXXXXXXXXXXXXX
1540 : XXXXXXXXXXXXXXXX XXXXXXXXXXXXXXXX XXXXXXXXXXXXXXXX XXXXXXXXXXXXXXXX
1580 : XXXXXXXXXXXXXXXX XXXXXXXXXXXXXXXX XXXXXXXXXXXXXXXX XXXXXXXXXXXXXXXX
15C0 : XXXXXXXXXXXXXXXX XXXXXXXXXXXXXXXX XXXXXXXXXXXXXXXX XXXXXXXXXXXXXXXX
1600 : XXXXXXXXXXXXXXXX XXXXXXXXXXXXXXXX XXXXXXXXXXXXXXXX XXXXXXXXXXXXXXXX
1640 : XXXXXXXXXXXXXXXX XXXXXXXXXXXXXXXX XXXXXXXXXXXXXXXX XXXXXXXXXXXXXXXX
1680 : XXXXXXXXXXXXXXXX XXXXXXXXXXXXXXXX XXXXXXXXXXXXXXXX XXXXXXXXXXXXXXXX
16C0 : XXXXXXXXXXXXXXXX XXXXXXXXXXXXXXXX XXXXXXXXXXXXXXXX XXXXXXXXXXXXXXXX
1700 : XXXXXXXXXXXXXXXX XXXXXXXXXXXXXXXX XXXXXXXXXXXXXXXX XXXXXXXXXXXXXXXX
1740 : XXXXXXXXXXXXXXXX XXXXXXXXXXXXX--- ---------------- ----------------
1800 : XXXXXXXXXXXXXXXX XXXXXXXXXXXXXXXX XXXXXXXXXXXXXXXX XXXXXXXXXXXXXXXX
1840 : XXXXXXXXXXXXXXXX XXXXXXXXXXXXXXXX XXXXXXXXXXXXXXXX XXXXXXXXXXXXXXXX
gpasm-1.5.0 #1285 (Jan 23 2020) unidds_v1_08.   27.01.2020  22:56:48        PAGE 129


MEMORY USAGE MAP ('X' = Used,  '-' = Unused)

1880 : XXXXXXXXXXXXXXXX XXXXXXXXXXXXXXXX XXXXXXXXXXXXXXXX XXXXXXXXXXXXXXXX
18C0 : XXXXXXXXXXXXXXXX XXXXXXXXXXXXXXXX XXXXXXXXXXXXXXXX XXXXXXXXXXXXXXXX
1900 : XXXXXXXXXXXXXXXX XXXXXXXXXXXXXXXX XXXXXXXXXXXXXXXX XXXXXXXXXXXXXXXX
1940 : XXXXXXXXXXXXXXXX XXXXXXXXXXXXXXXX XXXXXXXXXXXXXXXX XXXXXXXXXXXXXXXX
1980 : XXXXXXXXXXXXXXXX XXXXXXXXXXXXXXXX XXXXXXXXXXXXXXXX XXXXXXXXXXXXXXXX
19C0 : XXXXXXXXXXXXXXXX XXXXXXXXXXXXXXXX XXXXXXXXXXXXXXXX XXXXXXXXXXXXXXXX
1A00 : XXXXXXXXXXXXXXXX ---------------- ---------------- ----------------
2000 : -------X-------- ---------------- ---------------- ----------------
2100 : XXXXXXXXXXXXXXXX XXXXXXXXXXXXX--- ---------------- ----------------

All other memory blocks unused.

Program Memory Words Used:  4761
Program Memory Words Free:  3431


Errors   :     0
Warnings :     1 reported,     0 suppressed
Messages :     0 reported,     0 suppressed

